(ipowercad.design.library_structures
Lead
p0
(dp1
S'lead_type'
p2
I1
sS'shape'
p3
I1
sS'properties'
p4
(ipowercad.design.library_structures
MaterialProperties
p5
(dp6
S'name'
p7
S'Aluminium'
p8
sS'density'
p9
NsS'electrical_res'
p10
F3e-08
sS'rel_permeab'
p11
NsS'rel_permit'
p12
NsS'thermal_cond'
p13
NsS'spec_heat_cap'
p14
Nsbsg7
S'Aluminium Busbar Lead 18x5x0.5x10mm'
p15
sS'dimensions'
p16
(I18
F5.0
F0.5
F10.0
tp17
sb.