(ipowercad.design.library_structures
Lead
p0
(dp1
S'lead_type'
p2
I1
sS'shape'
p3
I1
sS'properties'
p4
(ipowercad.design.library_structures
MaterialProperties
p5
(dp6
S'name'
p7
S'Copper'
p8
sS'density'
p9
NsS'electrical_res'
p10
F1.7e-08
sS'rel_permeab'
p11
NsS'rel_permit'
p12
NsS'thermal_cond'
p13
NsS'spec_heat_cap'
p14
Nsbsg7
S'Copper Busbar Lead 7.85x2x0.5x3mm'
p15
sS'dimensions'
p16
(F7.85
F2.0
F0.5
F3.0
tp17
sb.