(ipowercad.design.library_structures
Lead
p0
(dp1
S'lead_type'
p2
I2
sS'shape'
p3
I2
sS'properties'
p4
(ipowercad.design.library_structures
MaterialProperties
p5
(dp6
S'name'
p7
S'Aluminium'
p8
sS'density'
p9
NsS'electrical_res'
p10
F3e-08
sS'rel_permeab'
p11
NsS'rel_permit'
p12
NsS'thermal_cond'
p13
NsS'spec_heat_cap'
p14
Nsbsg7
S'Cylindrical Aluminium Lead 1.2mm Diam.'
p15
sS'dimensions'
p16
(F1.2
I10
tp17
sb.