(ipowercad.design.library_structures
Lead
p0
(dp1
S'lead_type'
p2
I1
sS'shape'
p3
I2
sS'properties'
p4
(ipowercad.design.library_structures
MaterialProperties
p5
(dp6
S'name'
p7
NsS'density'
p8
NsS'electrical_res'
p9
F1.76e-08
sS'rel_permeab'
p10
NsS'rel_permit'
p11
NsS'thermal_cond'
p12
NsS'spec_heat_cap'
p13
Nsbsg7
S'hex1'
p14
sS'dimensions'
p15
(F6.0
F12.0
tp16
sb.