(ipowercad.design.library_structures
Substrate
p0
(dp1
S'isolation_properties'
p2
(ipowercad.design.library_structures
MaterialProperties
p3
(dp4
S'name'
p5
S'MarkeTech AlN 160'
p6
sS'density'
p7
F3250.0
sS'electrical_res'
p8
NsS'rel_permeab'
p9
F2.8
sS'rel_permit'
p10
F8.7
sS'thermal_cond'
p11
F160.0
sS'spec_heat_cap'
p12
F740.0
sbsS'metal_properties'
p13
(ipowercad.design.library_structures
MaterialProperties
p14
(dp15
g5
S'Copper'
p16
sg7
F8020.0
sg8
F1.7e-08
sg9
Nsg10
Nsg11
F400.0
sg12
F386.0
sbsS'isolation_thickness'
p17
F0.64
sg5
S'Cu-AlN-Cu 12-25-12 mils'
p18
sS'metal_thickness'
p19
F0.3
sb.