(ipowercad.project_builder.project
Project
p0
(dp1
S'deviceTable'
p2
(lp3
(lp4
V  Copper Power Bondwire 0.15mm.p
p5
a(ipowercad.design.library_structures
BondWire
p6
(dp7
S'a'
p8
F0.7
sS'wire_type'
p9
I1
sS'name'
p10
S'Copper Power Bondwire 0.15mm'
p11
sS'shape'
p12
I1
sS'b'
p13
F0.125
sS'properties'
p14
(ipowercad.design.library_structures
MaterialProperties
p15
(dp16
g10
S'Copper'
p17
sS'density'
p18
NsS'electrical_res'
p19
F1.7e-08
sS'rel_permeab'
p20
NsS'rel_permit'
p21
NsS'thermal_cond'
p22
NsS'spec_heat_cap'
p23
NsbsS'dimensions'
p24
F0.15
sbaI1
aF0.0
aa(lp25
V  Copper Signal Bondwire 0.15mm.p
p26
a(ipowercad.design.library_structures
BondWire
p27
(dp28
g8
F0.7
sg9
I2
sg10
S'Copper Signal Bondwire 0.15mm'
p29
sg12
I1
sg13
F0.125
sg14
(ipowercad.design.library_structures
MaterialProperties
p30
(dp31
g10
S'Copper'
p32
sg18
Nsg19
F1.7e-08
sg20
Nsg21
Nsg22
Nsg23
Nsbsg24
F0.15
sbaI1
aF0.0
aa(lp33
V  CPMF-1200-S160B SiC-MOS.p
p34
a(ipowercad.design.project_structures
DeviceInstance
p35
(dp36
S'attach_thickness'
p37
F0.08
sS'heat_flow'
p38
F10.0
sS'attach_tech'
p39
(ipowercad.design.library_structures
DieAttach
p40
(dp41
g14
(ipowercad.design.library_structures
MaterialProperties
p42
(dp43
g10
S'SAC405'
p44
sg18
F7440.0
sg19
Nsg20
Nsg21
Nsg22
F62.0
sg23
F236.0
sbsbsS'device_tech'
p45
(ipowercad.design.library_structures
Device
p46
(dp47
g10
S'CPMF-1200-S160B SiC-MOS'
p48
sS'wire_landings'
p49
(lp50
(ipowercad.design.library_structures
BondwireLanding
p51
(dp52
S'position'
p53
(F2.1
F1.55
tp54
sS'bond_type'
p55
I2
sba(ipowercad.design.library_structures
BondwireLanding
p56
(dp57
g53
(F0.77
F2.66
tp58
sg55
I1
sba(ipowercad.design.library_structures
BondwireLanding
p59
(dp60
g53
(F0.77
F1.92
tp61
sg55
I1
sba(ipowercad.design.library_structures
BondwireLanding
p62
(dp63
g53
(F0.77
F1.18
tp64
sg55
I1
sba(ipowercad.design.library_structures
BondwireLanding
p65
(dp66
g53
(F0.77
F0.44
tp67
sg55
I1
sbasS'device_model'
p68
NsS'power_side'
p69
I1
sS'device_type'
p70
I1
sg14
(ipowercad.design.library_structures
MaterialProperties
p71
(dp72
g10
S'SiC'
p73
sg18
F3200.0
sg19
Nsg20
Nsg21
Nsg22
F120.0
sg23
F750.0
sbsg24
(F3.1
F3.1
F0.365
tp74
sbsS'thermal_features'
p75
(ipowercad.thermal.fast_thermal
DieThermalFeatures
p76
(dp77
S'eff_power'
p78
F8.50569603254842
sS'iso_top_temps'
p79
(lp80
(ipowercad.thermal.fast_thermal
ContourRect
p81
(dp82
S'width'
p83
F3.0830830830830833
sS'avg_val'
p84
F27.485609569715617
sS'height'
p85
F3.1
sba(ipowercad.thermal.fast_thermal
ContourRect
p86
(dp87
g83
F8.338338338338339
sg84
F23.83563852029707
sg85
F8.311111111111112
sba(ipowercad.thermal.fast_thermal
ContourRect
p88
(dp89
g83
F13.313313313313314
sg84
F22.36084408036041
sg85
F13.522222222222222
sba(ipowercad.thermal.fast_thermal
ContourRect
p90
(dp91
g83
F18.21821821821822
sg84
F21.807864016464922
sg85
F18.733333333333334
sba(ipowercad.thermal.fast_thermal
ContourRect
p92
(dp93
g83
F22.982982982982985
sg84
F21.490296647285998
sg85
F23.944444444444446
sba(ipowercad.thermal.fast_thermal
ContourRect
p94
(dp95
g83
F27.32732732732733
sg84
F21.275535289815185
sg85
F29.15555555555556
sba(ipowercad.thermal.fast_thermal
ContourRect
p96
(dp97
g83
F31.32132132132132
sg84
F21.119582530139574
sg85
F34.36666666666667
sba(ipowercad.thermal.fast_thermal
ContourRect
p98
(dp99
g83
F34.75475475475476
sg84
F21.004482911503
sg85
F39.57777777777778
sba(ipowercad.thermal.fast_thermal
ContourRect
p100
(dp101
g83
F37.34734734734735
sg84
F20.923214752973323
sg85
F44.78888888888889
sba(ipowercad.thermal.fast_thermal
ContourRect
p102
(dp103
g83
F39.0990990990991
sg84
F20.870084256811968
sg85
F50.0
sbasS'iso_top_avg_temp'
p104
F21.002813217032966
sS'die_power'
p105
F10.0
sS'die_res'
p106
F0.45077931813858774
sS'self_temp'
p107
F27.46569142229879
sS'iso_top_fluxes'
p108
(lp109
(ipowercad.thermal.fast_thermal
ContourRect
p110
(dp111
g83
F3.0830830830830833
sg84
F0.5054099442199633
sg85
F3.1
sba(ipowercad.thermal.fast_thermal
ContourRect
p112
(dp113
g83
F3.6436436436436437
sg84
F0.2829462757860034
sg85
F3.6320653987320655
sba(ipowercad.thermal.fast_thermal
ContourRect
p114
(dp115
g83
F4.2042042042042045
sg84
F0.1930913641609823
sg85
F4.16413079746413
sba(ipowercad.thermal.fast_thermal
ContourRect
p116
(dp117
g83
F4.764764764764765
sg84
F0.12211450245146534
sg85
F4.696196196196196
sba(ipowercad.thermal.fast_thermal
ContourRect
p118
(dp119
g83
F5.465465465465465
sg84
F0.06960481789119967
sg85
F5.228261594928261
sba(ipowercad.thermal.fast_thermal
ContourRect
p120
(dp121
g83
F6.236236236236237
sg84
F0.034211317923605045
sg85
F5.7603269936603265
sba(ipowercad.thermal.fast_thermal
ContourRect
p122
(dp123
g83
F7.007007007007007
sg84
F0.015802206002420913
sg85
F6.292392392392392
sba(ipowercad.thermal.fast_thermal
ContourRect
p124
(dp125
g83
F8.618618618618619
sg84
F0.008534731017797965
sg85
F6.824457791124457
sba(ipowercad.thermal.fast_thermal
ContourRect
p126
(dp127
g83
F11.421421421421423
sg84
F0.008157683892681627
sg85
F7.356523189856523
sba(ipowercad.thermal.fast_thermal
ContourRect
p128
(dp129
g83
F12.192192192192193
sg84
F0.0059303594245927824
sg85
F7.888588588588588
sbasbsbaa(lp130
V  Aluminium Busbar Lead 18x5x0.5x10mm.p
p131
a(ipowercad.design.library_structures
Lead
p132
(dp133
S'lead_type'
p134
I1
sg12
I1
sg24
(I18
F5.0
F0.5
F10.0
tp135
sg10
S'Aluminium Busbar Lead 18x5x0.5x10mm'
p136
sg14
(ipowercad.design.library_structures
MaterialProperties
p137
(dp138
g10
S'Aluminium'
p139
sg18
Nsg19
F3e-08
sg20
Nsg21
Nsg22
Nsg23
Nsbsbaasg10
Vtest
p140
sS'tech_lib_dir'
p141
S'C:\\GitStuff\\Mantooth3Git\\PowerCAD-full\\tech_lib'
p142
sS'module_data'
p143
ccopy_reg
_reconstructor
p144
(cpowercad.design.module_data
ModuleData
p145
c__builtin__
object
p146
Ntp147
Rp148
(dp149
S'substrate'
p150
(ipowercad.design.project_structures
SubstrateInstance
p151
(dp152
S'ledge_width'
p153
F2.0
sg24
(F70.0
F50.0
tp154
sS'substrate_tech'
p155
(ipowercad.design.library_structures
Substrate
p156
(dp157
S'isolation_properties'
p158
(ipowercad.design.library_structures
MaterialProperties
p159
(dp160
g10
S'MarkeTech AlN 160'
p161
sg18
F3250.0
sg19
Nsg20
F2.8
sg21
F8.7
sg22
F160.0
sg23
F740.0
sbsS'metal_properties'
p162
(ipowercad.design.library_structures
MaterialProperties
p163
(dp164
g10
S'Aluminum'
p165
sg18
F2710.0
sg19
F3e-08
sg20
Nsg21
Nsg22
F200.0
sg23
F904.0
sbsS'isolation_thickness'
p166
F0.64
sg10
S'Al-AlN-Al 16-25-16 mils'
p167
sS'metal_thickness'
p168
F0.41
sbsbsS'ambient_temp'
p169
F300.0
sS'sublayers_thermal'
p170
(ipowercad.thermal.fast_thermal
SublayerThermalFeatures
p171
(dp172
S't_amb'
p173
F300.0
sS'sub_res'
p174
cnumpy.core.multiarray
scalar
p175
(cnumpy
dtype
p176
(S'f8'
p177
I0
I1
tp178
Rp179
(I3
S'<'
p180
NNNI-1
I-1
I0
tp181
bS'&\xec(K`\xcd\x00@'
p182
tp183
Rp184
sg168
F0.41
sS'metal_cond'
p185
F200.0
sbsS'substrate_attach'
p186
(ipowercad.design.project_structures
SubstrateAttachInstance
p187
(dp188
g39
(ipowercad.design.library_structures
SubstrateAttach
p189
(dp190
g14
(ipowercad.design.library_structures
MaterialProperties
p191
(dp192
g10
S'Pb-Sn Solder Alloy'
p193
sg18
F11020.0
sg19
Nsg20
Nsg21
Nsg22
F35.8
sg23
F130.0
sbsbsS'thickness'
p194
F0.08
sbsS'frequency'
p195
F100.0
sS'baseplate'
p196
(ipowercad.design.project_structures
BaseplateInstance
p197
(dp198
S'baseplate_tech'
p199
(ipowercad.design.library_structures
Baseplate
p200
(dp201
g14
(ipowercad.design.library_structures
MaterialProperties
p202
(dp203
g10
S'MarkeTech Mo70Cu Moly'
p204
sg18
F9700.0
sg19
F1.7e-08
sg20
F1.0
sg21
Nsg22
F190.0
sg23
F385.0
sbsbsS'eff_conv_coeff'
p205
F100.0
sg24
(F80.0
F60.0
F6.0
tp206
sbsS'design_rules'
p207
(ipowercad.design.project_structures
ProcessDesignRules
p208
(dp209
S'min_trace_trace_width'
p210
F1.2
sS'signal_wire_component_dist'
p211
F0.2
sS'min_die_trace_dist'
p212
F0.1
sS'power_wire_trace_dist'
p213
F1.0
sS'power_wire_component_dist'
p214
F0.2
sS'min_die_die_dist'
p215
F0.2
sS'min_trace_width'
p216
F1.2
sS'signal_wire_trace_dist'
p217
F0.2
sbsbsS'module_stack_edit'
p218
(lp219
VAl-AlN-Al 16-25-16 mils.p
p220
aV70
p221
aV50
p222
aV2
p223
aVPb-Sn Solder Alloy.p
p224
aV0.08
p225
aVMarkeTech Mo70Cu Moly - Copy.p
p226
aV80
p227
aV60
p228
aV6
p229
aV100
p230
aV100
p231
aV300
p232
asS'num_gen'
p233
I100
sS'solutions'
p234
(lp235
(ipowercad.sol_browser.solution
Solution
p236
(dp237
S'index'
p238
I16
sS'params'
p239
(lp240
(lp241
Vmax temp
p242
aF565.8102689002633
aS'K'
p243
aa(lp244
Vloop ind
p245
aF10.88818584384559
aS'nH'
p246
aa(lp247
Vloop res
p248
aF0.3577968739457797
aS'mOhm'
p249
aasg10
VSolution 1
p250
sba(ipowercad.sol_browser.solution
Solution
p251
(dp252
g238
I43
sg239
(lp253
(lp254
g242
aF567.2705875132997
ag243
aa(lp255
g245
aF11.070393913665665
ag246
aa(lp256
g248
aF0.31894888924595793
ag249
aasg10
VSolution 2
p257
sba(ipowercad.sol_browser.solution
Solution
p258
(dp259
g238
I16
sg239
(lp260
(lp261
g242
aF565.8102689002633
ag243
aa(lp262
g245
aF10.88818584384559
ag246
aa(lp263
g248
aF0.3577968739457797
ag249
aasg10
VSolution 3
p264
sba(ipowercad.sol_browser.solution
Solution
p265
(dp266
g238
I44
sg239
(lp267
(lp268
g242
aF567.6645854460664
ag243
aa(lp269
g245
aF10.214247110281583
ag246
aa(lp270
g248
aF0.3347159518956873
ag249
aasg10
VSolution 4
p271
sbasS'directory'
p272
VC:/Users/sxm063/Desktop/Research stuff - app files/RD100 project file\u005ctest
p273
sS'symb_layout'
p274
g144
(cpowercad.sym_layout.symbolic_layout
SymbolicLayout
p275
g146
Ntp276
Rp277
(dp278
S'SymLine'
p279
cpowercad.sym_layout.symbolic_layout
SymLine
p280
sS'all_super_traces'
p281
(lp282
(g144
(g280
g146
Ntp283
Rp284
(dp285
S'num_wires'
p286
NsS'trace_connections'
p287
(lp288
g144
(g280
g146
Ntp289
Rp290
(dp291
g286
Nsg287
(lp292
g284
asS'dev_pt'
p293
NsS'land_pt2'
p294
NsS'wire'
p295
I00
sS'raw_element'
p296
g144
(cpowercad.sym_layout.svg
LayoutLine
p297
g146
Ntp298
Rp299
(dp300
S'path_id'
p301
S'0035'
p302
sS'vertical'
p303
I00
sS'pt2'
p304
(F3.0
F1.0
tp305
sS'pt1'
p306
(F1.0
F1.0
tp307
sbsS'conn_bonds'
p308
(lp309
sS'start_pt_conn'
p310
NsS'end_pts'
p311
NsS'has_rect'
p312
I00
sS'trace2'
p313
NsS'wire_sep'
p314
NsS'child_pts'
p315
(lp316
sS'trace'
p317
NsS'trace_rect'
p318
(ipowercad.general.data_struct.util
Rect
p319
(dp320
S'top'
p321
F19.2666661870043
sS'right'
p322
F36.37001814574824
sS'left'
p323
F8.701290004215107
sS'bottom'
p324
F18.066666187004298
sbsS'dv_index'
p325
I2
sS'intersecting_trace'
p326
g284
sS'device'
p327
NsS'land_pt'
p328
NsS'long_contacts'
p329
(dp330
sS'super_connections'
p331
(lp332
sS'constraint'
p333
NsS'end_pt_conn'
p334
NsS'start_pts'
p335
NsS'element'
p336
g144
(g297
g146
Ntp337
Rp338
(dp339
g301
g302
sg303
I00
sg304
(I3
I1
tp340
sg306
(I1
I1
tp341
sbsS'tech'
p342
NsS'normal_connections'
p343
(lp344
sS'trace_line'
p345
g144
(g297
g146
Ntp346
Rp347
(dp348
g301
g302
sg306
(I1
I1
tp349
sg304
(I3
I1
tp350
sg303
I00
sbsbag144
(g280
g146
Ntp351
Rp352
(dp353
g286
Nsg287
(lp354
g284
ag144
(g280
g146
Ntp355
Rp356
(dp357
g286
Nsg287
(lp358
g352
ag144
(g280
g146
Ntp359
Rp360
(dp361
g286
Nsg287
(lp362
g356
asg293
Nsg294
Nsg295
I00
sg296
g144
(g297
g146
Ntp363
Rp364
(dp365
g301
S'0057'
p366
sg303
I00
sg304
(F9.0
F1.0
tp367
sg306
(F7.0
F1.0
tp368
sbsg308
(lp369
sg310
Nsg311
Nsg312
I00
sg313
Nsg314
Nsg315
(lp370
sg317
Nsg318
(ipowercad.general.data_struct.util
Rect
p371
(dp372
g321
F19.2666661870043
sg322
F60.50096850103006
sg323
F48.56808114368817
sg324
F18.066666187004298
sbsg325
I1
sg326
g356
sg327
Nsg328
Nsg329
(dp373
sg331
(lp374
sg333
Nsg334
Nsg335
Nsg336
g144
(g297
g146
Ntp375
Rp376
(dp377
g301
g366
sg303
I00
sg304
(I9
I1
tp378
sg306
(I7
I1
tp379
sbsg342
Nsg343
(lp380
sg345
g144
(g297
g146
Ntp381
Rp382
(dp383
g301
g366
sg306
(I6
I1
tp384
sg304
(I8
I1
tp385
sg303
I00
sbsbasg293
Nsg294
Nsg295
I00
sg296
g144
(g297
g146
Ntp386
Rp387
(dp388
g301
S'0033'
p389
sg303
I01
sg304
(F8.0
F3.0
tp390
sg306
(F8.0
F0.0
tp391
sbsg308
(lp392
sg310
Nsg311
Nsg312
I01
sg313
Nsg314
Nsg315
(lp393
sg317
Nsg318
(ipowercad.general.data_struct.util
Rect
p394
(dp395
g321
F23.376358463803427
sg322
F60.50096850103006
sg323
F48.56808114368817
sg324
F0.0
sbsg325
I5
sg326
g360
sg327
Nsg328
Nsg329
(dp396
sg331
(lp397
sg333
Nsg334
Nsg335
Nsg336
g144
(g297
g146
Ntp398
Rp399
(dp400
g301
g389
sg303
I01
sg304
(I8
I3
tp401
sg306
(I8
I0
tp402
sbsg342
Nsg343
(lp403
(g144
(g280
g146
Ntp404
Rp405
(dp406
g286
Nsg287
(lp407
sg293
Nsg294
Nsg295
I00
sg296
g144
(g297
g146
Ntp408
Rp409
(dp410
g301
S'0014'
p411
sg303
I01
sg304
(F7.0
F8.0
tp412
sg306
(F7.0
F3.0
tp413
sbsg308
(lp414
sg310
Nsg311
Nsg312
I01
sg313
Nsg314
Nsg315
(lp415
g144
(cpowercad.sym_layout.symbolic_layout
SymPoint
p416
g146
Ntp417
Rp418
(dp419
S'center_position'
p420
(F50.462387875922005
F35.55705865999772
tp421
sS'sym_bondwires'
p422
(lp423
g144
(g280
g146
Ntp424
Rp425
(dp426
g286
I1
sg287
(lp427
sg293
I1
sg294
Nsg295
I01
sg296
g144
(g297
g146
Ntp428
Rp429
(dp430
g301
S'0005'
p431
sg303
I00
sg304
(F8.0
F7.0
tp432
sg306
(F7.0
F7.0
tp433
sbsg308
(lp434
sg310
Nsg311
(lp435
(F53.756694608155854
F35.55705865999772
tp436
asg312
I01
sg313
Nsg314
F0.0
sg315
Nsg317
g144
(g280
g146
Ntp437
Rp438
(dp439
g286
Nsg287
(lp440
sg293
Nsg294
Nsg295
I00
sg296
g144
(g297
g146
Ntp441
Rp442
(dp443
g301
S'0055'
p444
sg303
I01
sg304
(F8.0
F8.0
tp445
sg306
(F8.0
F4.0
tp446
sbsg308
(lp447
g144
(g280
g146
Ntp448
Rp449
(dp450
g286
I1
sg287
(lp451
sg293
I2
sg294
Nsg295
I01
sg296
g144
(g297
g146
Ntp452
Rp453
(dp454
g301
S'0000'
p455
sg303
I00
sg304
(F9.0
F6.0
tp456
sg306
(F8.0
F6.0
tp457
sbsg308
(lp458
sg310
Nsg311
(lp459
(F55.312355036562366
F25.02635846380343
tp460
asg312
I01
sg313
Nsg314
F0.0
sg315
Nsg317
g438
sg318
Nsg325
Nsg326
Nsg327
g144
(g416
g146
Ntp461
Rp462
(dp463
g420
(F58.606661768796215
F25.02635846380343
tp464
sg422
(lp465
g449
ag144
(g280
g146
Ntp466
Rp467
(dp468
g286
I1
sg287
(lp469
sg293
I1
sg294
Nsg295
I01
sg296
g144
(g297
g146
Ntp470
Rp471
(dp472
g301
S'0032'
p473
sg303
I00
sg304
(F10.0
F6.0
tp474
sg306
(F9.0
F6.0
tp475
sbsg308
(lp476
sg310
Nsg311
(lp477
(F62.70096850103006
F23.91635846380343
tp478
a(F62.70096850103006
F24.65635846380343
tp479
a(F62.70096850103006
F25.39635846380343
tp480
a(F62.70096850103006
F26.13635846380343
tp481
asg312
I01
sg313
Nsg314
F0.0
sg315
Nsg317
g144
(g280
g146
Ntp482
Rp483
(dp484
g286
Nsg287
(lp485
g144
(g280
g146
Ntp486
Rp487
(dp488
g286
Nsg287
(lp489
g483
ag144
(g280
g146
Ntp490
Rp491
(dp492
g286
Nsg287
(lp493
g487
asg293
Nsg294
Nsg295
I00
sg296
g144
(g297
g146
Ntp494
Rp495
(dp496
g301
S'0028'
p497
sg303
I01
sg304
(F6.0
F9.0
tp498
sg306
(F6.0
F3.0
tp499
sbsg308
(lp500
g144
(g280
g146
Ntp501
Rp502
(dp503
g286
I1
sg287
(lp504
sg293
I2
sg294
Nsg295
I01
sg296
g144
(g297
g146
Ntp505
Rp506
(dp507
g301
S'0036'
p508
sg303
I00
sg304
(F7.0
F7.0
tp509
sg306
(F6.0
F7.0
tp510
sbsg308
(lp511
sg310
Nsg311
(lp512
(F46.368081143688165
F36.66705865999772
tp513
a(F46.368081143688165
F35.92705865999772
tp514
a(F46.368081143688165
F35.187058659997724
tp515
a(F46.368081143688165
F34.44705865999772
tp516
asg312
I01
sg313
Nsg314
F0.0
sg315
Nsg317
g491
sg318
Nsg325
Nsg326
Nsg327
g418
sg328
(F46.368081143688165
F35.55705865999772
tp517
sg329
(dp518
sg331
(lp519
sg333
Nsg334
Nsg335
(lp520
(F49.682387875922004
F36.66705865999772
tp521
a(F49.682387875922004
F35.92705865999772
tp522
a(F49.682387875922004
F35.187058659997724
tp523
a(F49.682387875922004
F34.44705865999772
tp524
asg336
g144
(g297
g146
Ntp525
Rp526
(dp527
g301
g508
sg303
I00
sg304
(I7
I7
tp528
sg306
(I6
I7
tp529
sbsg342
g6
sg343
(lp530
sg345
Nsbag144
(g280
g146
Ntp531
Rp532
(dp533
g286
I1
sg287
(lp534
sg293
I2
sg294
Nsg295
I01
sg296
g144
(g297
g146
Ntp535
Rp536
(dp537
g301
S'0051'
p538
sg303
I00
sg304
(F7.0
F6.0
tp539
sg306
(F6.0
F6.0
tp540
sbsg308
(lp541
sg310
Nsg311
(lp542
(F46.368081143688165
F26.13635846380343
tp543
a(F46.368081143688165
F25.39635846380343
tp544
a(F46.368081143688165
F24.65635846380343
tp545
a(F46.368081143688165
F23.91635846380343
tp546
asg312
I01
sg313
Nsg314
F0.0
sg315
Nsg317
g491
sg318
Nsg325
Nsg326
Nsg327
g144
(g416
g146
Ntp547
Rp548
(dp549
g420
(F50.462387875922005
F25.02635846380343
tp550
sg422
(lp551
g144
(g280
g146
Ntp552
Rp553
(dp554
g286
I1
sg287
(lp555
sg293
I1
sg294
Nsg295
I01
sg296
g144
(g297
g146
Ntp556
Rp557
(dp558
g301
S'0019'
p559
sg303
I00
sg304
(F8.0
F6.0
tp560
sg306
(F7.0
F6.0
tp561
sbsg308
(lp562
sg310
Nsg311
(lp563
(F53.756694608155854
F25.02635846380343
tp564
asg312
I01
sg313
Nsg314
F0.0
sg315
Nsg317
g438
sg318
Nsg325
Nsg326
Nsg327
g548
sg328
(F53.756694608155854
F25.02635846380343
tp565
sg329
(dp566
sg331
(lp567
sg333
Nsg334
Nsg335
(lp568
(F51.012387875922
F25.02635846380343
tp569
asg336
g144
(g297
g146
Ntp570
Rp571
(dp572
g301
g559
sg303
I00
sg304
(I8
I6
tp573
sg306
(I7
I6
tp574
sbsg342
g27
sg343
(lp575
sg345
Nsbag532
asg296
g144
(cpowercad.sym_layout.svg
LayoutPoint
p576
g146
Ntp577
Rp578
(dp579
g301
S'0009'
p580
sS'pt'
p581
(F7.0
F6.0
tp582
sbsS'orientation'
p583
I1
sg333
Nsg325
I4
sS'parent_line'
p584
g405
sg336
g144
(g576
g146
Ntp585
Rp586
(dp587
g301
g580
sg581
(I7
I6
tp588
sbsg342
g35
sS'footprint_rect'
p589
(ipowercad.general.data_struct.util
Rect
p590
(dp591
g321
F26.57635846380343
sg323
F48.91238787592201
sg322
F52.012387875922
sg324
F23.47635846380343
sbsS'lumped_node'
p592
I33
sbsg328
(F46.368081143688165
F25.02635846380343
tp593
sg329
(dp594
sg331
(lp595
sg333
Nsg334
Nsg335
(lp596
(F49.682387875922004
F26.13635846380343
tp597
a(F49.682387875922004
F25.39635846380343
tp598
a(F49.682387875922004
F24.65635846380343
tp599
a(F49.682387875922004
F23.91635846380343
tp600
asg336
g144
(g297
g146
Ntp601
Rp602
(dp603
g301
g538
sg303
I00
sg304
(I7
I6
tp604
sg306
(I6
I6
tp605
sbsg342
g6
sg343
(lp606
sg345
Nsbag144
(g280
g146
Ntp607
Rp608
(dp609
g286
I1
sg287
(lp610
sg293
I2
sg294
Nsg295
I01
sg296
g144
(g297
g146
Ntp611
Rp612
(dp613
g301
S'0054'
p614
sg303
I00
sg304
(F7.0
F5.0
tp615
sg306
(F6.0
F5.0
tp616
sbsg308
(lp617
sg310
Nsg311
(lp618
(F46.368081143688165
F32.60843818967226
tp619
a(F46.368081143688165
F31.868438189672265
tp620
a(F46.368081143688165
F31.128438189672263
tp621
a(F46.368081143688165
F30.388438189672264
tp622
asg312
I01
sg313
Nsg314
F0.0
sg315
Nsg317
g491
sg318
Nsg325
Nsg326
Nsg327
g144
(g416
g146
Ntp623
Rp624
(dp625
g420
(F50.462387875922005
F31.498438189672264
tp626
sg422
(lp627
g144
(g280
g146
Ntp628
Rp629
(dp630
g286
I1
sg287
(lp631
sg293
I1
sg294
Nsg295
I01
sg296
g144
(g297
g146
Ntp632
Rp633
(dp634
g301
S'0012'
p635
sg303
I00
sg304
(F8.0
F5.0
tp636
sg306
(F7.0
F5.0
tp637
sbsg308
(lp638
sg310
Nsg311
(lp639
(F53.756694608155854
F31.498438189672264
tp640
asg312
I01
sg313
Nsg314
F0.0
sg315
Nsg317
g438
sg318
Nsg325
Nsg326
Nsg327
g624
sg328
(F53.756694608155854
F31.498438189672264
tp641
sg329
(dp642
sg331
(lp643
sg333
Nsg334
Nsg335
(lp644
(F51.012387875922
F31.498438189672264
tp645
asg336
g144
(g297
g146
Ntp646
Rp647
(dp648
g301
g635
sg303
I00
sg304
(I8
I5
tp649
sg306
(I7
I5
tp650
sbsg342
g27
sg343
(lp651
sg345
Nsbag608
asg296
g144
(g576
g146
Ntp652
Rp653
(dp654
g301
S'0056'
p655
sg581
(F7.0
F5.0
tp656
sbsg583
I1
sg333
Nsg325
I5
sg584
g405
sg336
g144
(g576
g146
Ntp657
Rp658
(dp659
g301
g655
sg581
(I7
I5
tp660
sbsg342
g35
sg589
(ipowercad.general.data_struct.util
Rect
p661
(dp662
g321
F33.04843818967226
sg323
F48.91238787592201
sg322
F52.012387875922
sg324
F29.948438189672263
sbsg592
I34
sbsg328
(F46.368081143688165
F31.498438189672264
tp663
sg329
(dp664
sg331
(lp665
sg333
Nsg334
Nsg335
(lp666
(F49.682387875922004
F32.60843818967226
tp667
a(F49.682387875922004
F31.868438189672265
tp668
a(F49.682387875922004
F31.128438189672263
tp669
a(F49.682387875922004
F30.388438189672264
tp670
asg336
g144
(g297
g146
Ntp671
Rp672
(dp673
g301
g614
sg303
I00
sg304
(I7
I5
tp674
sg306
(I6
I5
tp675
sbsg342
g6
sg343
(lp676
sg345
Nsbasg310
Nsg311
Nsg312
I01
sg313
Nsg314
Nsg315
(lp677
sg317
Nsg318
(ipowercad.general.data_struct.util
Rect
p678
(dp679
g321
F38.40705865999772
sg322
F47.368081143688165
sg323
F43.069049644718206
sg324
F19.2666661870043
sbsg325
I0
sg326
Nsg327
Nsg328
Nsg329
(dp680
sg331
(lp681
sg333
Nsg334
Nsg335
Nsg336
g144
(g297
g146
Ntp682
Rp683
(dp684
g301
g497
sg303
I01
sg304
(I6
I9
tp685
sg306
(I6
I3
tp686
sbsg342
Nsg343
(lp687
sg345
g144
(g297
g146
Ntp688
Rp689
(dp690
g301
g497
sg306
(I5
I3
tp691
sg304
(I5
I6
tp692
sg303
I01
sbsbasg293
Nsg294
Nsg295
I00
sg296
g144
(g297
g146
Ntp693
Rp694
(dp695
g301
S'0002'
p696
sg303
I00
sg304
(F10.0
F9.0
tp697
sg306
(F6.0
F9.0
tp698
sbsg308
(lp699
sg310
Nsg311
Nsg312
I01
sg313
Nsg314
Nsg315
(lp700
g144
(g416
g146
Ntp701
Rp702
(dp703
g420
(F54.53452482235911
F43.49999999999999
tp704
sg422
(lp705
sg296
g144
(g576
g146
Ntp706
Rp707
(dp708
g301
S'0047'
p709
sg581
(F8.0
F9.0
tp710
sbsg583
I1
sg333
Nsg325
Nsg584
g487
sg336
g144
(g576
g146
Ntp711
Rp712
(dp713
g301
g709
sg581
(I8
I9
tp714
sbsg342
g132
sg589
(ipowercad.general.data_struct.util
Rect
p715
(dp716
g321
F45.99999999999999
sg323
F45.53452482235911
sg322
F63.53452482235911
sg324
F40.99999999999999
sbsg592
I20
sbasg317
Nsg318
(ipowercad.general.data_struct.util
Rect
p717
(dp718
g321
F45.99999999999999
sg322
F66.00000000000001
sg323
F43.069049644718206
sg324
F38.40705865999772
sbsg325
I7
sg326
Nsg327
Nsg328
Nsg329
(dp719
sg331
(lp720
sg333
Nsg334
Nsg335
Nsg336
g144
(g297
g146
Ntp721
Rp722
(dp723
g301
g696
sg303
I00
sg304
(I10
I9
tp724
sg306
(I6
I9
tp725
sbsg342
Nsg343
(lp726
sg345
g144
(g297
g146
Ntp727
Rp728
(dp729
g301
g696
sg306
(I5
I6
tp730
sg304
(I9
I6
tp731
sg303
I00
sbsbasg293
Nsg294
Nsg295
I00
sg296
g144
(g297
g146
Ntp732
Rp733
(dp734
g301
S'0026'
p735
sg303
I01
sg304
(F10.0
F9.0
tp736
sg306
(F10.0
F3.0
tp737
sbsg308
(lp738
g144
(g280
g146
Ntp739
Rp740
(dp741
g286
I1
sg287
(lp742
sg293
I1
sg294
Nsg295
I01
sg296
g144
(g297
g146
Ntp743
Rp744
(dp745
g301
S'0003'
p746
sg303
I00
sg304
(F10.0
F5.0
tp747
sg306
(F9.0
F5.0
tp748
sbsg308
(lp749
sg310
Nsg311
(lp750
(F62.70096850103006
F30.388438189672264
tp751
a(F62.70096850103006
F31.128438189672263
tp752
a(F62.70096850103006
F31.868438189672265
tp753
a(F62.70096850103006
F32.60843818967226
tp754
asg312
I01
sg313
Nsg314
F0.0
sg315
Nsg317
g483
sg318
Nsg325
Nsg326
Nsg327
g144
(g416
g146
Ntp755
Rp756
(dp757
g420
(F58.606661768796215
F31.498438189672264
tp758
sg422
(lp759
g740
ag144
(g280
g146
Ntp760
Rp761
(dp762
g286
I1
sg287
(lp763
sg293
I2
sg294
Nsg295
I01
sg296
g144
(g297
g146
Ntp764
Rp765
(dp766
g301
S'0029'
p767
sg303
I00
sg304
(F9.0
F5.0
tp768
sg306
(F8.0
F5.0
tp769
sbsg308
(lp770
sg310
Nsg311
(lp771
(F55.312355036562366
F31.498438189672264
tp772
asg312
I01
sg313
Nsg314
F0.0
sg315
Nsg317
g438
sg318
Nsg325
Nsg326
Nsg327
g756
sg328
(F55.312355036562366
F31.498438189672264
tp773
sg329
(dp774
sg331
(lp775
sg333
Nsg334
Nsg335
(lp776
(F58.05666176879622
F31.498438189672264
tp777
asg336
g144
(g297
g146
Ntp778
Rp779
(dp780
g301
g767
sg303
I00
sg304
(I9
I5
tp781
sg306
(I8
I5
tp782
sbsg342
g27
sg343
(lp783
sg345
Nsbasg296
g144
(g576
g146
Ntp784
Rp785
(dp786
g301
S'0052'
p787
sg581
(F9.0
F5.0
tp788
sbsg583
I2
sg333
Nsg325
I5
sg584
g144
(g280
g146
Ntp789
Rp790
(dp791
g286
Nsg287
(lp792
sg293
Nsg294
Nsg295
I00
sg296
g144
(g297
g146
Ntp793
Rp794
(dp795
g301
S'0027'
p796
sg303
I01
sg304
(F9.0
F8.0
tp797
sg306
(F9.0
F3.0
tp798
sbsg308
(lp799
sg310
Nsg311
Nsg312
I01
sg313
Nsg314
Nsg315
(lp800
g144
(g416
g146
Ntp801
Rp802
(dp803
g420
(F58.606661768796215
F35.55705865999772
tp804
sg422
(lp805
g144
(g280
g146
Ntp806
Rp807
(dp808
g286
I1
sg287
(lp809
sg293
I1
sg294
Nsg295
I01
sg296
g144
(g297
g146
Ntp810
Rp811
(dp812
g301
S'0031'
p813
sg303
I00
sg304
(F10.0
F7.0
tp814
sg306
(F9.0
F7.0
tp815
sbsg308
(lp816
sg310
Nsg311
(lp817
(F62.70096850103006
F34.44705865999772
tp818
a(F62.70096850103006
F35.187058659997724
tp819
a(F62.70096850103006
F35.92705865999772
tp820
a(F62.70096850103006
F36.66705865999772
tp821
asg312
I01
sg313
Nsg314
F0.0
sg315
Nsg317
g483
sg318
Nsg325
Nsg326
Nsg327
g802
sg328
(F62.70096850103006
F35.55705865999772
tp822
sg329
(dp823
sg331
(lp824
sg333
Nsg334
Nsg335
(lp825
(F59.386661768796216
F34.44705865999772
tp826
a(F59.386661768796216
F35.187058659997724
tp827
a(F59.386661768796216
F35.92705865999772
tp828
a(F59.386661768796216
F36.66705865999772
tp829
asg336
g144
(g297
g146
Ntp830
Rp831
(dp832
g301
g813
sg303
I00
sg304
(I10
I7
tp833
sg306
(I9
I7
tp834
sbsg342
g6
sg343
(lp835
sg345
Nsbag144
(g280
g146
Ntp836
Rp837
(dp838
g286
I1
sg287
(lp839
sg293
I2
sg294
Nsg295
I01
sg296
g144
(g297
g146
Ntp840
Rp841
(dp842
g301
S'0058'
p843
sg303
I00
sg304
(F9.0
F7.0
tp844
sg306
(F8.0
F7.0
tp845
sbsg308
(lp846
sg310
Nsg311
(lp847
(F55.312355036562366
F35.55705865999772
tp848
asg312
I01
sg313
Nsg314
F0.0
sg315
Nsg317
g438
sg318
Nsg325
Nsg326
Nsg327
g802
sg328
(F55.312355036562366
F35.55705865999772
tp849
sg329
(dp850
sg331
(lp851
sg333
Nsg334
Nsg335
(lp852
(F58.05666176879622
F35.55705865999772
tp853
asg336
g144
(g297
g146
Ntp854
Rp855
(dp856
g301
g843
sg303
I00
sg304
(I9
I7
tp857
sg306
(I8
I7
tp858
sbsg342
g27
sg343
(lp859
sg345
Nsbasg296
g144
(g576
g146
Ntp860
Rp861
(dp862
g301
S'0024'
p863
sg581
(F9.0
F7.0
tp864
sbsg583
I2
sg333
Nsg325
I3
sg584
g790
sg336
g144
(g576
g146
Ntp865
Rp866
(dp867
g301
g863
sg581
(I9
I7
tp868
sbsg342
g35
sg589
(ipowercad.general.data_struct.util
Rect
p869
(dp870
g321
F37.10705865999772
sg323
F57.05666176879622
sg322
F60.15666176879621
sg324
F34.007058659997725
sbsg592
I57
sbag462
ag756
asg317
Nsg318
(ipowercad.general.data_struct.util
Rect
p871
(dp872
g321
F37.20705865999772
sg322
F60.50096850103006
sg323
F56.71235503656238
sg324
F23.376358463803427
sbsg325
I2
sg326
Nsg327
Nsg328
Nsg329
(dp873
sg331
(lp874
((g356
g360
(I6
I8
tp875
(I0
I3
tp876
tp877
I1
tp878
asg333
Nsg334
Nsg335
Nsg336
g144
(g297
g146
Ntp879
Rp880
(dp881
g301
g796
sg303
I01
sg304
(I9
I8
tp882
sg306
(I9
I3
tp883
sbsg342
Nsg343
(lp884
sg345
g144
(g297
g146
Ntp885
Rp886
(dp887
g301
g796
sg306
(I8
I3
tp888
sg304
(I8
I5
tp889
sg303
I01
sbsbsg336
g144
(g576
g146
Ntp890
Rp891
(dp892
g301
g787
sg581
(I9
I5
tp893
sbsg342
g35
sg589
(ipowercad.general.data_struct.util
Rect
p894
(dp895
g321
F33.04843818967226
sg323
F57.05666176879622
sg322
F60.15666176879621
sg324
F29.948438189672263
sbsg592
I56
sbsg328
(F62.70096850103006
F31.498438189672264
tp896
sg329
(dp897
sg331
(lp898
sg333
Nsg334
Nsg335
(lp899
(F59.386661768796216
F30.388438189672264
tp900
a(F59.386661768796216
F31.128438189672263
tp901
a(F59.386661768796216
F31.868438189672265
tp902
a(F59.386661768796216
F32.60843818967226
tp903
asg336
g144
(g297
g146
Ntp904
Rp905
(dp906
g301
g746
sg303
I00
sg304
(I10
I5
tp907
sg306
(I9
I5
tp908
sbsg342
g6
sg343
(lp909
sg345
Nsbag807
ag467
asg310
Nsg311
Nsg312
I01
sg313
Nsg314
Nsg315
(lp910
sg317
Nsg318
(ipowercad.general.data_struct.util
Rect
p911
(dp912
g321
F38.40705865999772
sg322
F66.00000000000001
sg323
F61.70096850103006
sg324
F19.2666661870043
sbsg325
I0
sg326
Nsg327
Nsg328
Nsg329
(dp913
sg331
(lp914
sg333
Nsg334
Nsg335
Nsg336
g144
(g297
g146
Ntp915
Rp916
(dp917
g301
g735
sg303
I01
sg304
(I10
I9
tp918
sg306
(I10
I3
tp919
sbsg342
Nsg343
(lp920
sg345
g144
(g297
g146
Ntp921
Rp922
(dp923
g301
g735
sg306
(I9
I3
tp924
sg304
(I9
I6
tp925
sg303
I01
sbsbsg318
Nsg325
Nsg326
Nsg327
g462
sg328
(F62.70096850103006
F25.02635846380343
tp926
sg329
(dp927
sg331
(lp928
sg333
Nsg334
Nsg335
(lp929
(F59.386661768796216
F23.91635846380343
tp930
a(F59.386661768796216
F24.65635846380343
tp931
a(F59.386661768796216
F25.39635846380343
tp932
a(F59.386661768796216
F26.13635846380343
tp933
asg336
g144
(g297
g146
Ntp934
Rp935
(dp936
g301
g473
sg303
I00
sg304
(I10
I6
tp937
sg306
(I9
I6
tp938
sbsg342
g6
sg343
(lp939
sg345
Nsbasg296
g144
(g576
g146
Ntp940
Rp941
(dp942
g301
S'0042'
p943
sg581
(F9.0
F6.0
tp944
sbsg583
I2
sg333
Nsg325
I4
sg584
g790
sg336
g144
(g576
g146
Ntp945
Rp946
(dp947
g301
g943
sg581
(I9
I6
tp948
sbsg342
g35
sg589
(ipowercad.general.data_struct.util
Rect
p949
(dp950
g321
F26.57635846380343
sg323
F57.05666176879622
sg322
F60.15666176879621
sg324
F23.47635846380343
sbsg592
I55
sbsg328
(F55.312355036562366
F25.02635846380343
tp951
sg329
(dp952
sg331
(lp953
sg333
Nsg334
Nsg335
(lp954
(F58.05666176879622
F25.02635846380343
tp955
asg336
g144
(g297
g146
Ntp956
Rp957
(dp958
g301
g455
sg303
I00
sg304
(I9
I6
tp959
sg306
(I8
I6
tp960
sbsg342
g27
sg343
(lp961
sg345
Nsbag425
ag629
ag553
ag761
ag837
asg310
Nsg311
Nsg312
I01
sg313
Nsg314
Nsg315
(lp962
sg317
Nsg318
(ipowercad.general.data_struct.util
Rect
p963
(dp964
g321
F37.20705865999772
sg322
F55.51235503656237
sg323
F53.55669460815585
sg324
F24.576358463803427
sbsg325
I6
sg326
Nsg327
Nsg328
Nsg329
(dp965
sg331
(lp966
sg333
Nsg334
Nsg335
Nsg336
g144
(g297
g146
Ntp967
Rp968
(dp969
g301
g444
sg303
I01
sg304
(I8
I8
tp970
sg306
(I8
I4
tp971
sbsg342
Nsg343
(lp972
sg345
g144
(g297
g146
Ntp973
Rp974
(dp975
g301
g444
sg306
(I7
I4
tp976
sg304
(I7
I5
tp977
sg303
I01
sbsbsg318
Nsg325
Nsg326
Nsg327
g418
sg328
(F53.756694608155854
F35.55705865999772
tp978
sg329
(dp979
sg331
(lp980
sg333
Nsg334
Nsg335
(lp981
(F51.012387875922
F35.55705865999772
tp982
asg336
g144
(g297
g146
Ntp983
Rp984
(dp985
g301
g431
sg303
I00
sg304
(I8
I7
tp986
sg306
(I7
I7
tp987
sbsg342
g27
sg343
(lp988
sg345
Nsbag502
asg296
g144
(g576
g146
Ntp989
Rp990
(dp991
g301
S'0001'
p992
sg581
(F7.0
F7.0
tp993
sbsg583
I1
sg333
Nsg325
I3
sg584
g405
sg336
g144
(g576
g146
Ntp994
Rp995
(dp996
g301
g992
sg581
(I7
I7
tp997
sbsg342
g35
sg589
(ipowercad.general.data_struct.util
Rect
p998
(dp999
g321
F37.10705865999772
sg323
F48.91238787592201
sg322
F52.012387875922
sg324
F34.007058659997725
sbsg592
I35
sbag548
ag624
asg317
Nsg318
(ipowercad.general.data_struct.util
Rect
p1000
(dp1001
g321
F37.20705865999772
sg322
F52.35669460815585
sg323
F48.56808114368817
sg324
F23.376358463803427
sbsg325
I2
sg326
Nsg327
Nsg328
Nsg329
(dp1002
sg331
(lp1003
(g877
I1
tp1004
asg333
Nsg334
Nsg335
Nsg336
g144
(g297
g146
Ntp1005
Rp1006
(dp1007
g301
g411
sg303
I01
sg304
(I7
I8
tp1008
sg306
(I7
I3
tp1009
sbsg342
Nsg343
(lp1010
sg345
g144
(g297
g146
Ntp1011
Rp1012
(dp1013
g301
g411
sg306
(I6
I3
tp1014
sg304
(I6
I5
tp1015
sg303
I01
sbsbI1
tp1016
a(g790
I1
tp1017
a(g352
I2
tp1018
asg345
g144
(g297
g146
Ntp1019
Rp1020
(dp1021
g301
g389
sg306
(I7
I0
tp1022
sg304
(I7
I3
tp1023
sg303
I01
sbsbasg293
Nsg294
Nsg295
I00
sg296
g144
(g297
g146
Ntp1024
Rp1025
(dp1026
g301
S'0038'
p1027
sg303
I00
sg304
(F9.0
F0.0
tp1028
sg306
(F1.0
F0.0
tp1029
sbsg308
(lp1030
sg310
Nsg311
Nsg312
I01
sg313
Nsg314
Nsg315
(lp1031
g144
(g416
g146
Ntp1032
Rp1033
(dp1034
g420
(F42.469049644718204
F2.5
tp1035
sg422
(lp1036
sg296
g144
(g576
g146
Ntp1037
Rp1038
(dp1039
g301
S'0020'
p1040
sg581
(F5.0
F0.0
tp1041
sbsg583
I2
sg333
Nsg325
Nsg584
g352
sg336
g144
(g576
g146
Ntp1042
Rp1043
(dp1044
g301
g1040
sg581
(I5
I0
tp1045
sbsg342
g132
sg589
(ipowercad.general.data_struct.util
Rect
p1046
(dp1047
g321
F5.0
sg323
F33.469049644718204
sg322
F51.469049644718204
sg324
F0.0
sbsg592
I81
sbasg317
Nsg318
(ipowercad.general.data_struct.util
Rect
p1048
(dp1049
g321
F16.8666661870043
sg322
F48.56808114368817
sg323
F36.37001814574824
sg324
F0.0
sbsg325
I0
sg326
Nsg327
Nsg328
Nsg329
(dp1050
sg331
(lp1051
((g284
g290
(I1
I3
tp1052
(I0
I3
tp1053
tp1054
I1
tp1055
a(g877
I2
tp1056
asg333
Nsg334
Nsg335
Nsg336
g144
(g297
g146
Ntp1057
Rp1058
(dp1059
g301
g1027
sg303
I00
sg304
(I9
I0
tp1060
sg306
(I1
I0
tp1061
sbsg342
Nsg343
(lp1062
sg345
g144
(g297
g146
Ntp1063
Rp1064
(dp1065
g301
g1027
sg306
(I1
I0
tp1066
sg304
(I8
I0
tp1067
sg303
I00
sbsbag144
(g280
g146
Ntp1068
Rp1069
(dp1070
g286
Nsg287
(lp1071
g144
(g280
g146
Ntp1072
Rp1073
(dp1074
g286
Nsg287
(lp1075
g1069
asg293
Nsg294
Nsg295
I00
sg296
g144
(g297
g146
Ntp1076
Rp1077
(dp1078
g301
S'0004'
p1079
sg303
I01
sg304
(F0.0
F8.0
tp1080
sg306
(F0.0
F3.0
tp1081
sbsg308
(lp1082
g144
(g280
g146
Ntp1083
Rp1084
(dp1085
g286
I1
sg287
(lp1086
sg293
I2
sg294
Nsg295
I01
sg296
g144
(g297
g146
Ntp1087
Rp1088
(dp1089
g301
S'0023'
p1090
sg303
I00
sg304
(F1.0
F7.0
tp1091
sg306
(F0.0
F7.0
tp1092
sbsg308
(lp1093
sg310
Nsg311
(lp1094
(F4.900160751592533
F35.806928677026285
tp1095
a(F4.900160751592533
F35.06692867702628
tp1096
a(F4.900160751592533
F34.32692867702629
tp1097
a(F4.900160751592533
F33.586928677026286
tp1098
asg312
I01
sg313
Nsg314
F0.0
sg315
Nsg317
g1073
sg318
Nsg325
Nsg326
Nsg327
g144
(g416
g146
Ntp1099
Rp1100
(dp1101
g420
(F10.595596736448947
F34.696928677026285
tp1102
sg422
(lp1103
g144
(g280
g146
Ntp1104
Rp1105
(dp1106
g286
I1
sg287
(lp1107
sg293
I1
sg294
Nsg295
I01
sg296
g144
(g297
g146
Ntp1108
Rp1109
(dp1110
g301
S'0016'
p1111
sg303
I00
sg304
(F2.0
F7.0
tp1112
sg306
(F1.0
F7.0
tp1113
sbsg308
(lp1114
sg310
Nsg311
(lp1115
(F13.889903468682787
F34.696928677026285
tp1116
asg312
I01
sg313
Nsg314
F0.0
sg315
Nsg317
g144
(g280
g146
Ntp1117
Rp1118
(dp1119
g286
Nsg287
(lp1120
sg293
Nsg294
Nsg295
I00
sg296
g144
(g297
g146
Ntp1121
Rp1122
(dp1123
g301
S'0021'
p1124
sg303
I01
sg304
(F2.0
F8.0
tp1125
sg306
(F2.0
F4.0
tp1126
sbsg308
(lp1127
g144
(g280
g146
Ntp1128
Rp1129
(dp1130
g286
I1
sg287
(lp1131
sg293
I1
sg294
Nsg295
I01
sg296
g144
(g297
g146
Ntp1132
Rp1133
(dp1134
g301
S'0010'
p1135
sg303
I00
sg304
(F2.0
F5.0
tp1136
sg306
(F1.0
F5.0
tp1137
sbsg308
(lp1138
sg310
Nsg311
(lp1139
(F13.889903468682787
F26.22635846380343
tp1140
asg312
I01
sg313
Nsg314
F0.0
sg315
Nsg317
g1118
sg318
Nsg325
Nsg326
Nsg327
g144
(g416
g146
Ntp1141
Rp1142
(dp1143
g420
(F10.595596736448947
F26.22635846380343
tp1144
sg422
(lp1145
g1129
ag144
(g280
g146
Ntp1146
Rp1147
(dp1148
g286
I1
sg287
(lp1149
sg293
I2
sg294
Nsg295
I01
sg296
g144
(g297
g146
Ntp1150
Rp1151
(dp1152
g301
S'0043'
p1153
sg303
I00
sg304
(F1.0
F5.0
tp1154
sg306
(F0.0
F5.0
tp1155
sbsg308
(lp1156
sg310
Nsg311
(lp1157
(F4.900160751592533
F27.33635846380343
tp1158
a(F4.900160751592533
F26.59635846380343
tp1159
a(F4.900160751592533
F25.856358463803428
tp1160
a(F4.900160751592533
F25.11635846380343
tp1161
asg312
I01
sg313
Nsg314
F0.0
sg315
Nsg317
g1073
sg318
Nsg325
Nsg326
Nsg327
g1142
sg328
(F4.900160751592533
F26.22635846380343
tp1162
sg329
(dp1163
sg331
(lp1164
sg333
Nsg334
Nsg335
(lp1165
(F9.815596736448947
F27.33635846380343
tp1166
a(F9.815596736448947
F26.59635846380343
tp1167
a(F9.815596736448947
F25.856358463803428
tp1168
a(F9.815596736448947
F25.11635846380343
tp1169
asg336
g144
(g297
g146
Ntp1170
Rp1171
(dp1172
g301
g1153
sg303
I00
sg304
(I1
I5
tp1173
sg306
(I0
I5
tp1174
sbsg342
g6
sg343
(lp1175
sg345
Nsbasg296
g144
(g576
g146
Ntp1176
Rp1177
(dp1178
g301
S'0040'
p1179
sg581
(F1.0
F5.0
tp1180
sbsg583
I1
sg333
Nsg325
I2
sg584
g144
(g280
g146
Ntp1181
Rp1182
(dp1183
g286
Nsg287
(lp1184
g144
(g280
g146
Ntp1185
Rp1186
(dp1187
g286
Nsg287
(lp1188
g1182
ag144
(g280
g146
Ntp1189
Rp1190
(dp1191
g286
Nsg287
(lp1192
g1186
asg293
Nsg294
Nsg295
I00
sg296
g144
(g297
g146
Ntp1193
Rp1194
(dp1195
g301
S'0034'
p1196
sg303
I01
sg304
(F3.0
F9.0
tp1197
sg306
(F3.0
F4.0
tp1198
sbsg308
(lp1199
sg310
Nsg311
Nsg312
I01
sg313
Nsg314
Nsg315
(lp1200
g144
(g416
g146
Ntp1201
Rp1202
(dp1203
g420
(F34.475711413514404
F26.22635846380343
tp1204
sg422
(lp1205
g144
(g280
g146
Ntp1206
Rp1207
(dp1208
g286
I1
sg287
(lp1209
sg293
I1
sg294
Nsg295
I01
sg296
g144
(g297
g146
Ntp1210
Rp1211
(dp1212
g301
S'0015'
p1213
sg303
I00
sg304
(F4.0
F5.0
tp1214
sg306
(F3.0
F5.0
tp1215
sbsg308
(lp1216
sg310
Nsg311
(lp1217
(F38.57001814574824
F25.11635846380343
tp1218
a(F38.57001814574824
F25.856358463803428
tp1219
a(F38.57001814574824
F26.59635846380343
tp1220
a(F38.57001814574824
F27.33635846380343
tp1221
asg312
I01
sg313
Nsg314
F0.0
sg315
Nsg317
g144
(g280
g146
Ntp1222
Rp1223
(dp1224
g286
Nsg287
(lp1225
g1069
asg293
Nsg294
Nsg295
I00
sg296
g144
(g297
g146
Ntp1226
Rp1227
(dp1228
g301
S'0037'
p1229
sg303
I01
sg304
(F4.0
F8.0
tp1230
sg306
(F4.0
F3.0
tp1231
sbsg308
(lp1232
g144
(g280
g146
Ntp1233
Rp1234
(dp1235
g286
I1
sg287
(lp1236
sg293
I1
sg294
Nsg295
I01
sg296
g144
(g297
g146
Ntp1237
Rp1238
(dp1239
g301
S'0011'
p1240
sg303
I00
sg304
(F4.0
F7.0
tp1241
sg306
(F3.0
F7.0
tp1242
sbsg308
(lp1243
sg310
Nsg311
(lp1244
(F38.57001814574824
F33.586928677026286
tp1245
a(F38.57001814574824
F34.32692867702629
tp1246
a(F38.57001814574824
F35.06692867702628
tp1247
a(F38.57001814574824
F35.806928677026285
tp1248
asg312
I01
sg313
Nsg314
F0.0
sg315
Nsg317
g1223
sg318
Nsg325
Nsg326
Nsg327
g144
(g416
g146
Ntp1249
Rp1250
(dp1251
g420
(F34.475711413514404
F34.696928677026285
tp1252
sg422
(lp1253
g1234
ag144
(g280
g146
Ntp1254
Rp1255
(dp1256
g286
I1
sg287
(lp1257
sg293
I2
sg294
Nsg295
I01
sg296
g144
(g297
g146
Ntp1258
Rp1259
(dp1260
g301
S'0039'
p1261
sg303
I00
sg304
(F3.0
F7.0
tp1262
sg306
(F2.0
F7.0
tp1263
sbsg308
(lp1264
sg310
Nsg311
(lp1265
(F31.181404681280558
F34.696928677026285
tp1266
asg312
I01
sg313
Nsg314
F0.0
sg315
Nsg317
g1118
sg318
Nsg325
Nsg326
Nsg327
g1250
sg328
(F31.181404681280558
F34.696928677026285
tp1267
sg329
(dp1268
sg331
(lp1269
sg333
Nsg334
Nsg335
(lp1270
(F33.925711413514406
F34.696928677026285
tp1271
asg336
g144
(g297
g146
Ntp1272
Rp1273
(dp1274
g301
g1261
sg303
I00
sg304
(I3
I7
tp1275
sg306
(I2
I7
tp1276
sbsg342
g27
sg343
(lp1277
sg345
Nsbasg296
g144
(g576
g146
Ntp1278
Rp1279
(dp1280
g301
S'0044'
p1281
sg581
(F3.0
F7.0
tp1282
sbsg583
I2
sg333
Nsg325
I1
sg584
g1190
sg336
g144
(g576
g146
Ntp1283
Rp1284
(dp1285
g301
g1281
sg581
(I3
I7
tp1286
sbsg342
g35
sg589
(ipowercad.general.data_struct.util
Rect
p1287
(dp1288
g321
F36.24692867702628
sg323
F32.925711413514406
sg322
F36.0257114135144
sg324
F33.14692867702629
sbsg592
I71
sbsg328
(F38.57001814574824
F34.696928677026285
tp1289
sg329
(dp1290
sg331
(lp1291
sg333
Nsg334
Nsg335
(lp1292
(F35.255711413514405
F33.586928677026286
tp1293
a(F35.255711413514405
F34.32692867702629
tp1294
a(F35.255711413514405
F35.06692867702628
tp1295
a(F35.255711413514405
F35.806928677026285
tp1296
asg336
g144
(g297
g146
Ntp1297
Rp1298
(dp1299
g301
g1240
sg303
I00
sg304
(I4
I7
tp1300
sg306
(I3
I7
tp1301
sbsg342
g6
sg343
(lp1302
sg345
Nsbag1207
ag144
(g280
g146
Ntp1303
Rp1304
(dp1305
g286
I1
sg287
(lp1306
sg293
I1
sg294
Nsg295
I01
sg296
g144
(g297
g146
Ntp1307
Rp1308
(dp1309
g301
S'0049'
p1310
sg303
I00
sg304
(F4.0
F6.0
tp1311
sg306
(F3.0
F6.0
tp1312
sbsg308
(lp1313
sg310
Nsg311
(lp1314
(F38.57001814574824
F29.427089037991234
tp1315
a(F38.57001814574824
F30.167089037991232
tp1316
a(F38.57001814574824
F30.907089037991234
tp1317
a(F38.57001814574824
F31.647089037991233
tp1318
asg312
I01
sg313
Nsg314
F0.0
sg315
Nsg317
g1223
sg318
Nsg325
Nsg326
Nsg327
g144
(g416
g146
Ntp1319
Rp1320
(dp1321
g420
(F34.475711413514404
F30.537089037991233
tp1322
sg422
(lp1323
g144
(g280
g146
Ntp1324
Rp1325
(dp1326
g286
I1
sg287
(lp1327
sg293
I2
sg294
Nsg295
I01
sg296
g144
(g297
g146
Ntp1328
Rp1329
(dp1330
g301
S'0013'
p1331
sg303
I00
sg304
(F3.0
F6.0
tp1332
sg306
(F2.0
F6.0
tp1333
sbsg308
(lp1334
sg310
Nsg311
(lp1335
(F31.181404681280558
F30.537089037991233
tp1336
asg312
I01
sg313
Nsg314
F0.0
sg315
Nsg317
g1118
sg318
Nsg325
Nsg326
Nsg327
g1320
sg328
(F31.181404681280558
F30.537089037991233
tp1337
sg329
(dp1338
sg331
(lp1339
sg333
Nsg334
Nsg335
(lp1340
(F33.925711413514406
F30.537089037991233
tp1341
asg336
g144
(g297
g146
Ntp1342
Rp1343
(dp1344
g301
g1331
sg303
I00
sg304
(I3
I6
tp1345
sg306
(I2
I6
tp1346
sbsg342
g27
sg343
(lp1347
sg345
Nsbag1304
asg296
g144
(g576
g146
Ntp1348
Rp1349
(dp1350
g301
S'0041'
p1351
sg581
(F3.0
F6.0
tp1352
sbsg583
I2
sg333
Nsg325
I0
sg584
g1190
sg336
g144
(g576
g146
Ntp1353
Rp1354
(dp1355
g301
g1351
sg581
(I3
I6
tp1356
sbsg342
g35
sg589
(ipowercad.general.data_struct.util
Rect
p1357
(dp1358
g321
F32.087089037991234
sg323
F32.925711413514406
sg322
F36.0257114135144
sg324
F28.987089037991232
sbsg592
I70
sbsg328
(F38.57001814574824
F30.537089037991233
tp1359
sg329
(dp1360
sg331
(lp1361
sg333
Nsg334
Nsg335
(lp1362
(F35.255711413514405
F29.427089037991234
tp1363
a(F35.255711413514405
F30.167089037991232
tp1364
a(F35.255711413514405
F30.907089037991234
tp1365
a(F35.255711413514405
F31.647089037991233
tp1366
asg336
g144
(g297
g146
Ntp1367
Rp1368
(dp1369
g301
g1310
sg303
I00
sg304
(I4
I6
tp1370
sg306
(I3
I6
tp1371
sbsg342
g6
sg343
(lp1372
sg345
Nsbasg310
Nsg311
Nsg312
I01
sg313
Nsg314
Nsg315
(lp1373
sg317
Nsg318
(ipowercad.general.data_struct.util
Rect
p1374
(dp1375
g321
F37.20705865999772
sg322
F41.8690496447182
sg323
F37.57001814574824
sg324
F23.376358463803427
sbsg325
I0
sg326
Nsg327
Nsg328
Nsg329
(dp1376
sg331
(lp1377
sg333
Nsg334
Nsg335
Nsg336
g144
(g297
g146
Ntp1378
Rp1379
(dp1380
g301
g1229
sg303
I01
sg304
(I4
I8
tp1381
sg306
(I4
I3
tp1382
sbsg342
Nsg343
(lp1383
sg345
g144
(g297
g146
Ntp1384
Rp1385
(dp1386
g301
g1229
sg306
(I4
I3
tp1387
sg304
(I4
I5
tp1388
sg303
I01
sbsbsg318
Nsg325
Nsg326
Nsg327
g1202
sg328
(F38.57001814574824
F26.22635846380343
tp1389
sg329
(dp1390
sg331
(lp1391
sg333
Nsg334
Nsg335
(lp1392
(F35.255711413514405
F25.11635846380343
tp1393
a(F35.255711413514405
F25.856358463803428
tp1394
a(F35.255711413514405
F26.59635846380343
tp1395
a(F35.255711413514405
F27.33635846380343
tp1396
asg336
g144
(g297
g146
Ntp1397
Rp1398
(dp1399
g301
g1213
sg303
I00
sg304
(I4
I5
tp1400
sg306
(I3
I5
tp1401
sbsg342
g6
sg343
(lp1402
sg345
Nsbag144
(g280
g146
Ntp1403
Rp1404
(dp1405
g286
I1
sg287
(lp1406
sg293
I2
sg294
Nsg295
I01
sg296
g144
(g297
g146
Ntp1407
Rp1408
(dp1409
g301
S'0045'
p1410
sg303
I00
sg304
(F3.0
F5.0
tp1411
sg306
(F2.0
F5.0
tp1412
sbsg308
(lp1413
sg310
Nsg311
(lp1414
(F31.181404681280558
F26.22635846380343
tp1415
asg312
I01
sg313
Nsg314
F0.0
sg315
Nsg317
g1118
sg318
Nsg325
Nsg326
Nsg327
g1202
sg328
(F31.181404681280558
F26.22635846380343
tp1416
sg329
(dp1417
sg331
(lp1418
sg333
Nsg334
Nsg335
(lp1419
(F33.925711413514406
F26.22635846380343
tp1420
asg336
g144
(g297
g146
Ntp1421
Rp1422
(dp1423
g301
g1410
sg303
I00
sg304
(I3
I5
tp1424
sg306
(I2
I5
tp1425
sbsg342
g27
sg343
(lp1426
sg345
Nsbasg296
g144
(g576
g146
Ntp1427
Rp1428
(dp1429
g301
S'0018'
p1430
sg581
(F3.0
F5.0
tp1431
sbsg583
I2
sg333
Nsg325
I2
sg584
g1190
sg336
g144
(g576
g146
Ntp1432
Rp1433
(dp1434
g301
g1430
sg581
(I3
I5
tp1435
sbsg342
g35
sg589
(ipowercad.general.data_struct.util
Rect
p1436
(dp1437
g321
F27.77635846380343
sg323
F32.925711413514406
sg322
F36.0257114135144
sg324
F24.676358463803428
sbsg592
I69
sbag1320
ag1250
asg317
Nsg318
(ipowercad.general.data_struct.util
Rect
p1438
(dp1439
g321
F38.76500537233877
sg322
F36.37001814574824
sg323
F32.58140468128056
sg324
F24.576358463803427
sbsg325
I2
sg326
Nsg327
Nsg328
Nsg329
(dp1440
sg331
(lp1441
sg333
Nsg334
Nsg335
Nsg336
g144
(g297
g146
Ntp1442
Rp1443
(dp1444
g301
g1196
sg303
I01
sg304
(I3
I9
tp1445
sg306
(I3
I4
tp1446
sbsg342
Nsg343
(lp1447
sg345
g144
(g297
g146
Ntp1448
Rp1449
(dp1450
g301
g1196
sg306
(I3
I4
tp1451
sg304
(I3
I6
tp1452
sg303
I01
sbsbasg293
Nsg294
Nsg295
I00
sg296
g144
(g297
g146
Ntp1453
Rp1454
(dp1455
g301
S'0030'
p1456
sg303
I00
sg304
(F4.0
F9.0
tp1457
sg306
(F0.0
F9.0
tp1458
sbsg308
(lp1459
sg310
Nsg311
Nsg312
I01
sg313
Nsg314
Nsg315
(lp1460
g144
(g416
g146
Ntp1461
Rp1462
(dp1463
g420
(F20.9345248223591
F43.142053287658946
tp1464
sg422
(lp1465
sg296
g144
(g576
g146
Ntp1466
Rp1467
(dp1468
g301
S'0053'
p1469
sg581
(F2.0
F9.0
tp1470
sbsg583
I1
sg333
Nsg325
Nsg584
g1186
sg336
g144
(g576
g146
Ntp1471
Rp1472
(dp1473
g301
g1469
sg581
(I2
I9
tp1474
sbsg342
g132
sg589
(ipowercad.general.data_struct.util
Rect
p1475
(dp1476
g321
F45.642053287658946
sg323
F11.934524822359101
sg322
F29.9345248223591
sg324
F40.642053287658946
sbsg592
I67
sbasg317
Nsg318
(ipowercad.general.data_struct.util
Rect
p1477
(dp1478
g321
F45.642053287658946
sg322
F41.8690496447182
sg323
F0.0
sg324
F38.76500537233877
sbsg325
I8
sg326
Nsg327
Nsg328
Nsg329
(dp1479
sg331
(lp1480
sg333
Nsg334
Nsg335
Nsg336
g144
(g297
g146
Ntp1481
Rp1482
(dp1483
g301
g1456
sg303
I00
sg304
(I4
I9
tp1484
sg306
(I0
I9
tp1485
sbsg342
Nsg343
(lp1486
sg345
g144
(g297
g146
Ntp1487
Rp1488
(dp1489
g301
g1456
sg306
(I0
I6
tp1490
sg304
(I4
I6
tp1491
sg303
I00
sbsbasg293
Nsg294
Nsg295
I00
sg296
g144
(g297
g146
Ntp1492
Rp1493
(dp1494
g301
S'0007'
p1495
sg303
I01
sg304
(F1.0
F9.0
tp1496
sg306
(F1.0
F4.0
tp1497
sbsg308
(lp1498
sg310
Nsg311
Nsg312
I01
sg313
Nsg314
Nsg315
(lp1499
g144
(g416
g146
Ntp1500
Rp1501
(dp1502
g420
(F10.595596736448947
F30.537089037991233
tp1503
sg422
(lp1504
g144
(g280
g146
Ntp1505
Rp1506
(dp1507
g286
I1
sg287
(lp1508
sg293
I1
sg294
Nsg295
I01
sg296
g144
(g297
g146
Ntp1509
Rp1510
(dp1511
g301
S'0025'
p1512
sg303
I00
sg304
(F2.0
F6.0
tp1513
sg306
(F1.0
F6.0
tp1514
sbsg308
(lp1515
sg310
Nsg311
(lp1516
(F13.889903468682787
F30.537089037991233
tp1517
asg312
I01
sg313
Nsg314
F0.0
sg315
Nsg317
g1118
sg318
Nsg325
Nsg326
Nsg327
g1501
sg328
(F13.889903468682787
F30.537089037991233
tp1518
sg329
(dp1519
sg331
(lp1520
sg333
Nsg334
Nsg335
(lp1521
(F11.145596736448947
F30.537089037991233
tp1522
asg336
g144
(g297
g146
Ntp1523
Rp1524
(dp1525
g301
g1512
sg303
I00
sg304
(I2
I6
tp1526
sg306
(I1
I6
tp1527
sbsg342
g27
sg343
(lp1528
sg345
Nsbag144
(g280
g146
Ntp1529
Rp1530
(dp1531
g286
I1
sg287
(lp1532
sg293
I2
sg294
Nsg295
I01
sg296
g144
(g297
g146
Ntp1533
Rp1534
(dp1535
g301
S'0048'
p1536
sg303
I00
sg304
(F1.0
F6.0
tp1537
sg306
(F0.0
F6.0
tp1538
sbsg308
(lp1539
sg310
Nsg311
(lp1540
(F4.900160751592533
F31.647089037991233
tp1541
a(F4.900160751592533
F30.907089037991234
tp1542
a(F4.900160751592533
F30.167089037991232
tp1543
a(F4.900160751592533
F29.427089037991234
tp1544
asg312
I01
sg313
Nsg314
F0.0
sg315
Nsg317
g1073
sg318
Nsg325
Nsg326
Nsg327
g1501
sg328
(F4.900160751592533
F30.537089037991233
tp1545
sg329
(dp1546
sg331
(lp1547
sg333
Nsg334
Nsg335
(lp1548
(F9.815596736448947
F31.647089037991233
tp1549
a(F9.815596736448947
F30.907089037991234
tp1550
a(F9.815596736448947
F30.167089037991232
tp1551
a(F9.815596736448947
F29.427089037991234
tp1552
asg336
g144
(g297
g146
Ntp1553
Rp1554
(dp1555
g301
g1536
sg303
I00
sg304
(I1
I6
tp1556
sg306
(I0
I6
tp1557
sbsg342
g6
sg343
(lp1558
sg345
Nsbasg296
g144
(g576
g146
Ntp1559
Rp1560
(dp1561
g301
S'0008'
p1562
sg581
(F1.0
F6.0
tp1563
sbsg583
I1
sg333
Nsg325
I0
sg584
g1182
sg336
g144
(g576
g146
Ntp1564
Rp1565
(dp1566
g301
g1562
sg581
(I1
I6
tp1567
sbsg342
g35
sg589
(ipowercad.general.data_struct.util
Rect
p1568
(dp1569
g321
F32.087089037991234
sg323
F9.045596736448946
sg322
F12.145596736448947
sg324
F28.987089037991232
sbsg592
I30
sbag1100
ag1142
asg317
Nsg318
(ipowercad.general.data_struct.util
Rect
p1570
(dp1571
g321
F38.76500537233877
sg322
F12.489903468682789
sg323
F8.701290004215107
sg324
F24.576358463803427
sbsg325
I2
sg326
Nsg327
Nsg328
Nsg329
(dp1572
sg331
(lp1573
sg333
Nsg334
Nsg335
Nsg336
g144
(g297
g146
Ntp1574
Rp1575
(dp1576
g301
g1495
sg303
I01
sg304
(I1
I9
tp1577
sg306
(I1
I4
tp1578
sbsg342
Nsg343
(lp1579
sg345
g144
(g297
g146
Ntp1580
Rp1581
(dp1582
g301
g1495
sg306
(I1
I4
tp1583
sg304
(I1
I6
tp1584
sg303
I01
sbsbsg336
g144
(g576
g146
Ntp1585
Rp1586
(dp1587
g301
g1179
sg581
(I1
I5
tp1588
sbsg342
g35
sg589
(ipowercad.general.data_struct.util
Rect
p1589
(dp1590
g321
F27.77635846380343
sg323
F9.045596736448946
sg322
F12.145596736448947
sg324
F24.676358463803428
sbsg592
I29
sbsg328
(F13.889903468682787
F26.22635846380343
tp1591
sg329
(dp1592
sg331
(lp1593
sg333
Nsg334
Nsg335
(lp1594
(F11.145596736448947
F26.22635846380343
tp1595
asg336
g144
(g297
g146
Ntp1596
Rp1597
(dp1598
g301
g1135
sg303
I00
sg304
(I2
I5
tp1599
sg306
(I1
I5
tp1600
sbsg342
g27
sg343
(lp1601
sg345
Nsbag1325
ag1105
ag1506
ag1255
ag1404
asg310
Nsg311
Nsg312
I01
sg313
Nsg314
Nsg315
(lp1602
sg317
Nsg318
(ipowercad.general.data_struct.util
Rect
p1603
(dp1604
g321
F37.20705865999772
sg322
F31.381404681280557
sg323
F13.689903468682788
sg324
F24.576358463803427
sbsg325
I4
sg326
Nsg327
Nsg328
Nsg329
(dp1605
sg331
(lp1606
sg333
Nsg334
Nsg335
Nsg336
g144
(g297
g146
Ntp1607
Rp1608
(dp1609
g301
g1124
sg303
I01
sg304
(I2
I8
tp1610
sg306
(I2
I4
tp1611
sbsg342
Nsg343
(lp1612
sg345
g144
(g297
g146
Ntp1613
Rp1614
(dp1615
g301
g1124
sg306
(I2
I4
tp1616
sg304
(I2
I5
tp1617
sg303
I01
sbsbsg318
Nsg325
Nsg326
Nsg327
g1100
sg328
(F13.889903468682787
F34.696928677026285
tp1618
sg329
(dp1619
sg331
(lp1620
sg333
Nsg334
Nsg335
(lp1621
(F11.145596736448947
F34.696928677026285
tp1622
asg336
g144
(g297
g146
Ntp1623
Rp1624
(dp1625
g301
g1111
sg303
I00
sg304
(I2
I7
tp1626
sg306
(I1
I7
tp1627
sbsg342
g27
sg343
(lp1628
sg345
Nsbag1084
asg296
g144
(g576
g146
Ntp1629
Rp1630
(dp1631
g301
S'0017'
p1632
sg581
(F1.0
F7.0
tp1633
sbsg583
I1
sg333
Nsg325
I1
sg584
g1182
sg336
g144
(g576
g146
Ntp1634
Rp1635
(dp1636
g301
g1632
sg581
(I1
I7
tp1637
sbsg342
g35
sg589
(ipowercad.general.data_struct.util
Rect
p1638
(dp1639
g321
F36.24692867702628
sg323
F9.045596736448946
sg322
F12.145596736448947
sg324
F33.14692867702629
sbsg592
I31
sbsg328
(F4.900160751592533
F34.696928677026285
tp1640
sg329
(dp1641
sg331
(lp1642
sg333
Nsg334
Nsg335
(lp1643
(F9.815596736448947
F35.806928677026285
tp1644
a(F9.815596736448947
F35.06692867702628
tp1645
a(F9.815596736448947
F34.32692867702629
tp1646
a(F9.815596736448947
F33.586928677026286
tp1647
asg336
g144
(g297
g146
Ntp1648
Rp1649
(dp1650
g301
g1090
sg303
I00
sg304
(I1
I7
tp1651
sg306
(I0
I7
tp1652
sbsg342
g6
sg343
(lp1653
sg345
Nsbag1147
ag1530
asg310
Nsg311
Nsg312
I01
sg313
Nsg314
Nsg315
(lp1654
sg317
Nsg318
(ipowercad.general.data_struct.util
Rect
p1655
(dp1656
g321
F37.20705865999772
sg322
F5.900160751592533
sg323
F1.6011292526225747
sg324
F23.376358463803427
sbsg325
I0
sg326
Nsg327
Nsg328
Nsg329
(dp1657
sg331
(lp1658
sg333
Nsg334
Nsg335
Nsg336
g144
(g297
g146
Ntp1659
Rp1660
(dp1661
g301
g1079
sg303
I01
sg304
(I0
I8
tp1662
sg306
(I0
I3
tp1663
sbsg342
Nsg343
(lp1664
sg345
g144
(g297
g146
Ntp1665
Rp1666
(dp1667
g301
g1079
sg306
(I0
I3
tp1668
sg304
(I0
I5
tp1669
sg303
I01
sbsbag284
ag1223
asg293
Nsg294
Nsg295
I00
sg296
g144
(g297
g146
Ntp1670
Rp1671
(dp1672
g301
S'0046'
p1673
sg303
I00
sg304
(F4.0
F3.0
tp1674
sg306
(F0.0
F3.0
tp1675
sbsg308
(lp1676
sg310
Nsg311
Nsg312
I01
sg313
Nsg314
Nsg315
(lp1677
sg317
Nsg318
(ipowercad.general.data_struct.util
Rect
p1678
(dp1679
g321
F23.376358463803427
sg322
F41.8690496447182
sg323
F0.0
sg324
F19.2666661870043
sbsg325
I4
sg326
Nsg327
Nsg328
Nsg329
(dp1680
sg331
(lp1681
(g1054
I4
tp1682
asg333
Nsg334
Nsg335
Nsg336
g144
(g297
g146
Ntp1683
Rp1684
(dp1685
g301
g1673
sg303
I00
sg304
(I4
I3
tp1686
sg306
(I0
I3
tp1687
sbsg342
Nsg343
(lp1688
sg345
g144
(g297
g146
Ntp1689
Rp1690
(dp1691
g301
g1673
sg306
(I0
I3
tp1692
sg304
(I4
I3
tp1693
sg303
I00
sbsbasg293
Nsg294
Nsg295
I00
sg296
g144
(g297
g146
Ntp1694
Rp1695
(dp1696
g301
S'0006'
p1697
sg303
I01
sg304
(F2.0
F3.0
tp1698
sg306
(F2.0
F0.0
tp1699
sbsg308
(lp1700
sg310
Nsg311
Nsg312
I01
sg313
Nsg314
Nsg315
(lp1701
sg317
Nsg318
(ipowercad.general.data_struct.util
Rect
p1702
(dp1703
g321
F19.2666661870043
sg322
F36.37001814574824
sg323
F8.701290004215107
sg324
F0.0
sbsg325
I3
sg326
g290
sg327
Nsg328
Nsg329
(dp1704
g1069
I1
ssg331
(lp1705
sg333
Nsg334
Nsg335
Nsg336
g144
(g297
g146
Ntp1706
Rp1707
(dp1708
g301
g1697
sg303
I01
sg304
(I2
I3
tp1709
sg306
(I2
I0
tp1710
sbsg342
Nsg343
(lp1711
(g352
I1
tp1712
a(g1069
I4
tp1713
asg345
g144
(g297
g146
Ntp1714
Rp1715
(dp1716
g301
g1697
sg306
(I2
I0
tp1717
sg304
(I2
I3
tp1718
sg303
I01
sbsbg290
g1052
g1053
00000g1054
ag877
asS'symmetries'
p1719
(lp1720
(lp1721
g1073
ag1223
ag491
ag483
aa(lp1722
g1182
ag1190
ag790
ag405
aa(lp1723
g1100
ag1250
aa(lp1724
g1501
ag1320
aa(lp1725
g1142
ag1202
aa(lp1726
g418
ag802
aa(lp1727
g548
ag462
aa(lp1728
g624
ag756
aasS'v_overflow'
p1729
F0.0
sS'tmp_conn_dict'
p1730
(dp1731
c__builtin__
frozenset
p1732
((lp1733
g352
ag356
atp1734
Rp1735
I1
sg1732
((lp1736
g1069
ag1223
atp1737
Rp1738
I1
sg1732
((lp1739
g284
ag1069
atp1740
Rp1741
I1
sg1732
((lp1742
g360
ag356
atp1743
Rp1744
I1
sg1732
((lp1745
g284
ag352
atp1746
Rp1747
I1
sg1732
((lp1748
g491
ag487
atp1749
Rp1750
I1
sg1732
((lp1751
g1186
ag1182
atp1752
Rp1753
I1
sg1732
((lp1754
g483
ag487
atp1755
Rp1756
I1
sg1732
((lp1757
g284
ag290
atp1758
Rp1759
I1
sg1732
((lp1760
g1069
ag1073
atp1761
Rp1762
I1
sg1732
((lp1763
g1186
ag1190
atp1764
Rp1765
I1
ssS'opt_dv_list'
p1766
(lp1767
g144
(cpowercad.opt.optimizer
DesignVar
p1768
g146
Ntp1769
Rp1770
(dp1771
S'init_values'
p1772
(F4.4
F8.799999999999999
tp1773
sS'constraints'
p1774
(F1.2
F66.0
tp1775
sbag144
(g1768
g146
Ntp1776
Rp1777
(dp1778
g1772
(F4.4
F8.799999999999999
tp1779
sg1774
(F1.2
F66.0
tp1780
sbag144
(g1768
g146
Ntp1781
Rp1782
(dp1783
g1772
(F4.4
F8.799999999999999
tp1784
sg1774
(F1.2
F66.0
tp1785
sbag144
(g1768
g146
Ntp1786
Rp1787
(dp1788
g1772
(F4.4
F8.799999999999999
tp1789
sg1774
(F1.2
F66.0
tp1790
sbag144
(g1768
g146
Ntp1791
Rp1792
(dp1793
g1772
(F4.4
F8.799999999999999
tp1794
sg1774
(F1.2
F66.0
tp1795
sbag144
(g1768
g146
Ntp1796
Rp1797
(dp1798
g1772
(F4.4
F8.799999999999999
tp1799
sg1774
(F1.2
F66.0
tp1800
sbag144
(g1768
g146
Ntp1801
Rp1802
(dp1803
g1772
(F4.4
F8.799999999999999
tp1804
sg1774
(F1.2
F66.0
tp1805
sbag144
(g1768
g146
Ntp1806
Rp1807
(dp1808
g1772
(F4.380952380952381
F8.761904761904761
tp1809
sg1774
(F1.2
F46.0
tp1810
sbag144
(g1768
g146
Ntp1811
Rp1812
(dp1813
g1772
(F4.380952380952381
F8.761904761904761
tp1814
sg1774
(F1.2
F46.0
tp1815
sbag144
(g1768
g146
Ntp1816
Rp1817
(dp1818
g1772
(F4.380952380952381
F8.761904761904761
tp1819
sg1774
(F0.0
F46.0
tp1820
sbag144
(g1768
g146
Ntp1821
Rp1822
(dp1823
g1772
(F4.380952380952381
F8.761904761904761
tp1824
sg1774
(F1.2
F46.0
tp1825
sbag144
(g1768
g146
Ntp1826
Rp1827
(dp1828
g1772
(F4.380952380952381
F8.761904761904761
tp1829
sg1774
(F0.0
F46.0
tp1830
sbag144
(g1768
g146
Ntp1831
Rp1832
(dp1833
g1772
(F4.380952380952381
F8.761904761904761
tp1834
sg1774
(F0.0
F46.0
tp1835
sbag144
(g1768
g146
Ntp1836
Rp1837
(dp1838
g1772
(F4.380952380952381
F8.761904761904761
tp1839
sg1774
(F1.2
F46.0
tp1840
sbag144
(g1768
g146
Ntp1841
Rp1842
(dp1843
g1772
(F4.380952380952381
F8.761904761904761
tp1844
sg1774
(F1.2
F46.0
tp1845
sbag144
(g1768
g146
Ntp1846
Rp1847
(dp1848
g1772
(F0.0
F1.0
tp1849
sg1774
(F0.0
F1.0
tp1850
sbag144
(g1768
g146
Ntp1851
Rp1852
(dp1853
g1772
g1849
sg1774
g1850
sbag144
(g1768
g146
Ntp1854
Rp1855
(dp1856
g1772
g1849
sg1774
g1850
sbag144
(g1768
g146
Ntp1857
Rp1858
(dp1859
g1772
g1849
sg1774
g1850
sbag144
(g1768
g146
Ntp1860
Rp1861
(dp1862
g1772
g1849
sg1774
g1850
sbag144
(g1768
g146
Ntp1863
Rp1864
(dp1865
g1772
g1849
sg1774
g1850
sbasS'trace_xlen'
p1866
I10
sS'module'
p1867
g148
sS'v_dv_list'
p1868
(lp1869
(lp1870
g144
(cpowercad.sym_layout.symbolic_layout
RowCol
p1871
g146
Ntp1872
Rp1873
(dp1874
S'phantom'
p1875
I00
sg322
F18.066666187004298
sS'all_super'
p1876
I00
sS'phantom_constraint'
p1877
NsS'undef_width'
p1878
F16.8666661870043
sg325
I0
sS'mid'
p1879
F8.43333309350215
sS'elements'
p1880
(dp1881
g352
I1
ssS'definable'
p1882
I01
sS'removed'
p1883
I01
sg323
F0.0
sbaa(lp1884
g360
aa(lp1885
g290
aa(lp1886
g144
(g1871
g146
Ntp1887
Rp1888
(dp1889
g1875
I01
sg322
F19.2666661870043
sg1876
I01
sg1877
Nsg325
I3
sg1879
F19.2666661870043
sg1880
(dp1890
sg1882
I01
sg1883
Nsg323
F19.2666661870043
sbaa(lp1891
g144
(g1871
g146
Ntp1892
Rp1893
(dp1894
g1875
I00
sg322
F24.576358463803427
sg1876
I00
sg1877
Nsg325
I4
sg1879
F21.321512325403866
sS'max_width'
p1895
F4.109692276799126
sg1880
(dp1896
g1069
I1
ssg1882
I01
sg1883
Nsg323
F19.2666661870043
sbaa(lp1897
g144
(g1871
g146
Ntp1898
Rp1899
(dp1900
g1875
I01
sg322
F32.34206206625647
sg1876
I01
sg1877
Nsg325
I5
sg1879
F28.459210265029945
sg1880
(dp1901
sg1882
I01
sg1883
Nsg323
F24.576358463803427
sbaa(lp1902
g144
(g1871
g146
Ntp1903
Rp1904
(dp1905
g1875
I01
sg322
F38.40705865999772
sg1876
I01
sg1877
Nsg325
I6
sg1879
F35.374560363127095
sg1880
(dp1906
sg1882
I01
sg1883
Nsg323
F32.34206206625647
sbaa(lp1907
g487
aa(lp1908
g1186
aasS'leads'
p1909
(lp1910
g702
ag1462
ag1033
asS'xlen'
p1911
I11
sS'seed'
p1912
NsS'vg_matrix'
p1913
(lp1914
(lp1915
(dp1916
g144
(g280
g146
Ntp1917
Rp1918
(dp1919
g286
Nsg287
(lp1920
sg293
Nsg294
Nsg295
I00
sg296
g144
(g297
g146
Ntp1921
Rp1922
(dp1923
g301
S'0022'
p1924
sg303
I01
sg304
(F0.0
F2.0
tp1925
sg306
(F0.0
F0.0
tp1926
sbsg308
(lp1927
sg310
Nsg311
Nsg312
I01
sg313
Nsg314
Nsg315
(lp1928
sg317
Nsg318
(ipowercad.general.data_struct.util
Rect
p1929
(dp1930
g321
F18.0666661870043
sg322
F7.501290004215107
sg323
F0.0
sg324
F0.0
sbsg325
I1
sg326
Nsg327
Nsg328
Nsg329
(dp1931
sg331
(lp1932
sg333
Nsg334
Nsg335
Nsg336
g144
(g297
g146
Ntp1933
Rp1934
(dp1935
g301
g1924
sg303
I01
sg304
(I0
I2
tp1936
sg306
(I0
I0
tp1937
sbsg342
Nsg343
(lp1938
sg345
g144
(g297
g146
Ntp1939
Rp1940
(dp1941
g301
g1924
sg306
(I0
I0
tp1942
sg304
(I0
I2
tp1943
sg303
I01
sbsbI01
sa(dp1944
g1918
I00
sa(dp1945
g1918
I01
sa(dp1946
g1069
I01
sg1073
I01
sa(dp1947
g1073
I00
sa(dp1948
g1073
I01
sa(dp1949
g1186
I01
saa(lp1950
(dp1951
g352
I01
sa(dp1952
g290
I01
sa(dp1953
a(dp1954
g1069
I00
sa(dp1955
g1182
I01
sa(dp1956
g1182
I00
sa(dp1957
g1186
I00
sg1182
I01
saa(lp1958
(dp1959
g284
I01
sg352
I00
sa(dp1960
g284
I00
sg290
I00
sa(dp1961
g284
I00
sa(dp1962
g284
I01
sg1069
I00
sa(dp1963
g1118
I01
sa(dp1964
g1118
I01
sa(dp1965
g1186
I00
saa(lp1966
(dp1967
g352
I00
sa(dp1968
g290
I01
sa(dp1969
a(dp1970
g1069
I00
sa(dp1971
g1190
I01
sa(dp1972
g1190
I00
sa(dp1973
g1186
I00
sg1190
I01
saa(lp1974
(dp1975
g352
I00
sa(dp1976
a(dp1977
a(dp1978
g1069
I01
sg1223
I01
sa(dp1979
g1223
I00
sa(dp1980
g1223
I01
sa(dp1981
g1186
I01
saa(lp1982
(dp1983
g352
I00
sa(dp1984
a(dp1985
a(dp1986
g491
I01
sa(dp1987
g491
I00
sa(dp1988
g491
I00
sa(dp1989
g491
I01
sg487
I01
saa(lp1990
(dp1991
g352
I00
sa(dp1992
g360
I01
sa(dp1993
a(dp1994
g405
I01
sa(dp1995
g405
I00
sa(dp1996
g405
I01
sa(dp1997
g487
I00
saa(lp1998
(dp1999
g352
I00
sg356
I01
sa(dp2000
g360
I00
sg356
I00
sa(dp2001
g356
I00
sa(dp2002
g356
I01
sa(dp2003
g438
I01
sa(dp2004
g438
I01
sa(dp2005
g487
I00
saa(lp2006
(dp2007
g352
I01
sa(dp2008
g360
I01
sa(dp2009
a(dp2010
g790
I01
sa(dp2011
g790
I00
sa(dp2012
g790
I01
sa(dp2013
g487
I00
saa(lp2014
(dp2015
g144
(g280
g146
Ntp2016
Rp2017
(dp2018
g286
Nsg287
(lp2019
sg293
Nsg294
Nsg295
I00
sg296
g144
(g297
g146
Ntp2020
Rp2021
(dp2022
g301
S'0050'
p2023
sg303
I01
sg304
(F10.0
F2.0
tp2024
sg306
(F10.0
F0.0
tp2025
sbsg308
(lp2026
sg310
Nsg311
Nsg312
I01
sg313
Nsg314
Nsg315
(lp2027
sg317
Nsg318
(ipowercad.general.data_struct.util
Rect
p2028
(dp2029
g321
F18.0666661870043
sg322
F65.19316855433138
sg323
F62.50779994669869
sg324
F0.0
sbsg325
I7
sg326
Nsg327
Nsg328
Nsg329
(dp2030
sg331
(lp2031
sg333
Nsg334
Nsg335
Nsg336
g144
(g297
g146
Ntp2032
Rp2033
(dp2034
g301
g2023
sg303
I01
sg304
(I10
I2
tp2035
sg306
(I10
I0
tp2036
sbsg342
Nsg343
(lp2037
sg345
g144
(g297
g146
Ntp2038
Rp2039
(dp2040
g301
g2023
sg306
(I9
I0
tp2041
sg304
(I9
I2
tp2042
sg303
I01
sbsbI01
sa(dp2043
g2017
I00
sa(dp2044
g2017
I01
sa(dp2045
g483
I01
sa(dp2046
g483
I00
sa(dp2047
g483
I00
sa(dp2048
g483
I01
sg487
I01
saasS'v_rowcol_list'
p2049
(lp2050
g1873
ag144
(g1871
g146
Ntp2051
Rp2052
(dp2053
g1875
I00
sg322
F19.2666661870043
sg1876
I01
sg1877
Nsg325
Nsg1879
F18.6666661870043
sg1895
F1.2000000000000013
sg1880
(dp2054
g360
I1
sg290
I1
ssg1882
I00
sg1883
Nsg323
F18.066666187004298
sbag1888
ag1893
ag1899
ag1904
ag144
(g1871
g146
Ntp2055
Rp2056
(dp2057
g1875
I00
sg322
F46.0
sg1876
I00
sg1877
Nsg325
Nsg1879
F42.20352932999886
sg1895
F7.592941340002276
sg1880
(dp2058
g1186
I1
sg487
I1
ssg1882
I00
sg1883
Nsg323
F38.40705865999772
sbasS'mdl_type'
p2059
(dp2060
S'E'
p2061
(lp2062
S'MS'
p2063
asS'T'
p2064
(lp2065
ssS'h_min_max_overflow'
p2066
(F0.0
F0.0
tp2067
sS'perf_measures'
p2068
(lp2069
g144
(cpowercad.sym_layout.symbolic_layout
ThermalMeasure
p2070
g146
Ntp2071
Rp2072
(dp2073
S'disp'
p2074
(VThermal
p2075
VMax
p2076
tp2077
sg10
g242
sS'mdl'
p2078
S'RECT_FLUX_MODEL'
p2079
sS'stat_fn'
p2080
I1
sS'devices'
p2081
(lp2082
g1100
ag1250
ag1320
ag1501
ag1142
ag1202
ag418
ag802
ag462
ag548
ag624
ag756
asS'units'
p2083
g243
sbag144
(cpowercad.sym_layout.symbolic_layout
ElectricalMeasure
p2084
g146
Ntp2085
Rp2086
(dp2087
g2074
(VElectrical
p2088
VInductance
p2089
tp2090
sg10
g245
sg2078
g2063
sS'lines'
p2091
NsS'measure'
p2092
I2
sg2083
g246
sg304
g702
sg306
g1462
sbag144
(g2084
g146
Ntp2093
Rp2094
(dp2095
g2074
(VElectrical
p2096
VResistance
p2097
tp2098
sg10
g248
sg2078
g2063
sg2091
Nsg2092
I1
sg2083
g249
sg304
g702
sg306
g1462
sbasS'layout'
p2099
(lp2100
g957
ag995
ag722
ag905
ag1660
ag984
ag1707
ag1575
ag1565
ag586
ag1597
ag1298
ag647
ag1343
ag1006
ag1398
ag1624
ag1635
ag1433
ag571
ag1043
ag1608
ag1934
ag1649
ag866
ag1524
ag916
ag880
ag683
ag779
ag1482
ag831
ag935
ag399
ag1443
ag338
ag526
ag1379
ag1058
ag1273
ag1586
ag1354
ag946
ag1171
ag1284
ag1422
ag1684
ag712
ag1554
ag1368
ag2033
ag602
ag891
ag1472
ag672
ag968
ag658
ag376
ag855
asS'trace_nodes'
p2101
(lp2102
(lp2103
I1
aI0
aa(lp2104
I2
aI1
aa(lp2105
I3
aI0
aa(lp2106
I4
aI3
aa(lp2107
I4
aI1
aa(lp2108
I5
aI4
aa(lp2109
I5
aI2
aa(lp2110
I7
aI6
aa(lp2111
I8
aI7
aa(lp2112
I9
aI6
aa(lp2113
I10
aI9
aa(lp2114
I10
aI7
aa(lp2115
I11
aI10
aa(lp2116
I11
aI8
aa(lp2117
I12
aI9
aa(lp2118
I13
aI12
aa(lp2119
I13
aI10
aa(lp2120
I14
aI13
aa(lp2121
I14
aI11
aa(lp2122
I15
aI12
aa(lp2123
I16
aI15
aa(lp2124
I16
aI13
aa(lp2125
I17
aI16
aa(lp2126
I17
aI14
aa(lp2127
I20
aI19
aa(lp2128
I18
aI19
aa(lp2129
I19
aI21
aa(lp2130
I22
aI23
aa(lp2131
I23
aI25
aa(lp2132
I25
aI27
aa(lp2133
I29
aI30
aa(lp2134
I30
aI31
aa(lp2135
I31
aI32
aa(lp2136
I11
aI33
aa(lp2137
I33
aI34
aa(lp2138
I34
aI35
aa(lp2139
I36
aI38
aa(lp2140
I38
aI40
aa(lp2141
I40
aI42
aa(lp2142
I42
aI44
aa(lp2143
I44
aI46
aa(lp2144
I48
aI50
aa(lp2145
I50
aI52
aa(lp2146
I52
aI54
aa(lp2147
I14
aI55
aa(lp2148
I55
aI56
aa(lp2149
I56
aI57
aa(lp2150
I58
aI60
aa(lp2151
I60
aI62
aa(lp2152
I62
aI64
aa(lp2153
I67
aI66
aa(lp2154
I65
aI66
aa(lp2155
I66
aI68
aa(lp2156
I69
aI70
aa(lp2157
I70
aI71
aa(lp2158
I71
aI72
aa(lp2159
I73
aI74
aa(lp2160
I74
aI76
aa(lp2161
I76
aI78
aa(lp2162
I81
aI80
aa(lp2163
I4
aI80
aa(lp2164
I80
aI7
aa(lp2165
I2
aI83
aa(lp2166
I82
aI83
aa(lp2167
I5
aI84
aa(lp2168
I83
aI84
aa(lp2169
I84
aI85
aa(lp2170
I86
aI88
aa(lp2171
I88
aI90
aa(lp2172
I90
aI92
aa(lp2173
I92
aI94
aa(lp2174
I94
aI96
aasS'h_dv_list'
p2175
(lp2176
(lp2177
g1073
ag144
(g1871
g146
Ntp2178
Rp2179
(dp2180
g1875
I00
sg322
F43.069049644718206
sg1876
I00
sg1877
Nsg325
I0
sg1879
F39.719533895233226
sg1895
F4.299031498969958
sg1880
(dp2181
g1223
I1
ssg1882
I01
sg1883
Nsg323
F37.57001814574824
sbag144
(g1871
g146
Ntp2182
Rp2183
(dp2184
g1875
I00
sg322
F48.56808114368817
sg1876
I00
sg1877
Nsg325
I0
sg1879
F45.21856539420318
sg1895
F4.299031498969958
sg1880
(dp2185
g491
I1
ssg1882
I01
sg1883
Nsg323
F43.069049644718206
sbag483
aa(lp2186
g1918
aa(lp2187
g144
(g1871
g146
Ntp2188
Rp2189
(dp2190
g1875
I00
sg322
F13.689903468682788
sg1876
I00
sg1877
Nsg1878
F3.788613464467682
sg325
I2
sg1879
F10.595596736448947
sg1880
(dp2191
g1182
I1
ssg1882
I01
sg1883
I01
sg323
F8.701290004215107
sbag144
(g1871
g146
Ntp2192
Rp2193
(dp2194
g1875
I00
sg322
F37.57001814574824
sg1876
I00
sg1877
Nsg1878
F3.788613464467682
sg325
I2
sg1879
F34.475711413514404
sg1880
(dp2195
g1190
I1
ssg1882
I01
sg1883
I01
sg323
F32.58140468128056
sbag144
(g1871
g146
Ntp2196
Rp2197
(dp2198
g1875
I00
sg322
F53.55669460815585
sg1876
I00
sg1877
Nsg1878
F3.788613464467682
sg325
I2
sg1879
F50.462387875922005
sg1880
(dp2199
g405
I1
ssg1882
I01
sg1883
I01
sg323
F48.56808114368817
sbag144
(g1871
g146
Ntp2200
Rp2201
(dp2202
g1875
I00
sg322
F61.70096850103006
sg1876
I00
sg1877
Nsg1878
F3.788613464467682
sg325
I2
sg1879
F58.606661768796215
sg1880
(dp2203
g790
I1
ssg1882
I01
sg1883
I01
sg323
F56.71235503656238
sbaa(lp2204
g284
aa(lp2205
g1118
aa(lp2206
g356
aa(lp2207
g438
aa(lp2208
g2017
aasS'sub_dim'
p2209
(F66.0
F46.0
tp2210
sS'trace_trace_connections'
p2211
(lp2212
(lp2213
g1073
ag1069
a(I0
I3
tp2214
aI00
aa(lp2215
g1182
ag1186
a(I1
I6
tp2216
aI00
aa(lp2217
g483
ag487
a(I9
I6
tp2218
aI00
aa(lp2219
g491
ag487
a(I5
I6
tp2220
aI00
aa(lp2221
g1190
ag1186
a(I3
I6
tp2222
aI00
aa(lp2223
g1223
ag1069
a(I4
I3
tp2224
aI00
aasS'all_sym'
p2225
(lp2226
g449
ag418
ag487
ag740
ag1073
ag425
ag284
ag1182
ag1501
ag548
ag1129
ag1234
ag629
ag1325
ag405
ag1207
ag1105
ag1100
ag1202
ag553
ag1033
ag1118
ag1918
ag1084
ag802
ag1506
ag483
ag790
ag491
ag761
ag1186
ag807
ag467
ag356
ag1190
ag290
ag502
ag1223
ag352
ag1255
ag1142
ag1320
ag462
ag1147
ag1250
ag1404
ag1069
ag702
ag1530
ag1304
ag2017
ag532
ag756
ag1462
ag608
ag438
ag624
ag360
ag837
asS'raw_layout'
p2227
(lp2228
g453
ag990
ag694
ag744
ag1077
ag429
ag1695
ag1493
ag1560
ag578
ag1133
ag1238
ag633
ag1329
ag409
ag1211
ag1109
ag1630
ag1428
ag557
ag1038
ag1122
ag1922
ag1088
ag861
ag1510
ag733
ag794
ag495
ag765
ag1454
ag811
ag471
ag387
ag1194
ag299
ag506
ag1227
ag1025
ag1259
ag1177
ag1349
ag941
ag1151
ag1279
ag1408
ag1671
ag707
ag1534
ag1308
ag2021
ag536
ag785
ag1467
ag612
ag442
ag653
ag364
ag841
asS'h_overflow'
p2229
F0.0
sS'eval_count'
p2230
I448
sS'fixed_constraints'
p2231
(lp2232
sS'trace_rects'
p2233
(lp2234
g717
ag1655
ag1702
ag1570
ag1000
ag1603
ag1929
ag911
ag871
ag678
ag1477
ag394
ag1438
ag1374
ag1048
ag1678
ag2028
ag963
asS'h_design_var_dict'
p2235
Nsg207
g208
sS'bondwire_dv_list'
p2236
(lp2237
sS'h_design_values'
p2238
(lp2239
F4.299031498969958
aF7.501290004215107
aNaF8.55619911536023
aF17.691501212597768
aF1.2000000000000002
aF1.9556604284065227
aF2.6853686076326966
asS'eval_total'
p2240
I3000
sS'lumped_graph'
p2241
(lp2242
g144
(cnetworkx.classes.graph
Graph
p2243
g146
Ntp2244
Rp2245
(dp2246
S'node'
p2247
(dp2248
I0
(dp2249
S'spine'
p2250
I01
sS'point'
p2251
(F8.701290004215107
F0.0
tp2252
ssI1
(dp2253
g2250
I01
sg2251
(F8.701290004215107
F8.43333309350215
tp2254
ssI2
(dp2255
g2250
I01
sg2251
(F8.701290004215107
F19.2666661870043
tp2256
ssI3
(dp2257
g2250
I01
sg2251
(F36.37001814574824
F0.0
tp2258
ssI4
(dp2259
g2250
I01
sg2251
(F36.37001814574824
F8.43333309350215
tp2260
ssI5
(dp2261
g2250
I01
sg2251
(F36.37001814574824
F19.2666661870043
tp2262
ssI6
(dp2263
g2250
I01
sg2251
(F48.56808114368817
F0.0
tp2264
ssI7
(dp2265
g2250
I01
sg2251
(F48.56808114368817
F8.43333309350215
tp2266
ssI8
(dp2267
g2250
I01
sg2251
(F48.56808114368817
F23.376358463803427
tp2268
ssI9
(dp2269
g2250
I01
sg2251
(F50.462387875922005
F0.0
tp2270
ssI10
(dp2271
g2250
I01
sg2251
(F50.462387875922005
F8.43333309350215
tp2272
ssI11
(dp2273
g2250
I01
sg2251
(F50.462387875922005
F23.376358463803427
tp2274
ssI12
(dp2275
g2250
I01
sg2251
(F58.606661768796215
F0.0
tp2276
ssI13
(dp2277
g2250
I01
sg2251
(F58.606661768796215
F8.43333309350215
tp2278
ssI14
(dp2279
g2250
I01
sg2251
(F58.606661768796215
F23.376358463803427
tp2280
ssI15
(dp2281
g2250
I01
sg2251
(F60.50096850103006
F0.0
tp2282
ssI16
(dp2283
g2250
I01
sg2251
(F60.50096850103006
F8.43333309350215
tp2284
ssI17
(dp2285
g2250
I01
sg2251
(F60.50096850103006
F23.376358463803427
tp2286
ssI18
(dp2287
g2251
(F45.21856539420318
F42.20352932999886
tp2288
ssI19
(dp2289
g2251
(F54.53452482235911
F42.20352932999886
tp2290
ssI20
(dp2291
S'type'
p2292
S'lead'
p2293
sS'obj'
p2294
g144
(g416
g146
Ntp2295
Rp2296
(dp2297
g420
g704
sg422
(lp2298
sg296
g144
(g576
g146
Ntp2299
Rp2300
(dp2301
g301
g709
sg581
g710
sbsg583
I1
sg333
Nsg325
Nsg584
g144
(g280
g146
Ntp2302
Rp2303
(dp2304
g315
(lp2305
g2296
asg317
Nsg286
Nsg325
I7
sg287
(lp2306
g144
(g280
g146
Ntp2307
Rp2308
(dp2309
g315
(lp2310
sg317
Nsg286
Nsg325
I0
sg287
(lp2311
g2303
asg326
Nsg327
Nsg328
Nsg293
Nsg329
(dp2312
sg331
(lp2313
sg294
Nsg295
I00
sg296
g144
(g297
g146
Ntp2314
Rp2315
(dp2316
g301
g735
sg303
I01
sg304
g736
sg306
g737
sbsg308
(lp2317
g144
(g280
g146
Ntp2318
Rp2319
(dp2320
g315
Nsg317
g2308
sg286
I1
sg325
Nsg287
(lp2321
sg326
Nsg327
g144
(g416
g146
Ntp2322
Rp2323
(dp2324
g420
g758
sg422
(lp2325
g2319
ag144
(g280
g146
Ntp2326
Rp2327
(dp2328
g315
Nsg317
g144
(g280
g146
Ntp2329
Rp2330
(dp2331
g315
(lp2332
sg317
Nsg286
Nsg325
I6
sg287
(lp2333
sg326
Nsg327
Nsg328
Nsg293
Nsg329
(dp2334
sg331
(lp2335
sg294
Nsg295
I00
sg296
g144
(g297
g146
Ntp2336
Rp2337
(dp2338
g301
g444
sg303
I01
sg304
g445
sg306
g446
sbsg308
(lp2339
g144
(g280
g146
Ntp2340
Rp2341
(dp2342
g315
Nsg317
g2330
sg286
I1
sg325
Nsg287
(lp2343
sg326
Nsg327
g144
(g416
g146
Ntp2344
Rp2345
(dp2346
g420
g464
sg422
(lp2347
g2341
ag144
(g280
g146
Ntp2348
Rp2349
(dp2350
g315
Nsg317
g2308
sg286
I1
sg325
Nsg287
(lp2351
sg326
Nsg327
g2345
sg328
g926
sg293
I1
sg329
(dp2352
sg331
(lp2353
sg294
Nsg295
I01
sg296
g144
(g297
g146
Ntp2354
Rp2355
(dp2356
g301
g473
sg303
I00
sg304
g474
sg306
g475
sbsg308
(lp2357
sg334
Nsg310
Nsg333
Nsg311
(lp2358
g478
ag479
ag480
ag481
asg336
g144
(g297
g146
Ntp2359
Rp2360
(dp2361
g301
g473
sg303
I00
sg304
g937
sg306
g938
sbsg342
(ipowercad.design.library_structures
BondWire
p2362
(dp2363
g8
F0.7
sg12
I1
sg9
I1
sg10
g11
sg13
F0.125
sg14
(ipowercad.design.library_structures
MaterialProperties
p2364
(dp2365
g21
Nsg10
g17
sg18
Nsg20
Nsg19
F1.7e-08
sg22
Nsg23
Nsbsg24
F0.15
sbsg312
I01
sg335
(lp2366
g930
ag931
ag932
ag933
asg318
Nsg345
Nsg313
Nsg314
F0.0
sg343
(lp2367
sbasg296
g144
(g576
g146
Ntp2368
Rp2369
(dp2370
g301
g943
sg581
g944
sbsg583
I2
sg333
Nsg325
I4
sg584
g144
(g280
g146
Ntp2371
Rp2372
(dp2373
g315
(lp2374
g144
(g416
g146
Ntp2375
Rp2376
(dp2377
g420
g804
sg422
(lp2378
g144
(g280
g146
Ntp2379
Rp2380
(dp2381
g315
Nsg317
g2308
sg286
I1
sg325
Nsg287
(lp2382
sg326
Nsg327
g2376
sg328
g822
sg293
I1
sg329
(dp2383
sg331
(lp2384
sg294
Nsg295
I01
sg296
g144
(g297
g146
Ntp2385
Rp2386
(dp2387
g301
g813
sg303
I00
sg304
g814
sg306
g815
sbsg308
(lp2388
sg334
Nsg310
Nsg333
Nsg311
(lp2389
g818
ag819
ag820
ag821
asg336
g144
(g297
g146
Ntp2390
Rp2391
(dp2392
g301
g813
sg303
I00
sg304
g833
sg306
g834
sbsg342
g2362
sg312
I01
sg335
(lp2393
g826
ag827
ag828
ag829
asg318
Nsg345
Nsg313
Nsg314
F0.0
sg343
(lp2394
sbag144
(g280
g146
Ntp2395
Rp2396
(dp2397
g315
Nsg317
g2330
sg286
I1
sg325
Nsg287
(lp2398
sg326
Nsg327
g2376
sg328
g849
sg293
I2
sg329
(dp2399
sg331
(lp2400
sg294
Nsg295
I01
sg296
g144
(g297
g146
Ntp2401
Rp2402
(dp2403
g301
g843
sg303
I00
sg304
g844
sg306
g845
sbsg308
(lp2404
sg334
Nsg310
Nsg333
Nsg311
(lp2405
g848
asg336
g144
(g297
g146
Ntp2406
Rp2407
(dp2408
g301
g843
sg303
I00
sg304
g857
sg306
g858
sbsg342
(ipowercad.design.library_structures
BondWire
p2409
(dp2410
g8
F0.7
sg12
I1
sg9
I2
sg10
g29
sg13
F0.125
sg14
(ipowercad.design.library_structures
MaterialProperties
p2411
(dp2412
g21
Nsg10
g32
sg18
Nsg20
Nsg19
F1.7e-08
sg22
Nsg23
Nsbsg24
F0.15
sbsg312
I01
sg335
(lp2413
g853
asg318
Nsg345
Nsg313
Nsg314
F0.0
sg343
(lp2414
sbasg296
g144
(g576
g146
Ntp2415
Rp2416
(dp2417
g301
g863
sg581
g864
sbsg583
I2
sg333
Nsg325
I3
sg584
g2372
sg336
g144
(g576
g146
Ntp2418
Rp2419
(dp2420
g301
g863
sg581
g868
sbsg342
(ipowercad.design.project_structures
DeviceInstance
p2421
(dp2422
g37
F0.08
sg38
F10.0
sg39
(ipowercad.design.library_structures
DieAttach
p2423
(dp2424
g14
(ipowercad.design.library_structures
MaterialProperties
p2425
(dp2426
g21
Nsg10
g44
sg18
F7440.0
sg20
Nsg19
Nsg22
F62.0
sg23
F236.0
sbsbsg45
(ipowercad.design.library_structures
Device
p2427
(dp2428
g69
I1
sg10
g48
sg70
I1
sg49
(lp2429
(ipowercad.design.library_structures
BondwireLanding
p2430
(dp2431
g53
g54
sg55
I2
sba(ipowercad.design.library_structures
BondwireLanding
p2432
(dp2433
g53
g58
sg55
I1
sba(ipowercad.design.library_structures
BondwireLanding
p2434
(dp2435
g53
g61
sg55
I1
sba(ipowercad.design.library_structures
BondwireLanding
p2436
(dp2437
g53
g64
sg55
I1
sba(ipowercad.design.library_structures
BondwireLanding
p2438
(dp2439
g53
g67
sg55
I1
sbasg68
Nsg14
(ipowercad.design.library_structures
MaterialProperties
p2440
(dp2441
g21
Nsg10
g73
sg18
F3200.0
sg20
Nsg19
Nsg22
F120.0
sg23
F750.0
sbsg24
g74
sbsg75
(ipowercad.thermal.fast_thermal
DieThermalFeatures
p2442
(dp2443
g78
F8.50569603254842
sg106
F0.45077931813858774
sg105
F10.0
sg79
(lp2444
(ipowercad.thermal.fast_thermal
ContourRect
p2445
(dp2446
g83
F3.0830830830830833
sg84
F27.485609569715617
sg85
F3.1
sba(ipowercad.thermal.fast_thermal
ContourRect
p2447
(dp2448
g83
F8.338338338338339
sg84
F23.83563852029707
sg85
F8.311111111111112
sba(ipowercad.thermal.fast_thermal
ContourRect
p2449
(dp2450
g83
F13.313313313313314
sg84
F22.36084408036041
sg85
F13.522222222222222
sba(ipowercad.thermal.fast_thermal
ContourRect
p2451
(dp2452
g83
F18.21821821821822
sg84
F21.807864016464922
sg85
F18.733333333333334
sba(ipowercad.thermal.fast_thermal
ContourRect
p2453
(dp2454
g83
F22.982982982982985
sg84
F21.490296647285998
sg85
F23.944444444444446
sba(ipowercad.thermal.fast_thermal
ContourRect
p2455
(dp2456
g83
F27.32732732732733
sg84
F21.275535289815185
sg85
F29.15555555555556
sba(ipowercad.thermal.fast_thermal
ContourRect
p2457
(dp2458
g83
F31.32132132132132
sg84
F21.119582530139574
sg85
F34.36666666666667
sba(ipowercad.thermal.fast_thermal
ContourRect
p2459
(dp2460
g83
F34.75475475475476
sg84
F21.004482911503
sg85
F39.57777777777778
sba(ipowercad.thermal.fast_thermal
ContourRect
p2461
(dp2462
g83
F37.34734734734735
sg84
F20.923214752973323
sg85
F44.78888888888889
sba(ipowercad.thermal.fast_thermal
ContourRect
p2463
(dp2464
g83
F39.0990990990991
sg84
F20.870084256811968
sg85
F50.0
sbasg104
F21.002813217032966
sg107
F27.46569142229879
sg108
(lp2465
(ipowercad.thermal.fast_thermal
ContourRect
p2466
(dp2467
g83
F3.0830830830830833
sg84
F0.5054099442199633
sg85
F3.1
sba(ipowercad.thermal.fast_thermal
ContourRect
p2468
(dp2469
g83
F3.6436436436436437
sg84
F0.2829462757860034
sg85
F3.6320653987320655
sba(ipowercad.thermal.fast_thermal
ContourRect
p2470
(dp2471
g83
F4.2042042042042045
sg84
F0.1930913641609823
sg85
F4.16413079746413
sba(ipowercad.thermal.fast_thermal
ContourRect
p2472
(dp2473
g83
F4.764764764764765
sg84
F0.12211450245146534
sg85
F4.696196196196196
sba(ipowercad.thermal.fast_thermal
ContourRect
p2474
(dp2475
g83
F5.465465465465465
sg84
F0.06960481789119967
sg85
F5.228261594928261
sba(ipowercad.thermal.fast_thermal
ContourRect
p2476
(dp2477
g83
F6.236236236236237
sg84
F0.034211317923605045
sg85
F5.7603269936603265
sba(ipowercad.thermal.fast_thermal
ContourRect
p2478
(dp2479
g83
F7.007007007007007
sg84
F0.015802206002420913
sg85
F6.292392392392392
sba(ipowercad.thermal.fast_thermal
ContourRect
p2480
(dp2481
g83
F8.618618618618619
sg84
F0.008534731017797965
sg85
F6.824457791124457
sba(ipowercad.thermal.fast_thermal
ContourRect
p2482
(dp2483
g83
F11.421421421421423
sg84
F0.008157683892681627
sg85
F7.356523189856523
sba(ipowercad.thermal.fast_thermal
ContourRect
p2484
(dp2485
g83
F12.192192192192193
sg84
F0.0059303594245927824
sg85
F7.888588588588588
sbasbsbsg589
(ipowercad.general.data_struct.util
Rect
p2486
(dp2487
g321
F37.10705865999772
sg322
F60.15666176879621
sg323
F57.05666176879622
sg324
F34.007058659997725
sbsg592
I57
sbag2345
ag2323
asg317
Nsg286
Nsg325
I2
sg287
(lp2488
sg326
Nsg327
Nsg328
Nsg293
Nsg329
(dp2489
sg331
(lp2490
((g144
(g280
g146
Ntp2491
Rp2492
(dp2493
g315
(lp2494
sg317
Nsg286
Nsg325
I5
sg287
(lp2495
g144
(g280
g146
Ntp2496
Rp2497
(dp2498
g315
(lp2499
g144
(g416
g146
Ntp2500
Rp2501
(dp2502
g420
g1035
sg422
(lp2503
sg296
g144
(g576
g146
Ntp2504
Rp2505
(dp2506
g301
g1040
sg581
g1041
sbsg583
I2
sg333
Nsg325
Nsg584
g2497
sg336
g144
(g576
g146
Ntp2507
Rp2508
(dp2509
g301
g1040
sg581
g1045
sbsg342
(ipowercad.design.library_structures
Lead
p2510
(dp2511
g134
I1
sg12
I1
sg14
(ipowercad.design.library_structures
MaterialProperties
p2512
(dp2513
g21
Nsg10
g139
sg18
Nsg20
Nsg19
F3e-08
sg22
Nsg23
Nsbsg10
g136
sg24
g135
sbsg589
(ipowercad.general.data_struct.util
Rect
p2514
(dp2515
g321
F5.0
sg322
F51.469049644718204
sg323
F33.469049644718204
sg324
F0.0
sbsg592
I81
sbasg317
Nsg286
Nsg325
I0
sg287
(lp2516
g144
(g280
g146
Ntp2517
Rp2518
(dp2519
g315
(lp2520
sg317
Nsg286
Nsg325
I3
sg287
(lp2521
g144
(g280
g146
Ntp2522
Rp2523
(dp2524
g315
(lp2525
sg317
Nsg286
Nsg325
I2
sg287
(lp2526
g2518
asg326
g2518
sg327
Nsg328
Nsg293
Nsg329
(dp2527
sg331
(lp2528
sg294
Nsg295
I00
sg296
g144
(g297
g146
Ntp2529
Rp2530
(dp2531
g301
g302
sg303
I00
sg304
g305
sg306
g307
sbsg308
(lp2532
sg334
Nsg310
Nsg333
Nsg311
Nsg336
g144
(g297
g146
Ntp2533
Rp2534
(dp2535
g301
g302
sg303
I00
sg304
g340
sg306
g341
sbsg342
Nsg312
I00
sg335
Nsg318
(ipowercad.general.data_struct.util
Rect
p2536
(dp2537
g321
F19.2666661870043
sg322
F36.37001814574824
sg323
F8.701290004215107
sg324
F18.066666187004298
sbsg345
g144
(g297
g146
Ntp2538
Rp2539
(dp2540
g301
g302
sg306
g349
sg304
g350
sg303
I00
sbsg313
Nsg314
Nsg343
(lp2541
sbag2497
ag144
(g280
g146
Ntp2542
Rp2543
(dp2544
g315
(lp2545
sg317
Nsg286
Nsg325
I4
sg287
(lp2546
g144
(g280
g146
Ntp2547
Rp2548
(dp2549
g315
(lp2550
sg317
Nsg286
Nsg325
I0
sg287
(lp2551
g2543
asg326
Nsg327
Nsg328
Nsg293
Nsg329
(dp2552
sg331
(lp2553
sg294
Nsg295
I00
sg296
g144
(g297
g146
Ntp2554
Rp2555
(dp2556
g301
g1079
sg303
I01
sg304
g1080
sg306
g1081
sbsg308
(lp2557
g144
(g280
g146
Ntp2558
Rp2559
(dp2560
g315
Nsg317
g2548
sg286
I1
sg325
Nsg287
(lp2561
sg326
Nsg327
g144
(g416
g146
Ntp2562
Rp2563
(dp2564
g420
g1102
sg422
(lp2565
g144
(g280
g146
Ntp2566
Rp2567
(dp2568
g315
Nsg317
g144
(g280
g146
Ntp2569
Rp2570
(dp2571
g315
(lp2572
sg317
Nsg286
Nsg325
I4
sg287
(lp2573
sg326
Nsg327
Nsg328
Nsg293
Nsg329
(dp2574
sg331
(lp2575
sg294
Nsg295
I00
sg296
g144
(g297
g146
Ntp2576
Rp2577
(dp2578
g301
g1124
sg303
I01
sg304
g1125
sg306
g1126
sbsg308
(lp2579
g144
(g280
g146
Ntp2580
Rp2581
(dp2582
g315
Nsg317
g2570
sg286
I1
sg325
Nsg287
(lp2583
sg326
Nsg327
g144
(g416
g146
Ntp2584
Rp2585
(dp2586
g420
g1144
sg422
(lp2587
g2581
ag144
(g280
g146
Ntp2588
Rp2589
(dp2590
g315
Nsg317
g2548
sg286
I1
sg325
Nsg287
(lp2591
sg326
Nsg327
g2585
sg328
g1162
sg293
I2
sg329
(dp2592
sg331
(lp2593
sg294
Nsg295
I01
sg296
g144
(g297
g146
Ntp2594
Rp2595
(dp2596
g301
g1153
sg303
I00
sg304
g1154
sg306
g1155
sbsg308
(lp2597
sg334
Nsg310
Nsg333
Nsg311
(lp2598
g1158
ag1159
ag1160
ag1161
asg336
g144
(g297
g146
Ntp2599
Rp2600
(dp2601
g301
g1153
sg303
I00
sg304
g1173
sg306
g1174
sbsg342
g2362
sg312
I01
sg335
(lp2602
g1166
ag1167
ag1168
ag1169
asg318
Nsg345
Nsg313
Nsg314
F0.0
sg343
(lp2603
sbasg296
g144
(g576
g146
Ntp2604
Rp2605
(dp2606
g301
g1179
sg581
g1180
sbsg583
I1
sg333
Nsg325
I2
sg584
g144
(g280
g146
Ntp2607
Rp2608
(dp2609
g315
(lp2610
g144
(g416
g146
Ntp2611
Rp2612
(dp2613
g420
g1503
sg422
(lp2614
g144
(g280
g146
Ntp2615
Rp2616
(dp2617
g315
Nsg317
g2570
sg286
I1
sg325
Nsg287
(lp2618
sg326
Nsg327
g2612
sg328
g1518
sg293
I1
sg329
(dp2619
sg331
(lp2620
sg294
Nsg295
I01
sg296
g144
(g297
g146
Ntp2621
Rp2622
(dp2623
g301
g1512
sg303
I00
sg304
g1513
sg306
g1514
sbsg308
(lp2624
sg334
Nsg310
Nsg333
Nsg311
(lp2625
g1517
asg336
g144
(g297
g146
Ntp2626
Rp2627
(dp2628
g301
g1512
sg303
I00
sg304
g1526
sg306
g1527
sbsg342
g2409
sg312
I01
sg335
(lp2629
g1522
asg318
Nsg345
Nsg313
Nsg314
F0.0
sg343
(lp2630
sbag144
(g280
g146
Ntp2631
Rp2632
(dp2633
g315
Nsg317
g2548
sg286
I1
sg325
Nsg287
(lp2634
sg326
Nsg327
g2612
sg328
g1545
sg293
I2
sg329
(dp2635
sg331
(lp2636
sg294
Nsg295
I01
sg296
g144
(g297
g146
Ntp2637
Rp2638
(dp2639
g301
g1536
sg303
I00
sg304
g1537
sg306
g1538
sbsg308
(lp2640
sg334
Nsg310
Nsg333
Nsg311
(lp2641
g1541
ag1542
ag1543
ag1544
asg336
g144
(g297
g146
Ntp2642
Rp2643
(dp2644
g301
g1536
sg303
I00
sg304
g1556
sg306
g1557
sbsg342
g2362
sg312
I01
sg335
(lp2645
g1549
ag1550
ag1551
ag1552
asg318
Nsg345
Nsg313
Nsg314
F0.0
sg343
(lp2646
sbasg296
g144
(g576
g146
Ntp2647
Rp2648
(dp2649
g301
g1562
sg581
g1563
sbsg583
I1
sg333
Nsg325
I0
sg584
g2608
sg336
g144
(g576
g146
Ntp2650
Rp2651
(dp2652
g301
g1562
sg581
g1567
sbsg342
g2421
sg589
(ipowercad.general.data_struct.util
Rect
p2653
(dp2654
g321
F32.087089037991234
sg322
F12.145596736448947
sg323
F9.045596736448946
sg324
F28.987089037991232
sbsg592
I30
sbag2563
ag2585
asg317
Nsg286
Nsg325
I2
sg287
(lp2655
g144
(g280
g146
Ntp2656
Rp2657
(dp2658
g315
(lp2659
g144
(g416
g146
Ntp2660
Rp2661
(dp2662
g420
g1464
sg422
(lp2663
sg296
g144
(g576
g146
Ntp2664
Rp2665
(dp2666
g301
g1469
sg581
g1470
sbsg583
I1
sg333
Nsg325
Nsg584
g2657
sg336
g144
(g576
g146
Ntp2667
Rp2668
(dp2669
g301
g1469
sg581
g1474
sbsg342
g2510
sg589
(ipowercad.general.data_struct.util
Rect
p2670
(dp2671
g321
F45.642053287658946
sg322
F29.9345248223591
sg323
F11.934524822359101
sg324
F40.642053287658946
sbsg592
I67
sbasg317
Nsg286
Nsg325
I8
sg287
(lp2672
g2608
ag144
(g280
g146
Ntp2673
Rp2674
(dp2675
g315
(lp2676
g144
(g416
g146
Ntp2677
Rp2678
(dp2679
g420
g1204
sg422
(lp2680
g144
(g280
g146
Ntp2681
Rp2682
(dp2683
g315
Nsg317
g144
(g280
g146
Ntp2684
Rp2685
(dp2686
g315
(lp2687
sg317
Nsg286
Nsg325
I0
sg287
(lp2688
g2543
asg326
Nsg327
Nsg328
Nsg293
Nsg329
(dp2689
sg331
(lp2690
sg294
Nsg295
I00
sg296
g144
(g297
g146
Ntp2691
Rp2692
(dp2693
g301
g1229
sg303
I01
sg304
g1230
sg306
g1231
sbsg308
(lp2694
g144
(g280
g146
Ntp2695
Rp2696
(dp2697
g315
Nsg317
g2685
sg286
I1
sg325
Nsg287
(lp2698
sg326
Nsg327
g144
(g416
g146
Ntp2699
Rp2700
(dp2701
g420
g1252
sg422
(lp2702
g2696
ag144
(g280
g146
Ntp2703
Rp2704
(dp2705
g315
Nsg317
g2570
sg286
I1
sg325
Nsg287
(lp2706
sg326
Nsg327
g2700
sg328
g1267
sg293
I2
sg329
(dp2707
sg331
(lp2708
sg294
Nsg295
I01
sg296
g144
(g297
g146
Ntp2709
Rp2710
(dp2711
g301
g1261
sg303
I00
sg304
g1262
sg306
g1263
sbsg308
(lp2712
sg334
Nsg310
Nsg333
Nsg311
(lp2713
g1266
asg336
g144
(g297
g146
Ntp2714
Rp2715
(dp2716
g301
g1261
sg303
I00
sg304
g1275
sg306
g1276
sbsg342
g2409
sg312
I01
sg335
(lp2717
g1271
asg318
Nsg345
Nsg313
Nsg314
F0.0
sg343
(lp2718
sbasg296
g144
(g576
g146
Ntp2719
Rp2720
(dp2721
g301
g1281
sg581
g1282
sbsg583
I2
sg333
Nsg325
I1
sg584
g2674
sg336
g144
(g576
g146
Ntp2722
Rp2723
(dp2724
g301
g1281
sg581
g1286
sbsg342
g2421
sg589
(ipowercad.general.data_struct.util
Rect
p2725
(dp2726
g321
F36.24692867702628
sg322
F36.0257114135144
sg323
F32.925711413514406
sg324
F33.14692867702629
sbsg592
I71
sbsg328
g1289
sg293
I1
sg329
(dp2727
sg331
(lp2728
sg294
Nsg295
I01
sg296
g144
(g297
g146
Ntp2729
Rp2730
(dp2731
g301
g1240
sg303
I00
sg304
g1241
sg306
g1242
sbsg308
(lp2732
sg334
Nsg310
Nsg333
Nsg311
(lp2733
g1245
ag1246
ag1247
ag1248
asg336
g144
(g297
g146
Ntp2734
Rp2735
(dp2736
g301
g1240
sg303
I00
sg304
g1300
sg306
g1301
sbsg342
g2362
sg312
I01
sg335
(lp2737
g1293
ag1294
ag1295
ag1296
asg318
Nsg345
Nsg313
Nsg314
F0.0
sg343
(lp2738
sbag2682
ag144
(g280
g146
Ntp2739
Rp2740
(dp2741
g315
Nsg317
g2685
sg286
I1
sg325
Nsg287
(lp2742
sg326
Nsg327
g144
(g416
g146
Ntp2743
Rp2744
(dp2745
g420
g1322
sg422
(lp2746
g144
(g280
g146
Ntp2747
Rp2748
(dp2749
g315
Nsg317
g2570
sg286
I1
sg325
Nsg287
(lp2750
sg326
Nsg327
g2744
sg328
g1337
sg293
I2
sg329
(dp2751
sg331
(lp2752
sg294
Nsg295
I01
sg296
g144
(g297
g146
Ntp2753
Rp2754
(dp2755
g301
g1331
sg303
I00
sg304
g1332
sg306
g1333
sbsg308
(lp2756
sg334
Nsg310
Nsg333
Nsg311
(lp2757
g1336
asg336
g144
(g297
g146
Ntp2758
Rp2759
(dp2760
g301
g1331
sg303
I00
sg304
g1345
sg306
g1346
sbsg342
g2409
sg312
I01
sg335
(lp2761
g1341
asg318
Nsg345
Nsg313
Nsg314
F0.0
sg343
(lp2762
sbag2740
asg296
g144
(g576
g146
Ntp2763
Rp2764
(dp2765
g301
g1351
sg581
g1352
sbsg583
I2
sg333
Nsg325
I0
sg584
g2674
sg336
g144
(g576
g146
Ntp2766
Rp2767
(dp2768
g301
g1351
sg581
g1356
sbsg342
g2421
sg589
(ipowercad.general.data_struct.util
Rect
p2769
(dp2770
g321
F32.087089037991234
sg322
F36.0257114135144
sg323
F32.925711413514406
sg324
F28.987089037991232
sbsg592
I70
sbsg328
g1359
sg293
I1
sg329
(dp2771
sg331
(lp2772
sg294
Nsg295
I01
sg296
g144
(g297
g146
Ntp2773
Rp2774
(dp2775
g301
g1310
sg303
I00
sg304
g1311
sg306
g1312
sbsg308
(lp2776
sg334
Nsg310
Nsg333
Nsg311
(lp2777
g1315
ag1316
ag1317
ag1318
asg336
g144
(g297
g146
Ntp2778
Rp2779
(dp2780
g301
g1310
sg303
I00
sg304
g1370
sg306
g1371
sbsg342
g2362
sg312
I01
sg335
(lp2781
g1363
ag1364
ag1365
ag1366
asg318
Nsg345
Nsg313
Nsg314
F0.0
sg343
(lp2782
sbasg334
Nsg310
Nsg333
Nsg311
Nsg336
g144
(g297
g146
Ntp2783
Rp2784
(dp2785
g301
g1229
sg303
I01
sg304
g1381
sg306
g1382
sbsg342
Nsg312
I01
sg335
Nsg318
(ipowercad.general.data_struct.util
Rect
p2786
(dp2787
g321
F37.20705865999772
sg322
F41.8690496447182
sg323
F37.57001814574824
sg324
F23.376358463803427
sbsg345
g144
(g297
g146
Ntp2788
Rp2789
(dp2790
g301
g1229
sg306
g1387
sg304
g1388
sg303
I01
sbsg313
Nsg314
Nsg343
(lp2791
sbsg286
I1
sg325
Nsg287
(lp2792
sg326
Nsg327
g2678
sg328
g1389
sg293
I1
sg329
(dp2793
sg331
(lp2794
sg294
Nsg295
I01
sg296
g144
(g297
g146
Ntp2795
Rp2796
(dp2797
g301
g1213
sg303
I00
sg304
g1214
sg306
g1215
sbsg308
(lp2798
sg334
Nsg310
Nsg333
Nsg311
(lp2799
g1218
ag1219
ag1220
ag1221
asg336
g144
(g297
g146
Ntp2800
Rp2801
(dp2802
g301
g1213
sg303
I00
sg304
g1400
sg306
g1401
sbsg342
g2362
sg312
I01
sg335
(lp2803
g1393
ag1394
ag1395
ag1396
asg318
Nsg345
Nsg313
Nsg314
F0.0
sg343
(lp2804
sbag144
(g280
g146
Ntp2805
Rp2806
(dp2807
g315
Nsg317
g2570
sg286
I1
sg325
Nsg287
(lp2808
sg326
Nsg327
g2678
sg328
g1416
sg293
I2
sg329
(dp2809
sg331
(lp2810
sg294
Nsg295
I01
sg296
g144
(g297
g146
Ntp2811
Rp2812
(dp2813
g301
g1410
sg303
I00
sg304
g1411
sg306
g1412
sbsg308
(lp2814
sg334
Nsg310
Nsg333
Nsg311
(lp2815
g1415
asg336
g144
(g297
g146
Ntp2816
Rp2817
(dp2818
g301
g1410
sg303
I00
sg304
g1424
sg306
g1425
sbsg342
g2409
sg312
I01
sg335
(lp2819
g1420
asg318
Nsg345
Nsg313
Nsg314
F0.0
sg343
(lp2820
sbasg296
g144
(g576
g146
Ntp2821
Rp2822
(dp2823
g301
g1430
sg581
g1431
sbsg583
I2
sg333
Nsg325
I2
sg584
g2674
sg336
g144
(g576
g146
Ntp2824
Rp2825
(dp2826
g301
g1430
sg581
g1435
sbsg342
g2421
sg589
(ipowercad.general.data_struct.util
Rect
p2827
(dp2828
g321
F27.77635846380343
sg322
F36.0257114135144
sg323
F32.925711413514406
sg324
F24.676358463803428
sbsg592
I69
sbag2744
ag2700
asg317
Nsg286
Nsg325
I2
sg287
(lp2829
g2657
asg326
Nsg327
Nsg328
Nsg293
Nsg329
(dp2830
sg331
(lp2831
sg294
Nsg295
I00
sg296
g144
(g297
g146
Ntp2832
Rp2833
(dp2834
g301
g1196
sg303
I01
sg304
g1197
sg306
g1198
sbsg308
(lp2835
sg334
Nsg310
Nsg333
Nsg311
Nsg336
g144
(g297
g146
Ntp2836
Rp2837
(dp2838
g301
g1196
sg303
I01
sg304
g1445
sg306
g1446
sbsg342
Nsg312
I01
sg335
Nsg318
(ipowercad.general.data_struct.util
Rect
p2839
(dp2840
g321
F38.76500537233877
sg322
F36.37001814574824
sg323
F32.58140468128056
sg324
F24.576358463803427
sbsg345
g144
(g297
g146
Ntp2841
Rp2842
(dp2843
g301
g1196
sg306
g1451
sg304
g1452
sg303
I01
sbsg313
Nsg314
Nsg343
(lp2844
sbasg326
Nsg327
Nsg328
Nsg293
Nsg329
(dp2845
sg331
(lp2846
sg294
Nsg295
I00
sg296
g144
(g297
g146
Ntp2847
Rp2848
(dp2849
g301
g1456
sg303
I00
sg304
g1457
sg306
g1458
sbsg308
(lp2850
sg334
Nsg310
Nsg333
Nsg311
Nsg336
g144
(g297
g146
Ntp2851
Rp2852
(dp2853
g301
g1456
sg303
I00
sg304
g1484
sg306
g1485
sbsg342
Nsg312
I01
sg335
Nsg318
(ipowercad.general.data_struct.util
Rect
p2854
(dp2855
g321
F45.642053287658946
sg322
F41.8690496447182
sg323
F0.0
sg324
F38.76500537233877
sbsg345
g144
(g297
g146
Ntp2856
Rp2857
(dp2858
g301
g1456
sg306
g1490
sg304
g1491
sg303
I00
sbsg313
Nsg314
Nsg343
(lp2859
sbasg326
Nsg327
Nsg328
Nsg293
Nsg329
(dp2860
sg331
(lp2861
sg294
Nsg295
I00
sg296
g144
(g297
g146
Ntp2862
Rp2863
(dp2864
g301
g1495
sg303
I01
sg304
g1496
sg306
g1497
sbsg308
(lp2865
sg334
Nsg310
Nsg333
Nsg311
Nsg336
g144
(g297
g146
Ntp2866
Rp2867
(dp2868
g301
g1495
sg303
I01
sg304
g1577
sg306
g1578
sbsg342
Nsg312
I01
sg335
Nsg318
(ipowercad.general.data_struct.util
Rect
p2869
(dp2870
g321
F38.76500537233877
sg322
F12.489903468682789
sg323
F8.701290004215107
sg324
F24.576358463803427
sbsg345
g144
(g297
g146
Ntp2871
Rp2872
(dp2873
g301
g1495
sg306
g1583
sg304
g1584
sg303
I01
sbsg313
Nsg314
Nsg343
(lp2874
sbsg336
g144
(g576
g146
Ntp2875
Rp2876
(dp2877
g301
g1179
sg581
g1588
sbsg342
g2421
sg589
(ipowercad.general.data_struct.util
Rect
p2878
(dp2879
g321
F27.77635846380343
sg322
F12.145596736448947
sg323
F9.045596736448946
sg324
F24.676358463803428
sbsg592
I29
sbsg328
g1591
sg293
I1
sg329
(dp2880
sg331
(lp2881
sg294
Nsg295
I01
sg296
g144
(g297
g146
Ntp2882
Rp2883
(dp2884
g301
g1135
sg303
I00
sg304
g1136
sg306
g1137
sbsg308
(lp2885
sg334
Nsg310
Nsg333
Nsg311
(lp2886
g1140
asg336
g144
(g297
g146
Ntp2887
Rp2888
(dp2889
g301
g1135
sg303
I00
sg304
g1599
sg306
g1600
sbsg342
g2409
sg312
I01
sg335
(lp2890
g1595
asg318
Nsg345
Nsg313
Nsg314
F0.0
sg343
(lp2891
sbag2748
ag2567
ag2616
ag2704
ag2806
asg334
Nsg310
Nsg333
Nsg311
Nsg336
g144
(g297
g146
Ntp2892
Rp2893
(dp2894
g301
g1124
sg303
I01
sg304
g1610
sg306
g1611
sbsg342
Nsg312
I01
sg335
Nsg318
(ipowercad.general.data_struct.util
Rect
p2895
(dp2896
g321
F37.20705865999772
sg322
F31.381404681280557
sg323
F13.689903468682788
sg324
F24.576358463803427
sbsg345
g144
(g297
g146
Ntp2897
Rp2898
(dp2899
g301
g1124
sg306
g1616
sg304
g1617
sg303
I01
sbsg313
Nsg314
Nsg343
(lp2900
sbsg286
I1
sg325
Nsg287
(lp2901
sg326
Nsg327
g2563
sg328
g1618
sg293
I1
sg329
(dp2902
sg331
(lp2903
sg294
Nsg295
I01
sg296
g144
(g297
g146
Ntp2904
Rp2905
(dp2906
g301
g1111
sg303
I00
sg304
g1112
sg306
g1113
sbsg308
(lp2907
sg334
Nsg310
Nsg333
Nsg311
(lp2908
g1116
asg336
g144
(g297
g146
Ntp2909
Rp2910
(dp2911
g301
g1111
sg303
I00
sg304
g1626
sg306
g1627
sbsg342
g2409
sg312
I01
sg335
(lp2912
g1622
asg318
Nsg345
Nsg313
Nsg314
F0.0
sg343
(lp2913
sbag2559
asg296
g144
(g576
g146
Ntp2914
Rp2915
(dp2916
g301
g1632
sg581
g1633
sbsg583
I1
sg333
Nsg325
I1
sg584
g2608
sg336
g144
(g576
g146
Ntp2917
Rp2918
(dp2919
g301
g1632
sg581
g1637
sbsg342
g2421
sg589
(ipowercad.general.data_struct.util
Rect
p2920
(dp2921
g321
F36.24692867702628
sg322
F12.145596736448947
sg323
F9.045596736448946
sg324
F33.14692867702629
sbsg592
I31
sbsg328
g1640
sg293
I2
sg329
(dp2922
sg331
(lp2923
sg294
Nsg295
I01
sg296
g144
(g297
g146
Ntp2924
Rp2925
(dp2926
g301
g1090
sg303
I00
sg304
g1091
sg306
g1092
sbsg308
(lp2927
sg334
Nsg310
Nsg333
Nsg311
(lp2928
g1095
ag1096
ag1097
ag1098
asg336
g144
(g297
g146
Ntp2929
Rp2930
(dp2931
g301
g1090
sg303
I00
sg304
g1651
sg306
g1652
sbsg342
g2362
sg312
I01
sg335
(lp2932
g1644
ag1645
ag1646
ag1647
asg318
Nsg345
Nsg313
Nsg314
F0.0
sg343
(lp2933
sbag2589
ag2632
asg334
Nsg310
Nsg333
Nsg311
Nsg336
g144
(g297
g146
Ntp2934
Rp2935
(dp2936
g301
g1079
sg303
I01
sg304
g1662
sg306
g1663
sbsg342
Nsg312
I01
sg335
Nsg318
(ipowercad.general.data_struct.util
Rect
p2937
(dp2938
g321
F37.20705865999772
sg322
F5.900160751592533
sg323
F1.6011292526225747
sg324
F23.376358463803427
sbsg345
g144
(g297
g146
Ntp2939
Rp2940
(dp2941
g301
g1079
sg306
g1668
sg304
g1669
sg303
I01
sbsg313
Nsg314
Nsg343
(lp2942
sbag2518
ag2685
asg326
Nsg327
Nsg328
Nsg293
Nsg329
(dp2943
sg331
(lp2944
((g2518
g2523
g1052
g1053
tp2945
I4
tp2946
asg294
Nsg295
I00
sg296
g144
(g297
g146
Ntp2947
Rp2948
(dp2949
g301
g1673
sg303
I00
sg304
g1674
sg306
g1675
sbsg308
(lp2950
sg334
Nsg310
Nsg333
Nsg311
Nsg336
g144
(g297
g146
Ntp2951
Rp2952
(dp2953
g301
g1673
sg303
I00
sg304
g1686
sg306
g1687
sbsg342
Nsg312
I01
sg335
Nsg318
(ipowercad.general.data_struct.util
Rect
p2954
(dp2955
g321
F23.376358463803427
sg322
F41.8690496447182
sg323
F0.0
sg324
F19.2666661870043
sbsg345
g144
(g297
g146
Ntp2956
Rp2957
(dp2958
g301
g1673
sg306
g1692
sg304
g1693
sg303
I00
sbsg313
Nsg314
Nsg343
(lp2959
sbasg326
g2523
sg327
Nsg328
Nsg293
Nsg329
(dp2960
g2543
I1
ssg331
(lp2961
sg294
Nsg295
I00
sg296
g144
(g297
g146
Ntp2962
Rp2963
(dp2964
g301
g1697
sg303
I01
sg304
g1698
sg306
g1699
sbsg308
(lp2965
sg334
Nsg310
Nsg333
Nsg311
Nsg336
g144
(g297
g146
Ntp2966
Rp2967
(dp2968
g301
g1697
sg303
I01
sg304
g1709
sg306
g1710
sbsg342
Nsg312
I01
sg335
Nsg318
(ipowercad.general.data_struct.util
Rect
p2969
(dp2970
g321
F19.2666661870043
sg322
F36.37001814574824
sg323
F8.701290004215107
sg324
F0.0
sbsg345
g144
(g297
g146
Ntp2971
Rp2972
(dp2973
g301
g1697
sg306
g1717
sg304
g1718
sg303
I01
sbsg313
Nsg314
Nsg343
(lp2974
(g2497
I1
tp2975
a(g2543
I4
tp2976
asbag2492
asg326
Nsg327
Nsg328
Nsg293
Nsg329
(dp2977
sg331
(lp2978
(g2945
I1
tp2979
a((g2492
g144
(g280
g146
Ntp2980
Rp2981
(dp2982
g315
(lp2983
sg317
Nsg286
Nsg325
I1
sg287
(lp2984
g2492
asg326
g2492
sg327
Nsg328
Nsg293
Nsg329
(dp2985
sg331
(lp2986
sg294
Nsg295
I00
sg296
g144
(g297
g146
Ntp2987
Rp2988
(dp2989
g301
g366
sg303
I00
sg304
g367
sg306
g368
sbsg308
(lp2990
sg334
Nsg310
Nsg333
Nsg311
Nsg336
g144
(g297
g146
Ntp2991
Rp2992
(dp2993
g301
g366
sg303
I00
sg304
g378
sg306
g379
sbsg342
Nsg312
I00
sg335
Nsg318
(ipowercad.general.data_struct.util
Rect
p2994
(dp2995
g321
F19.2666661870043
sg322
F60.50096850103006
sg323
F48.56808114368817
sg324
F18.066666187004298
sbsg345
g144
(g297
g146
Ntp2996
Rp2997
(dp2998
g301
g366
sg306
g384
sg304
g385
sg303
I00
sbsg313
Nsg314
Nsg343
(lp2999
sbg875
g876
tp3000
I2
tp3001
asg294
Nsg295
I00
sg296
g144
(g297
g146
Ntp3002
Rp3003
(dp3004
g301
g1027
sg303
I00
sg304
g1028
sg306
g1029
sbsg308
(lp3005
sg334
Nsg310
Nsg333
Nsg311
Nsg336
g144
(g297
g146
Ntp3006
Rp3007
(dp3008
g301
g1027
sg303
I00
sg304
g1060
sg306
g1061
sbsg342
Nsg312
I01
sg335
Nsg318
(ipowercad.general.data_struct.util
Rect
p3009
(dp3010
g321
F16.8666661870043
sg322
F48.56808114368817
sg323
F36.37001814574824
sg324
F0.0
sbsg345
g144
(g297
g146
Ntp3011
Rp3012
(dp3013
g301
g1027
sg306
g1066
sg304
g1067
sg303
I00
sbsg313
Nsg314
Nsg343
(lp3014
sbag2981
asg326
g2981
sg327
Nsg328
Nsg293
Nsg329
(dp3015
sg331
(lp3016
sg294
Nsg295
I00
sg296
g144
(g297
g146
Ntp3017
Rp3018
(dp3019
g301
g389
sg303
I01
sg304
g390
sg306
g391
sbsg308
(lp3020
sg334
Nsg310
Nsg333
Nsg311
Nsg336
g144
(g297
g146
Ntp3021
Rp3022
(dp3023
g301
g389
sg303
I01
sg304
g401
sg306
g402
sbsg342
Nsg312
I01
sg335
Nsg318
(ipowercad.general.data_struct.util
Rect
p3024
(dp3025
g321
F23.376358463803427
sg322
F60.50096850103006
sg323
F48.56808114368817
sg324
F0.0
sbsg345
g144
(g297
g146
Ntp3026
Rp3027
(dp3028
g301
g389
sg306
g1022
sg304
g1023
sg303
I01
sbsg313
Nsg314
Nsg343
(lp3029
(g144
(g280
g146
Ntp3030
Rp3031
(dp3032
g315
(lp3033
g144
(g416
g146
Ntp3034
Rp3035
(dp3036
g420
g421
sg422
(lp3037
g144
(g280
g146
Ntp3038
Rp3039
(dp3040
g315
Nsg317
g2330
sg286
I1
sg325
Nsg287
(lp3041
sg326
Nsg327
g3035
sg328
g978
sg293
I1
sg329
(dp3042
sg331
(lp3043
sg294
Nsg295
I01
sg296
g144
(g297
g146
Ntp3044
Rp3045
(dp3046
g301
g431
sg303
I00
sg304
g432
sg306
g433
sbsg308
(lp3047
sg334
Nsg310
Nsg333
Nsg311
(lp3048
g436
asg336
g144
(g297
g146
Ntp3049
Rp3050
(dp3051
g301
g431
sg303
I00
sg304
g986
sg306
g987
sbsg342
g2409
sg312
I01
sg335
(lp3052
g982
asg318
Nsg345
Nsg313
Nsg314
F0.0
sg343
(lp3053
sbag144
(g280
g146
Ntp3054
Rp3055
(dp3056
g315
Nsg317
g144
(g280
g146
Ntp3057
Rp3058
(dp3059
g315
(lp3060
sg317
Nsg286
Nsg325
I0
sg287
(lp3061
g2303
asg326
Nsg327
Nsg328
Nsg293
Nsg329
(dp3062
sg331
(lp3063
sg294
Nsg295
I00
sg296
g144
(g297
g146
Ntp3064
Rp3065
(dp3066
g301
g497
sg303
I01
sg304
g498
sg306
g499
sbsg308
(lp3067
g3055
ag144
(g280
g146
Ntp3068
Rp3069
(dp3070
g315
Nsg317
g3058
sg286
I1
sg325
Nsg287
(lp3071
sg326
Nsg327
g144
(g416
g146
Ntp3072
Rp3073
(dp3074
g420
g550
sg422
(lp3075
g144
(g280
g146
Ntp3076
Rp3077
(dp3078
g315
Nsg317
g2330
sg286
I1
sg325
Nsg287
(lp3079
sg326
Nsg327
g3073
sg328
g565
sg293
I1
sg329
(dp3080
sg331
(lp3081
sg294
Nsg295
I01
sg296
g144
(g297
g146
Ntp3082
Rp3083
(dp3084
g301
g559
sg303
I00
sg304
g560
sg306
g561
sbsg308
(lp3085
sg334
Nsg310
Nsg333
Nsg311
(lp3086
g564
asg336
g144
(g297
g146
Ntp3087
Rp3088
(dp3089
g301
g559
sg303
I00
sg304
g573
sg306
g574
sbsg342
g2409
sg312
I01
sg335
(lp3090
g569
asg318
Nsg345
Nsg313
Nsg314
F0.0
sg343
(lp3091
sbag3069
asg296
g144
(g576
g146
Ntp3092
Rp3093
(dp3094
g301
g580
sg581
g582
sbsg583
I1
sg333
Nsg325
I4
sg584
g3031
sg336
g144
(g576
g146
Ntp3095
Rp3096
(dp3097
g301
g580
sg581
g588
sbsg342
g2421
sg589
(ipowercad.general.data_struct.util
Rect
p3098
(dp3099
g321
F26.57635846380343
sg322
F52.012387875922
sg323
F48.91238787592201
sg324
F23.47635846380343
sbsg592
I33
sbsg328
g593
sg293
I2
sg329
(dp3100
sg331
(lp3101
sg294
Nsg295
I01
sg296
g144
(g297
g146
Ntp3102
Rp3103
(dp3104
g301
g538
sg303
I00
sg304
g539
sg306
g540
sbsg308
(lp3105
sg334
Nsg310
Nsg333
Nsg311
(lp3106
g543
ag544
ag545
ag546
asg336
g144
(g297
g146
Ntp3107
Rp3108
(dp3109
g301
g538
sg303
I00
sg304
g604
sg306
g605
sbsg342
g2362
sg312
I01
sg335
(lp3110
g597
ag598
ag599
ag600
asg318
Nsg345
Nsg313
Nsg314
F0.0
sg343
(lp3111
sbag144
(g280
g146
Ntp3112
Rp3113
(dp3114
g315
Nsg317
g3058
sg286
I1
sg325
Nsg287
(lp3115
sg326
Nsg327
g144
(g416
g146
Ntp3116
Rp3117
(dp3118
g420
g626
sg422
(lp3119
g144
(g280
g146
Ntp3120
Rp3121
(dp3122
g315
Nsg317
g2330
sg286
I1
sg325
Nsg287
(lp3123
sg326
Nsg327
g3117
sg328
g641
sg293
I1
sg329
(dp3124
sg331
(lp3125
sg294
Nsg295
I01
sg296
g144
(g297
g146
Ntp3126
Rp3127
(dp3128
g301
g635
sg303
I00
sg304
g636
sg306
g637
sbsg308
(lp3129
sg334
Nsg310
Nsg333
Nsg311
(lp3130
g640
asg336
g144
(g297
g146
Ntp3131
Rp3132
(dp3133
g301
g635
sg303
I00
sg304
g649
sg306
g650
sbsg342
g2409
sg312
I01
sg335
(lp3134
g645
asg318
Nsg345
Nsg313
Nsg314
F0.0
sg343
(lp3135
sbag3113
asg296
g144
(g576
g146
Ntp3136
Rp3137
(dp3138
g301
g655
sg581
g656
sbsg583
I1
sg333
Nsg325
I5
sg584
g3031
sg336
g144
(g576
g146
Ntp3139
Rp3140
(dp3141
g301
g655
sg581
g660
sbsg342
g2421
sg589
(ipowercad.general.data_struct.util
Rect
p3142
(dp3143
g321
F33.04843818967226
sg322
F52.012387875922
sg323
F48.91238787592201
sg324
F29.948438189672263
sbsg592
I34
sbsg328
g663
sg293
I2
sg329
(dp3144
sg331
(lp3145
sg294
Nsg295
I01
sg296
g144
(g297
g146
Ntp3146
Rp3147
(dp3148
g301
g614
sg303
I00
sg304
g615
sg306
g616
sbsg308
(lp3149
sg334
Nsg310
Nsg333
Nsg311
(lp3150
g619
ag620
ag621
ag622
asg336
g144
(g297
g146
Ntp3151
Rp3152
(dp3153
g301
g614
sg303
I00
sg304
g674
sg306
g675
sbsg342
g2362
sg312
I01
sg335
(lp3154
g667
ag668
ag669
ag670
asg318
Nsg345
Nsg313
Nsg314
F0.0
sg343
(lp3155
sbasg334
Nsg310
Nsg333
Nsg311
Nsg336
g144
(g297
g146
Ntp3156
Rp3157
(dp3158
g301
g497
sg303
I01
sg304
g685
sg306
g686
sbsg342
Nsg312
I01
sg335
Nsg318
(ipowercad.general.data_struct.util
Rect
p3159
(dp3160
g321
F38.40705865999772
sg322
F47.368081143688165
sg323
F43.069049644718206
sg324
F19.2666661870043
sbsg345
g144
(g297
g146
Ntp3161
Rp3162
(dp3163
g301
g497
sg306
g691
sg304
g692
sg303
I01
sbsg313
Nsg314
Nsg343
(lp3164
sbsg286
I1
sg325
Nsg287
(lp3165
sg326
Nsg327
g3035
sg328
g517
sg293
I2
sg329
(dp3166
sg331
(lp3167
sg294
Nsg295
I01
sg296
g144
(g297
g146
Ntp3168
Rp3169
(dp3170
g301
g508
sg303
I00
sg304
g509
sg306
g510
sbsg308
(lp3171
sg334
Nsg310
Nsg333
Nsg311
(lp3172
g513
ag514
ag515
ag516
asg336
g144
(g297
g146
Ntp3173
Rp3174
(dp3175
g301
g508
sg303
I00
sg304
g528
sg306
g529
sbsg342
g2362
sg312
I01
sg335
(lp3176
g521
ag522
ag523
ag524
asg318
Nsg345
Nsg313
Nsg314
F0.0
sg343
(lp3177
sbasg296
g144
(g576
g146
Ntp3178
Rp3179
(dp3180
g301
g992
sg581
g993
sbsg583
I1
sg333
Nsg325
I3
sg584
g3031
sg336
g144
(g576
g146
Ntp3181
Rp3182
(dp3183
g301
g992
sg581
g997
sbsg342
g2421
sg589
(ipowercad.general.data_struct.util
Rect
p3184
(dp3185
g321
F37.10705865999772
sg322
F52.012387875922
sg323
F48.91238787592201
sg324
F34.007058659997725
sbsg592
I35
sbag3073
ag3117
asg317
Nsg286
Nsg325
I2
sg287
(lp3186
sg326
Nsg327
Nsg328
Nsg293
Nsg329
(dp3187
sg331
(lp3188
(g3000
I1
tp3189
asg294
Nsg295
I00
sg296
g144
(g297
g146
Ntp3190
Rp3191
(dp3192
g301
g411
sg303
I01
sg304
g412
sg306
g413
sbsg308
(lp3193
sg334
Nsg310
Nsg333
Nsg311
Nsg336
g144
(g297
g146
Ntp3194
Rp3195
(dp3196
g301
g411
sg303
I01
sg304
g1008
sg306
g1009
sbsg342
Nsg312
I01
sg335
Nsg318
(ipowercad.general.data_struct.util
Rect
p3197
(dp3198
g321
F37.20705865999772
sg322
F52.35669460815585
sg323
F48.56808114368817
sg324
F23.376358463803427
sbsg345
g144
(g297
g146
Ntp3199
Rp3200
(dp3201
g301
g411
sg306
g1014
sg304
g1015
sg303
I01
sbsg313
Nsg314
Nsg343
(lp3202
sbI1
tp3203
a(g2372
I1
tp3204
a(g2497
I2
tp3205
asbg2981
g875
g876
00000g3000
I1
tp3206
asg294
Nsg295
I00
sg296
g144
(g297
g146
Ntp3207
Rp3208
(dp3209
g301
g796
sg303
I01
sg304
g797
sg306
g798
sbsg308
(lp3210
sg334
Nsg310
Nsg333
Nsg311
Nsg336
g144
(g297
g146
Ntp3211
Rp3212
(dp3213
g301
g796
sg303
I01
sg304
g882
sg306
g883
sbsg342
Nsg312
I01
sg335
Nsg318
(ipowercad.general.data_struct.util
Rect
p3214
(dp3215
g321
F37.20705865999772
sg322
F60.50096850103006
sg323
F56.71235503656238
sg324
F23.376358463803427
sbsg345
g144
(g297
g146
Ntp3216
Rp3217
(dp3218
g301
g796
sg306
g888
sg304
g889
sg303
I01
sbsg313
Nsg314
Nsg343
(lp3219
sbsg336
g144
(g576
g146
Ntp3220
Rp3221
(dp3222
g301
g943
sg581
g948
sbsg342
g2421
sg589
(ipowercad.general.data_struct.util
Rect
p3223
(dp3224
g321
F26.57635846380343
sg322
F60.15666176879621
sg323
F57.05666176879622
sg324
F23.47635846380343
sbsg592
I55
sbsg328
g951
sg293
I2
sg329
(dp3225
sg331
(lp3226
sg294
Nsg295
I01
sg296
g144
(g297
g146
Ntp3227
Rp3228
(dp3229
g301
g455
sg303
I00
sg304
g456
sg306
g457
sbsg308
(lp3230
sg334
Nsg310
Nsg333
Nsg311
(lp3231
g460
asg336
g144
(g297
g146
Ntp3232
Rp3233
(dp3234
g301
g455
sg303
I00
sg304
g959
sg306
g960
sbsg342
g2409
sg312
I01
sg335
(lp3235
g955
asg318
Nsg345
Nsg313
Nsg314
F0.0
sg343
(lp3236
sbag3039
ag3121
ag3077
ag2327
ag2396
asg334
Nsg310
Nsg333
Nsg311
Nsg336
g144
(g297
g146
Ntp3237
Rp3238
(dp3239
g301
g444
sg303
I01
sg304
g970
sg306
g971
sbsg342
Nsg312
I01
sg335
Nsg318
(ipowercad.general.data_struct.util
Rect
p3240
(dp3241
g321
F37.20705865999772
sg322
F55.51235503656237
sg323
F53.55669460815585
sg324
F24.576358463803427
sbsg345
g144
(g297
g146
Ntp3242
Rp3243
(dp3244
g301
g444
sg306
g976
sg304
g977
sg303
I01
sbsg313
Nsg314
Nsg343
(lp3245
sbsg286
I1
sg325
Nsg287
(lp3246
sg326
Nsg327
g2323
sg328
g773
sg293
I2
sg329
(dp3247
sg331
(lp3248
sg294
Nsg295
I01
sg296
g144
(g297
g146
Ntp3249
Rp3250
(dp3251
g301
g767
sg303
I00
sg304
g768
sg306
g769
sbsg308
(lp3252
sg334
Nsg310
Nsg333
Nsg311
(lp3253
g772
asg336
g144
(g297
g146
Ntp3254
Rp3255
(dp3256
g301
g767
sg303
I00
sg304
g781
sg306
g782
sbsg342
g2409
sg312
I01
sg335
(lp3257
g777
asg318
Nsg345
Nsg313
Nsg314
F0.0
sg343
(lp3258
sbasg296
g144
(g576
g146
Ntp3259
Rp3260
(dp3261
g301
g787
sg581
g788
sbsg583
I2
sg333
Nsg325
I5
sg584
g2372
sg336
g144
(g576
g146
Ntp3262
Rp3263
(dp3264
g301
g787
sg581
g893
sbsg342
g2421
sg589
(ipowercad.general.data_struct.util
Rect
p3265
(dp3266
g321
F33.04843818967226
sg322
F60.15666176879621
sg323
F57.05666176879622
sg324
F29.948438189672263
sbsg592
I56
sbsg328
g896
sg293
I1
sg329
(dp3267
sg331
(lp3268
sg294
Nsg295
I01
sg296
g144
(g297
g146
Ntp3269
Rp3270
(dp3271
g301
g746
sg303
I00
sg304
g747
sg306
g748
sbsg308
(lp3272
sg334
Nsg310
Nsg333
Nsg311
(lp3273
g751
ag752
ag753
ag754
asg336
g144
(g297
g146
Ntp3274
Rp3275
(dp3276
g301
g746
sg303
I00
sg304
g907
sg306
g908
sbsg342
g2362
sg312
I01
sg335
(lp3277
g900
ag901
ag902
ag903
asg318
Nsg345
Nsg313
Nsg314
F0.0
sg343
(lp3278
sbag2380
ag2349
asg334
Nsg310
Nsg333
Nsg311
Nsg336
g144
(g297
g146
Ntp3279
Rp3280
(dp3281
g301
g735
sg303
I01
sg304
g918
sg306
g919
sbsg342
Nsg312
I01
sg335
Nsg318
(ipowercad.general.data_struct.util
Rect
p3282
(dp3283
g321
F38.40705865999772
sg322
F66.00000000000001
sg323
F61.70096850103006
sg324
F19.2666661870043
sbsg345
g144
(g297
g146
Ntp3284
Rp3285
(dp3286
g301
g735
sg306
g924
sg304
g925
sg303
I01
sbsg313
Nsg314
Nsg343
(lp3287
sbag3058
asg326
Nsg327
Nsg328
Nsg293
Nsg329
(dp3288
sg331
(lp3289
sg294
Nsg295
I00
sg296
g144
(g297
g146
Ntp3290
Rp3291
(dp3292
g301
g696
sg303
I00
sg304
g697
sg306
g698
sbsg308
(lp3293
sg334
Nsg310
Nsg333
Nsg311
Nsg336
g144
(g297
g146
Ntp3294
Rp3295
(dp3296
g301
g696
sg303
I00
sg304
g724
sg306
g725
sbsg342
Nsg312
I01
sg335
Nsg318
(ipowercad.general.data_struct.util
Rect
p3297
(dp3298
g321
F45.99999999999999
sg322
F66.00000000000001
sg323
F43.069049644718206
sg324
F38.40705865999772
sbsg345
g144
(g297
g146
Ntp3299
Rp3300
(dp3301
g301
g696
sg306
g730
sg304
g731
sg303
I00
sbsg313
Nsg314
Nsg343
(lp3302
sbsg336
g144
(g576
g146
Ntp3303
Rp3304
(dp3305
g301
g709
sg581
g714
sbsg342
g2510
sg589
(ipowercad.general.data_struct.util
Rect
p3306
(dp3307
g321
F45.99999999999999
sg322
F63.53452482235911
sg323
F45.53452482235911
sg324
F40.99999999999999
sbsg592
I20
sbsg2251
g704
ssI21
(dp3308
g2251
(F63.85048425051504
F42.20352932999886
tp3309
ssI22
(dp3310
g2251
(F3.7506450021075537
F23.376358463803427
tp3311
ssI23
(dp3312
g2251
(F3.7506450021075537
F26.22635846380343
tp3313
ssI24
(dp3314
g2251
g1162
ssI25
(dp3315
g2251
(F3.7506450021075537
F30.537089037991233
tp3316
ssI26
(dp3317
g2251
g1545
ssI27
(dp3318
g2251
(F3.7506450021075537
F34.696928677026285
tp3319
ssI28
(dp3320
g2251
g1640
ssI29
(dp3321
g2292
g327
sg2294
g2585
sg2251
g1144
ssI30
(dp3322
g2292
g327
sg2294
g2612
sg2251
g1503
ssI31
(dp3323
g2292
g327
sg2294
g2563
sg2251
g1102
ssI32
(dp3324
g2251
(F10.595596736448947
F38.76500537233877
tp3325
ssI33
(dp3326
g2292
g327
sg2294
g3073
sg2251
g550
ssI34
(dp3327
g2292
g327
sg2294
g3117
sg2251
g626
ssI35
(dp3328
g2292
g327
sg2294
g3035
sg2251
g421
ssI36
(dp3329
g2251
(F22.53565407498167
F26.22635846380343
tp3330
ssI37
(dp3331
g2251
g1591
ssI38
(dp3332
g2251
(F22.53565407498167
F26.22635846380343
tp3333
ssI39
(dp3334
g2251
g1416
ssI40
(dp3335
g2251
(F22.53565407498167
F30.537089037991233
tp3336
ssI41
(dp3337
g2251
g1337
ssI42
(dp3338
g2251
(F22.53565407498167
F30.537089037991233
tp3339
ssI43
(dp3340
g2251
g1518
ssI44
(dp3341
g2251
(F22.53565407498167
F34.696928677026285
tp3342
ssI45
(dp3343
g2251
g1618
ssI46
(dp3344
g2251
(F22.53565407498167
F34.696928677026285
tp3345
ssI47
(dp3346
g2251
g1267
ssI48
(dp3347
g2251
(F63.85048425051504
F25.02635846380343
tp3348
ssI49
(dp3349
g2251
g926
ssI50
(dp3350
g2251
(F63.85048425051504
F31.498438189672264
tp3351
ssI51
(dp3352
g2251
g896
ssI52
(dp3353
g2251
(F63.85048425051504
F35.55705865999772
tp3354
ssI53
(dp3355
g2251
g822
ssI54
(dp3356
g2251
(F63.85048425051504
F38.40705865999772
tp3357
ssI55
(dp3358
g2292
g327
sg2294
g2345
sg2251
g464
ssI56
(dp3359
g2292
g327
sg2294
g2323
sg2251
g758
ssI57
(dp3360
g2292
g327
sg2294
g2376
sg2251
g804
ssI58
(dp3361
g2251
(F45.21856539420318
F25.02635846380343
tp3362
ssI59
(dp3363
g2251
g593
ssI60
(dp3364
g2251
(F45.21856539420318
F31.498438189672264
tp3365
ssI61
(dp3366
g2251
g663
ssI62
(dp3367
g2251
(F45.21856539420318
F35.55705865999772
tp3368
ssI63
(dp3369
g2251
g517
ssI64
(dp3370
g2251
(F45.21856539420318
F38.40705865999772
tp3371
ssI65
(dp3372
g2251
(F10.595596736448947
F42.20352932999886
tp3373
ssI66
(dp3374
g2251
(F20.9345248223591
F42.20352932999886
tp3375
ssI67
(dp3376
g2292
g2293
sg2294
g2661
sg2251
g1464
ssI68
(dp3377
g2251
(F34.475711413514404
F42.20352932999886
tp3378
ssI69
(dp3379
g2292
g327
sg2294
g2678
sg2251
g1204
ssI70
(dp3380
g2292
g327
sg2294
g2744
sg2251
g1322
ssI71
(dp3381
g2292
g327
sg2294
g2700
sg2251
g1252
ssI72
(dp3382
g2251
(F34.475711413514404
F38.76500537233877
tp3383
ssI73
(dp3384
g2251
(F39.719533895233226
F23.376358463803427
tp3385
ssI74
(dp3386
g2251
(F39.719533895233226
F26.22635846380343
tp3387
ssI75
(dp3388
g2251
g1389
ssI76
(dp3389
g2251
(F39.719533895233226
F30.537089037991233
tp3390
ssI77
(dp3391
g2251
g1359
ssI78
(dp3392
g2251
(F39.719533895233226
F34.696928677026285
tp3393
ssI79
(dp3394
g2251
g1289
ssI80
(dp3395
g2251
(F42.469049644718204
F8.43333309350215
tp3396
ssI81
(dp3397
g2292
g2293
sg2294
g2501
sg2251
g1035
ssI82
(dp3398
g2251
(F3.7506450021075537
F21.321512325403866
tp3399
ssI83
(dp3400
g2251
(F8.701290004215107
F21.321512325403866
tp3401
ssI84
(dp3402
g2251
(F36.37001814574824
F21.321512325403866
tp3403
ssI85
(dp3404
g2251
(F39.719533895233226
F21.321512325403866
tp3405
ssI86
(dp3406
g2251
(F54.53452482235911
F25.02635846380343
tp3407
ssI87
(dp3408
g2251
g951
ssI88
(dp3409
g2251
(F54.53452482235911
F25.02635846380343
tp3410
ssI89
(dp3411
g2251
g565
ssI90
(dp3412
g2251
(F54.53452482235911
F31.498438189672264
tp3413
ssI91
(dp3414
g2251
g641
ssI92
(dp3415
g2251
(F54.53452482235911
F31.498438189672264
tp3416
ssI93
(dp3417
g2251
g773
ssI94
(dp3418
g2251
(F54.53452482235911
F35.55705865999772
tp3419
ssI95
(dp3420
g2251
g978
ssI96
(dp3421
g2251
(F54.53452482235911
F35.55705865999772
tp3422
ssI97
(dp3423
g2251
g849
sssS'graph'
p3424
(dp3425
sS'edge'
p3426
(dp3427
I0
(dp3428
I1
(dp3429
S'res'
p3430
F807.467258659161
sS'cap'
p3431
F0.0644753237643353
sg83
F13.834364070766567
sS'length'
p3432
F8.43333309350215
sS'ind'
p3433
F0.9198830944578723
sg2292
g317
ssI3
(dp3434
g3430
F50.12428596365905
sg3431
F0.06298221549498889
sg83
F4.216666546751075
sg3432
F27.668728141533133
sg3433
F0.09903760303411027
sg2292
g317
sssI1
(dp3435
I0
g3429
sI2
(dp3436
g3430
F628.5822004729268
sg3431
F0.050856739003233765
sg83
F13.834364070766567
sg3432
F10.833333093502151
sg3433
F0.6338389316159027
sg2292
g317
ssI4
(dp3437
g3430
F105.05148400967842
sg3431
F0.029026219310809283
sg83
F9.63333309350215
sg3432
F27.668728141533133
sg3433
F0.13795567335340148
sg2292
g317
sssI2
(dp3438
I1
g3436
sI83
(dp3439
g3430
F255.96025562101283
sg3431
F2.70717978431728
sg83
F0.9471533661169182
sg3432
F2.054846138399565
sg3433
F1.5051802603261892
sg2292
g317
ssI5
(dp3440
g3430
F59.628276151963114
sg3431
F0.04998147455285973
sg83
F5.416666546751076
sg3432
F27.668728141533133
sg3433
F0.10877593791583737
sg2292
g317
sssI3
(dp3441
I0
g3434
sI4
(dp3442
g3430
F807.467258659161
sg3431
F0.0644753237643353
sg83
F13.834364070766567
sg3432
F8.43333309350215
sg3433
F0.9198830944578723
sg2292
g317
sssI4
(dp3443
I80
(dp3444
g3430
F10608.122008315038
sg3431
F0.07183554327247549
sg83
F16.8666661870043
sg3432
F6.099031498969964
sg3433
F1.660925293319354
sg2292
g317
ssI1
g3437
sI3
g3442
sI5
(dp3445
g3430
F628.5822004729268
sg3431
F0.050856739003233765
sg83
F13.834364070766567
sg3432
F10.833333093502151
sg3433
F0.6338389316159027
sg2292
g317
sssI5
(dp3446
I4
g3445
sI2
g3440
sI84
(dp3447
g3430
F759.9706026861568
sg3431
F0.602666862257419
sg83
F5.019290312554023
sg3432
F2.054846138399565
sg3433
F3.5673031615711617
sg2292
g317
sssI6
(dp3448
I9
(dp3449
g3430
F732.1281279412932
sg3431
F0.7610937784377557
sg83
F4.216666546751075
sg3432
F1.8943067322338365
sg3433
F3.5827142410491244
sg2292
g317
ssI7
(dp3450
g3430
F62.366674838428104
sg3431
F0.722774248875382
sg83
F0.9471533661169182
sg3432
F8.43333309350215
sg3433
F0.2615182504170877
sg2292
g317
sssI7
(dp3451
I8
(dp3452
g3430
F35.1976209511046
sg3431
F0.413464199415962
sg83
F0.9471533661169182
sg3432
F14.943025370301278
sg3433
F0.13145827587604192
sg2292
g317
ssI80
(dp3453
g3430
F10608.122008315038
sg3431
F0.07183554327247549
sg83
F16.8666661870043
sg3432
F6.099031498969964
sg3433
F1.660925293319354
sg2292
g317
ssI10
(dp3454
g3430
F2161.7527067769893
sg3431
F0.2817640942039716
sg83
F11.688179231901714
sg3432
F1.8943067322338365
sg3433
F5.071105520482264
sg2292
g317
ssI6
g3450
ssI8
(dp3455
I11
(dp3456
g3430
F1140.072790059345
sg3431
F0.43762024123634286
sg83
F7.471512685150639
sg3432
F1.8943067322338365
sg3433
F4.7945644651083015
sg2292
g317
ssI7
g3452
ssI9
(dp3457
I10
(dp3458
g3430
F185.17265248660263
sg3431
F0.16983015861064302
sg83
F5.019290312554023
sg3432
F8.43333309350215
sg3433
F0.5084538967597206
sg2292
g317
ssI12
(dp3459
g3430
F170.28838418982775
sg3431
F0.2063819523489619
sg83
F4.216666546751075
sg3432
F8.14427389287421
sg3433
F0.48813487361915847
sg2292
g317
ssI6
g3449
ssI10
(dp3460
I9
g3458
sI11
(dp3461
g3430
F104.5051199157105
sg3431
F0.09799915950497512
sg83
F5.019290312554023
sg3432
F14.943025370301278
sg3433
F0.2354842707757304
sg2292
g317
ssI13
(dp3462
g3430
F502.8100429499661
sg3431
F0.07846318027023598
sg83
F11.688179231901714
sg3432
F8.14427389287421
sg3433
F0.8706249942821801
sg2292
g317
ssI7
g3454
ssI11
(dp3463
I8
g3456
sI33
(dp3464
g3430
F783.9746785965776
sg3431
F0.9421615970773243
sg83
F3.78861346446768
sg3432
F1.6500000000000021
sg3433
F4.02825140186238
sg2292
g317
ssI10
g3461
sI14
(dp3465
g3430
F265.17373922500354
sg3431
F0.12060475912093602
sg83
F7.471512685150639
sg3432
F8.14427389287421
sg3433
F0.6637193584912205
sg2292
g317
sssI12
(dp3466
I9
g3459
sI13
(dp3467
g3430
F185.17265248660274
sg3431
F0.1698301586106429
sg83
F5.019290312554027
sg3432
F8.43333309350215
sg3433
F0.5084538967597209
sg2292
g317
ssI15
(dp3468
g3430
F732.1281279412906
sg3431
F0.7610937784377533
sg83
F4.216666546751075
sg3432
F1.8943067322338436
sg3433
F3.5827142410491075
sg2292
g317
sssI13
(dp3469
I16
(dp3470
g3430
F2161.7527067769815
sg3431
F0.2817640942039708
sg83
F11.688179231901714
sg3432
F1.8943067322338436
sg3433
F5.071105520482255
sg2292
g317
ssI10
g3462
sI12
g3467
sI14
(dp3471
g3430
F104.50511991571057
sg3431
F0.09799915950497508
sg83
F5.019290312554027
sg3432
F14.943025370301278
sg3433
F0.23548427077573048
sg2292
g317
sssI14
(dp3472
I17
(dp3473
g3430
F1140.0727900593408
sg3431
F0.4376202412363416
sg83
F7.471512685150639
sg3432
F1.8943067322338436
sg3433
F4.794564465108283
sg2292
g317
ssI11
g3465
sI13
g3471
sI55
(dp3474
g3430
F783.9746785965776
sg3431
F0.9421615970773243
sg83
F3.78861346446768
sg3432
F1.6500000000000021
sg3433
F4.02825140186238
sg2292
g317
sssI15
(dp3475
I16
(dp3476
g3430
F62.36667483842827
sg3431
F0.7227742488753799
sg83
F0.9471533661169218
sg3432
F8.43333309350215
sg3433
F0.2615182504170879
sg2292
g317
ssI12
g3468
ssI16
(dp3477
I17
(dp3478
g3430
F35.19762095110469
sg3431
F0.4134641994159608
sg83
F0.9471533661169218
sg3432
F14.943025370301278
sg3433
F0.13145827587604203
sg2292
g317
ssI13
g3470
sI15
g3476
ssI17
(dp3479
I16
g3478
sI14
g3473
ssI18
(dp3480
I64
(dp3481
g3430
F1000000.0
sg3431
F1000000.0
sg83
F4.29903149896996
sg3432
F3.796470670001135
sg3433
F1000000.0
sg2292
g317
ssI19
(dp3482
g3430
F235.5285782294814
sg3431
F0.10456761482884509
sg83
F7.59294134000227
sg3432
F9.315959428155928
sg3433
F0.5533963504822622
sg2292
g317
sssI19
(dp3483
I18
g3482
sI20
(dp3484
g3430
F1000000.0
sg3431
F0.24319339075908641
sg83
I18
sg3432
F1.2964706700011348
sg3433
F4.081720807610138
sg2292
g317
ssI21
(dp3485
g3430
F235.5285782294814
sg3431
F0.10456761482884509
sg83
F7.59294134000227
sg3432
F9.315959428155928
sg3433
F0.5533963504822622
sg2292
g317
sssI20
(dp3486
I19
g3484
ssI21
(dp3487
I19
g3485
sI54
(dp3488
g3430
F1000000.0
sg3431
F1000000.0
sg83
F4.299031498969953
sg3432
F3.796470670001135
sg3433
F1000000.0
sg2292
g317
sssI22
(dp3489
I82
(dp3490
g3430
F1000000.0
sg3431
F1000000.0
sg83
F4.299031498969958
sg3432
F2.0548461383995615
sg3433
F1000000.0
sg2292
g317
ssI23
(dp3491
g3430
F492.8935179925349
sg3431
F0.5296535777633088
sg83
F4.299031498969958
sg3432
F2.8500000000000014
sg3433
F2.08850343471693
sg2292
g317
sssI23
(dp3492
I24
(dp3493
g3430
F1000000.0
sg3431
F1000.0
sg83
F0.6
sg3432
F1.149515749484979
sg3433
F1000000.0
sg2292
g317
ssI25
(dp3494
g3430
F325.8720307620702
sg3431
F0.3665550832006944
sg83
F4.299031498969958
sg3432
F4.310730574187804
sg3433
F1.1779131316600413
sg2292
g317
ssI22
g3491
ssI24
(dp3495
I29
(dp3496
g3433
F0.944312427907519
sg3430
F0.8628330726555905
sg3431
F1000.0
sg2292
S'bw power'
p3497
sg2294
g2589
ssI23
g3493
ssI25
(dp3498
I26
(dp3499
g3430
F1000000.0
sg3431
F1000.0
sg83
F0.6
sg3432
F1.149515749484979
sg3433
F1000000.0
sg2292
g317
ssI27
(dp3500
g3430
F337.6924709060614
sg3431
F0.37859793419063165
sg83
F4.299031498969958
sg3432
F4.159839639035052
sg3433
F1.237495834152122
sg2292
g317
ssI23
g3494
ssI26
(dp3501
I25
g3499
sI30
(dp3502
g3433
F0.944312427907519
sg3430
F0.8628330726555905
sg3431
F1000.0
sg2292
g3497
sg2294
g2632
sssI27
(dp3503
I25
g3500
sI28
(dp3504
g3430
F1000000.0
sg3431
F1000.0
sg83
F0.6
sg3432
F1.149515749484979
sg3433
F1000000.0
sg2292
g317
sssI28
(dp3505
I27
g3504
sI31
(dp3506
g3433
F0.944312427907519
sg3430
F0.8628330726555905
sg3431
F1000.0
sg2292
g3497
sg2294
g2559
sssI29
(dp3507
I24
g3496
sI37
(dp3508
g3433
F0.3890269026374593
sg3430
F0.3200465177551896
sg3431
F1000.0
sg2292
S'bw signal'
p3509
sg2294
g2806
ssI30
(dp3510
g3430
F300.07865196448245
sg3431
F0.41229364795284457
sg83
F3.788613464467682
sg3432
F4.310730574187804
sg3433
F1.0963982697568657
sg2292
g317
sssI30
(dp3511
I26
g3502
sI43
(dp3512
g3433
F0.3890269026374593
sg3430
F0.3200465177551896
sg3431
F1000.0
sg2292
g3509
sg2294
g2806
ssI29
g3510
sI31
(dp3513
g3430
F310.9634822327957
sg3431
F0.42587640981580854
sg83
F3.788613464467682
sg3432
F4.159839639035052
sg3433
F1.1512839937047197
sg2292
g317
sssI31
(dp3514
I32
(dp3515
g3430
F317.97783487584724
sg3431
F0.4345832099067439
sg83
F3.788613464467682
sg3432
F4.0680766953124845
sg3433
F1.1870581614758229
sg2292
g317
ssI28
g3506
sI45
(dp3516
g3433
F0.3890269026374593
sg3430
F0.3200465177551896
sg3431
F1000.0
sg2292
g3509
sg2294
g2806
ssI30
g3513
ssI32
(dp3517
I65
(dp3518
g3430
F1000000.0
sg3431
F1000000.0
sg83
F3.788613464467682
sg3432
F3.438523957660088
sg3433
F1000000.0
sg2292
g317
ssI31
g3515
ssI33
(dp3519
I11
g3464
sI89
(dp3520
g3433
F0.38902690263745815
sg3430
F0.32004651775518883
sg3431
F1000.0
sg2292
g3509
sg2294
g2396
ssI34
(dp3521
g3430
F199.86747297225287
sg3431
F0.2830050006403422
sg83
F3.78861346446768
sg3432
F6.472079725868834
sg3433
F0.6306680474769054
sg2292
g317
ssI59
(dp3522
g3433
F0.4449846286220459
sg3430
F1.1407259708369386
sg3431
F1000.0
sg2292
g3497
sg2294
g3113
sssI34
(dp3523
I33
g3521
sI91
(dp3524
g3433
F0.38902690263745815
sg3430
F0.32004651775518883
sg3431
F1000.0
sg2292
g3509
sg2294
g2396
ssI61
(dp3525
g3433
F0.4449846286220459
sg3430
F1.1407259708369386
sg3431
F1000.0
sg2292
g3497
sg2294
g3113
ssI35
(dp3526
g3430
F318.71869497091103
sg3431
F0.4355007273573792
sg83
F3.78861346446768
sg3432
F4.058620470325458
sg3433
F1.1908549020418104
sg2292
g317
sssI35
(dp3527
I34
g3526
sI63
(dp3528
g3433
F0.4449846286220459
sg3430
F1.1407259708369386
sg3431
F1000.0
sg2292
g3497
sg2294
g3113
ssI95
(dp3529
g3433
F0.38902690263745815
sg3430
F0.32004651775518883
sg3431
F1000.0
sg2292
g3509
sg2294
g2396
sssI36
(dp3530
I37
(dp3531
g3430
F1000000.0
sg3431
F1000.0
sg83
F0.15
sg3432
F8.645750606298884
sg3433
F1000000.0
sg2292
g317
ssI38
(dp3532
g3430
F1000000.0
sg3431
F1000.0
sg83
F17.69150121259777
sg3432
F0.0
sg3433
F1000000.0
sg2292
g317
sssI37
(dp3533
I36
g3531
sI29
g3508
ssI38
(dp3534
I40
(dp3535
g3430
F1000000.0
sg3431
F0.09380600163960807
sg83
F17.69150121259777
sg3432
F4.310730574187804
sg3433
F2.610480634972483
sg2292
g317
ssI36
g3532
sI39
(dp3536
g3430
F1000000.0
sg3431
F1000.0
sg83
F0.15
sg3432
F8.645750606298886
sg3433
F1000000.0
sg2292
g317
sssI39
(dp3537
I69
(dp3538
g3433
F0.38902690263745837
sg3430
F0.320046517755189
sg3431
F1000.0
sg2292
g3509
sg2294
g2806
ssI38
g3536
ssI40
(dp3539
I41
(dp3540
g3430
F1000000.0
sg3431
F1000.0
sg83
F0.15
sg3432
F8.645750606298886
sg3433
F1000000.0
sg2292
g317
ssI42
(dp3541
g3430
F1000000.0
sg3431
F1000.0
sg83
F17.69150121259777
sg3432
F0.0
sg3433
F1000000.0
sg2292
g317
ssI38
g3535
ssI41
(dp3542
I40
g3540
sI70
(dp3543
g3433
F0.38902690263745837
sg3430
F0.320046517755189
sg3431
F1000.0
sg2292
g3509
sg2294
g2748
sssI42
(dp3544
I40
g3541
sI43
(dp3545
g3430
F1000000.0
sg3431
F1000.0
sg83
F0.15
sg3432
F8.645750606298884
sg3433
F1000000.0
sg2292
g317
ssI44
(dp3546
g3430
F1000000.0
sg3431
F0.09681517194644988
sg83
F17.69150121259777
sg3432
F4.159839639035052
sg3433
F2.7106083796927987
sg2292
g317
sssI43
(dp3547
I42
g3545
sI30
g3512
ssI44
(dp3548
I42
g3546
sI45
(dp3549
g3430
F1000000.0
sg3431
F1000.0
sg83
F0.15
sg3432
F8.645750606298884
sg3433
F1000000.0
sg2292
g317
ssI46
(dp3550
g3430
F1000000.0
sg3431
F1000.0
sg83
F17.69150121259777
sg3432
F0.0
sg3433
F1000000.0
sg2292
g317
sssI45
(dp3551
I44
g3549
sI31
g3516
ssI46
(dp3552
I44
g3550
sI47
(dp3553
g3430
F1000000.0
sg3431
F1000.0
sg83
F0.15
sg3432
F8.645750606298886
sg3433
F1000000.0
sg2292
g317
sssI47
(dp3554
I46
g3553
sI71
(dp3555
g3433
F0.38902690263745837
sg3430
F0.320046517755189
sg3431
F1000.0
sg2292
g3509
sg2294
g2704
sssI48
(dp3556
I49
(dp3557
g3430
F1000000.0
sg3431
F1000.0
sg83
F0.6
sg3432
F1.1495157494849764
sg3433
F1000000.0
sg2292
g317
ssI50
(dp3558
g3430
F217.04716038400568
sg3431
F0.2518187590582007
sg83
F4.299031498969953
sg3432
F6.472079725868834
sg3433
F0.6733244512775289
sg2292
g317
sssI49
(dp3559
I48
g3557
sI55
(dp3560
g3433
F1.3431414586520982
sg3430
F1.1407259708369373
sg3431
F1000.0
sg2292
g3497
sg2294
g2349
sssI50
(dp3561
I48
g3558
sI51
(dp3562
g3430
F1000000.0
sg3431
F1000.0
sg83
F0.6
sg3432
F1.1495157494849764
sg3433
F1000000.0
sg2292
g317
ssI52
(dp3563
g3430
F346.11428601159116
sg3431
F0.3871298455879164
sg83
F4.299031498969953
sg3432
F4.058620470325458
sg3433
F1.2804599401579961
sg2292
g317
sssI51
(dp3564
I56
(dp3565
g3433
F1.3431414586520982
sg3430
F1.1407259708369373
sg3431
F1000.0
sg2292
g3497
sg2294
g2319
ssI50
g3562
ssI52
(dp3566
I50
g3563
sI53
(dp3567
g3430
F1000000.0
sg3431
F1000.0
sg83
F0.6
sg3432
F1.1495157494849764
sg3433
F1000000.0
sg2292
g317
ssI54
(dp3568
g3430
F492.8935179925346
sg3431
F0.5296535777633093
sg83
F4.299031498969953
sg3432
F2.8500000000000014
sg3433
F2.088503434716928
sg2292
g317
sssI53
(dp3569
I57
(dp3570
g3433
F1.3431414586520982
sg3430
F1.1407259708369373
sg3431
F1000.0
sg2292
g3497
sg2294
g2380
ssI52
g3567
ssI54
(dp3571
I52
g3568
sI21
g3488
ssI55
(dp3572
I56
(dp3573
g3430
F199.86747297225287
sg3431
F0.2830050006403422
sg83
F3.78861346446768
sg3432
F6.472079725868834
sg3433
F0.6306680474769054
sg2292
g317
ssI49
g3560
sI14
g3474
sI87
(dp3574
g3433
F0.38902690263745815
sg3430
F0.32004651775518883
sg3431
F1000.0
sg2292
g3509
sg2294
g2396
sssI56
(dp3575
I57
(dp3576
g3430
F318.71869497091103
sg3431
F0.4355007273573792
sg83
F3.78861346446768
sg3432
F4.058620470325458
sg3433
F1.1908549020418104
sg2292
g317
ssI51
g3565
sI93
(dp3577
g3433
F0.38902690263745815
sg3430
F0.32004651775518883
sg3431
F1000.0
sg2292
g3509
sg2294
g2396
ssI55
g3573
ssI57
(dp3578
I56
g3576
sI97
(dp3579
g3433
F0.38902690263745815
sg3430
F0.32004651775518883
sg3431
F1000.0
sg2292
g3509
sg2294
g2396
ssI53
g3570
ssI58
(dp3580
I59
(dp3581
g3430
F1000000.0
sg3431
F1000.0
sg83
F0.6
sg3432
F1.1495157494849835
sg3433
F1000000.0
sg2292
g317
ssI60
(dp3582
g3430
F217.04716038400585
sg3431
F0.25181875905820045
sg83
F4.29903149896996
sg3432
F6.472079725868834
sg3433
F0.6733244512775294
sg2292
g317
sssI59
(dp3583
I33
g3522
sI58
g3581
ssI60
(dp3584
I58
g3582
sI61
(dp3585
g3430
F1000000.0
sg3431
F1000.0
sg83
F0.6
sg3432
F1.1495157494849835
sg3433
F1000000.0
sg2292
g317
ssI62
(dp3586
g3430
F346.11428601159145
sg3431
F0.38712984558791597
sg83
F4.29903149896996
sg3432
F4.058620470325458
sg3433
F1.2804599401579975
sg2292
g317
sssI61
(dp3587
I34
g3525
sI60
g3585
ssI62
(dp3588
I64
(dp3589
g3430
F492.893517992535
sg3431
F0.5296535777633086
sg83
F4.29903149896996
sg3432
F2.8500000000000014
sg3433
F2.08850343471693
sg2292
g317
ssI60
g3586
sI63
(dp3590
g3430
F1000000.0
sg3431
F1000.0
sg83
F0.6
sg3432
F1.1495157494849835
sg3433
F1000000.0
sg2292
g317
sssI63
(dp3591
I35
g3528
sI62
g3590
ssI64
(dp3592
I18
g3481
sI62
g3589
ssI65
(dp3593
I32
g3518
sI66
(dp3594
g3430
F193.37359478584472
sg3431
F0.10401625489490765
sg83
F6.877047915320176
sg3432
F10.338928085910155
sg3433
F0.45275183953252157
sg2292
g317
sssI66
(dp3595
I65
g3594
sI67
(dp3596
g3430
F1000000.0
sg3431
F0.3018751120747753
sg83
I18
sg3432
F0.9385239576600881
sg3433
F3.8464036566373445
sg2292
g317
ssI68
(dp3597
g3430
F147.6440544369019
sg3431
F0.08025412353133007
sg83
F6.877047915320176
sg3432
F13.541186591155302
sg3433
F0.3117178428347462
sg2292
g317
sssI67
(dp3598
I66
g3596
ssI68
(dp3599
I72
(dp3600
g3430
F1000000.0
sg3431
F1000000.0
sg83
F3.78861346446768
sg3432
F3.438523957660088
sg3433
F1000000.0
sg2292
g317
ssI66
g3597
ssI69
(dp3601
I75
(dp3602
g3433
F0.4449846286220459
sg3430
F1.1407259708369386
sg3431
F1000.0
sg2292
g3497
sg2294
g2740
ssI70
(dp3603
g3430
F300.0786519644823
sg3431
F0.41229364795284484
sg83
F3.78861346446768
sg3432
F4.310730574187804
sg3433
F1.0963982697568653
sg2292
g317
ssI39
g3538
ssI70
(dp3604
I41
g3543
sI71
(dp3605
g3430
F310.96348223279546
sg3431
F0.4258764098158087
sg83
F3.78861346446768
sg3432
F4.159839639035052
sg3433
F1.1512839937047195
sg2292
g317
ssI69
g3603
sI77
(dp3606
g3433
F0.4449846286220459
sg3430
F1.1407259708369386
sg3431
F1000.0
sg2292
g3497
sg2294
g2740
sssI71
(dp3607
I72
(dp3608
g3430
F317.9778348758471
sg3431
F0.4345832099067441
sg83
F3.78861346446768
sg3432
F4.0680766953124845
sg3433
F1.1870581614758227
sg2292
g317
ssI47
g3555
sI70
g3605
sI79
(dp3609
g3433
F0.4449846286220459
sg3430
F1.1407259708369386
sg3431
F1000.0
sg2292
g3497
sg2294
g2740
sssI72
(dp3610
I68
g3600
sI71
g3608
ssI73
(dp3611
I74
(dp3612
g3430
F492.893517992535
sg3431
F0.5296535777633086
sg83
F4.29903149896996
sg3432
F2.8500000000000014
sg3433
F2.08850343471693
sg2292
g317
ssI85
(dp3613
g3430
F1000000.0
sg3431
F1000000.0
sg83
F4.29903149896996
sg3432
F2.0548461383995615
sg3433
F1000000.0
sg2292
g317
sssI74
(dp3614
I73
g3612
sI75
(dp3615
g3430
F1000000.0
sg3431
F1000.0
sg83
F0.6
sg3432
F1.1495157494849835
sg3433
F1000000.0
sg2292
g317
ssI76
(dp3616
g3430
F325.87203076207044
sg3431
F0.3665550832006943
sg83
F4.29903149896996
sg3432
F4.310730574187804
sg3433
F1.1779131316600417
sg2292
g317
sssI75
(dp3617
I74
g3615
sI69
g3602
ssI76
(dp3618
I74
g3616
sI77
(dp3619
g3430
F1000000.0
sg3431
F1000.0
sg83
F0.6
sg3432
F1.1495157494849835
sg3433
F1000000.0
sg2292
g317
ssI78
(dp3620
g3430
F337.69247090606143
sg3431
F0.3785979341906315
sg83
F4.29903149896996
sg3432
F4.159839639035052
sg3433
F1.2374958341521223
sg2292
g317
sssI77
(dp3621
I76
g3619
sI70
g3606
ssI78
(dp3622
I76
g3620
sI79
(dp3623
g3430
F1000000.0
sg3431
F1000.0
sg83
F0.6
sg3432
F1.1495157494849835
sg3433
F1000000.0
sg2292
g317
sssI79
(dp3624
I78
g3623
sI71
g3609
ssI80
(dp3625
I81
(dp3626
g3430
F1000000.0
sg3431
F0.06912538759459236
sg83
I18
sg3432
F5.933333093502149
sg3433
F1.7842723033137746
sg2292
g317
ssI4
g3444
sI7
g3453
ssI81
(dp3627
I80
g3626
ssI82
(dp3628
I83
(dp3629
g3430
F275.4470741326737
sg3431
F0.3368064718686227
sg83
F4.109692276799127
sg3432
F4.950645002107553
sg3433
F0.9486584167181352
sg2292
g317
ssI22
g3490
ssI83
(dp3630
I2
g3439
sI84
(dp3631
g3430
F49.28454513430011
sg3431
F0.06448045902559688
sg83
F4.109692276799127
sg3432
F27.668728141533133
sg3433
F0.09811924516863932
sg2292
g317
ssI82
g3629
ssI84
(dp3632
I83
g3631
sI5
g3447
sI85
(dp3633
g3430
F407.1157692301461
sg3431
F0.47954680991579574
sg83
F4.109692276799127
sg3432
F3.3495157494849863
sg3433
F1.6265041984148296
sg2292
g317
sssI85
(dp3634
I73
g3613
sI84
g3633
ssI86
(dp3635
I88
(dp3636
g3430
F1000000.0
sg3431
F1000.0
sg83
F1.9556604284065173
sg3432
F0.0
sg3433
F1000000.0
sg2292
g317
ssI87
(dp3637
g3430
F1000000.0
sg3431
F1000.0
sg83
F0.15
sg3432
F0.7778302142032558
sg3433
F1000000.0
sg2292
g317
sssI87
(dp3638
I86
g3637
sI55
g3574
ssI88
(dp3639
I89
(dp3640
g3430
F1000000.0
sg3431
F1000.0
sg83
F0.15
sg3432
F0.7778302142032558
sg3433
F1000000.0
sg2292
g317
ssI90
(dp3641
g3430
F131.75480230348575
sg3431
F0.5115156087253909
sg83
F1.9556604284065173
sg3432
F6.472079725868834
sg3433
F0.46610992460735895
sg2292
g317
ssI86
g3636
ssI89
(dp3642
I88
g3640
sI33
g3520
ssI90
(dp3643
I88
g3641
sI91
(dp3644
g3430
F1000000.0
sg3431
F1000.0
sg83
F0.15
sg3432
F0.7778302142032558
sg3433
F1000000.0
sg2292
g317
ssI92
(dp3645
g3430
F1000000.0
sg3431
F1000.0
sg83
F1.9556604284065173
sg3432
F0.0
sg3433
F1000000.0
sg2292
g317
sssI91
(dp3646
I90
g3644
sI34
g3524
ssI92
(dp3647
I90
g3645
sI93
(dp3648
g3430
F1000000.0
sg3431
F1000.0
sg83
F0.15
sg3432
F0.7778302142032558
sg3433
F1000000.0
sg2292
g317
ssI94
(dp3649
g3430
F210.10281473938036
sg3431
F0.7915385547186807
sg83
F1.9556604284065173
sg3432
F4.058620470325458
sg3433
F0.8506365344131033
sg2292
g317
sssI93
(dp3650
I56
g3577
sI92
g3648
ssI94
(dp3651
I96
(dp3652
g3430
F1000000.0
sg3431
F1000.0
sg83
F1.9556604284065173
sg3432
F0.0
sg3433
F1000000.0
sg2292
g317
ssI92
g3649
sI95
(dp3653
g3430
F1000000.0
sg3431
F1000.0
sg83
F0.15
sg3432
F0.7778302142032558
sg3433
F1000000.0
sg2292
g317
sssI95
(dp3654
I35
g3529
sI94
g3653
ssI96
(dp3655
I97
(dp3656
g3430
F1000000.0
sg3431
F1000.0
sg83
F0.15
sg3432
F0.7778302142032558
sg3433
F1000000.0
sg2292
g317
ssI94
g3652
ssI97
(dp3657
I96
g3656
sI57
g3579
sssS'adj'
p3658
g3427
sbasS'dev_design_values'
p3659
(lp3660
F0.3958922178667331
aF0.7779267970001841
aF0.0
aF1.0
aF0.0
aF0.6145915851073027
asS'removed_horiz_dv_index'
p3661
I2
sS'err_report'
p3662
(dp3663
sS'temp_dir'
p3664
S'C:\\GitStuff\\Mantooth3Git\\PowerCAD-full\\export_data\\temp'
p3665
sS'gap'
p3666
F1.2
sS'all_trace_lines'
p3667
(lp3668
g487
ag1073
ag284
ag1182
ag405
ag1118
ag1918
ag483
ag790
ag491
ag1186
ag356
ag1190
ag290
ag1223
ag352
ag1069
ag2017
ag438
ag360
asS'opt_to_sym_index'
p3669
(lp3670
(I1
I0
tp3671
a(I1
I1
tp3672
a(I1
I3
tp3673
a(I1
I4
tp3674
a(I1
I5
tp3675
a(I1
I6
tp3676
a(I1
I7
tp3677
a(I2
I1
tp3678
a(I2
I2
tp3679
a(I2
I3
tp3680
a(I2
I4
tp3681
a(I2
I5
tp3682
a(I2
I6
tp3683
a(I2
I7
tp3684
a(I2
I8
tp3685
a(I3
I0
tp3686
a(I3
I1
tp3687
a(I3
I2
tp3688
a(I3
I3
tp3689
a(I3
I4
tp3690
a(I3
I5
tp3691
asS'trace_graph'
p3692
g144
(g2243
g146
Ntp3693
Rp3694
(dp3695
g2247
(dp3696
g1223
(dp3697
sg1190
(dp3698
sg491
(dp3699
sg405
(dp3700
sg790
(dp3701
sg1182
(dp3702
sg483
(dp3703
sg1118
(dp3704
sg284
(dp3705
sg1186
(dp3706
sg352
(dp3707
sg356
(dp3708
sg1069
(dp3709
sg2017
(dp3710
sg438
(dp3711
sg1918
(dp3712
sg487
(dp3713
sg1073
(dp3714
ssg3424
(dp3715
sg3426
(dp3716
g1223
(dp3717
g1069
(dp3718
ssg1190
(dp3719
g1186
(dp3720
ssg491
(dp3721
g487
(dp3722
ssg405
(dp3723
g356
(dp3724
ssg790
(dp3725
g356
(dp3726
ssg1182
(dp3727
g1186
(dp3728
ssg483
(dp3729
g487
(dp3730
ssg1118
(dp3731
sg284
(dp3732
g1069
(dp3733
sg352
(dp3734
ssg1186
(dp3735
g1190
g3720
sg1182
g3728
ssg352
(dp3736
g284
g3734
sg356
(dp3737
ssg356
(dp3738
g405
g3724
sg352
g3737
sg790
g3726
ssg1069
(dp3739
g284
g3733
sg1223
g3718
sg1073
(dp3740
ssg2017
(dp3741
sg438
(dp3742
sg1918
(dp3743
sg487
(dp3744
g491
g3722
sg483
g3730
ssg1073
(dp3745
g1069
g3740
sssg3658
g3716
sbsS'trace_layout'
p3746
(lp3747
g728
ag1666
ag1715
ag1581
ag1012
ag1614
ag1940
ag922
ag886
ag689
ag1488
ag1020
ag1449
ag347
ag1385
ag1064
ag1690
ag2039
ag974
ag382
asS'layout_ready'
p3748
I01
sS'v_min_max_overflow'
p3749
(F0.0
F0.0
tp3750
sS'boundary_connections'
p3751
(dp3752
sS'ylen'
p3753
I10
sS'trace_graph_components'
p3754
(lp3755
(lp3756
(lp3757
g1223
ag356
ag405
ag284
ag790
ag1069
ag352
ag1073
aa(lp3758
g418
ag548
ag624
ag802
ag462
ag756
aaa(lp3759
(lp3760
g2017
aa(lp3761
aa(lp3762
(lp3763
g438
aa(lp3764
aa(lp3765
(lp3766
g1118
aa(lp3767
aa(lp3768
(lp3769
g491
ag483
ag487
aa(lp3770
aa(lp3771
(lp3772
g1190
ag1182
ag1186
aa(lp3773
g1202
ag1320
ag1250
ag1501
ag1100
ag1142
aaa(lp3774
(lp3775
g1918
aa(lp3776
aasS'bondwire_design_values'
p3777
(lp3778
sS'h_rowcol_list'
p3779
(lp3780
g144
(g1871
g146
Ntp3781
Rp3782
(dp3783
g1875
I00
sg322
F8.701290004215107
sg1876
I00
sg1877
Nsg325
Nsg1879
F3.7506450021075537
sg1895
F7.501290004215107
sg1880
(dp3784
g1918
I1
sg1073
I1
ssg1882
I00
sg1883
Nsg323
F0.0
sbag2189
ag144
(g1871
g146
Ntp3785
Rp3786
(dp3787
g1875
I00
sg322
F32.58140468128056
sg1876
I00
sg1877
Nsg325
Nsg1879
F22.53565407498167
sg1895
F17.691501212597768
sg1880
(dp3788
g284
I1
sg1118
I1
ssg1882
I00
sg1883
Nsg323
F13.689903468682788
sbag2193
ag2179
ag2183
ag2197
ag144
(g1871
g146
Ntp3789
Rp3790
(dp3791
g1875
I00
sg322
F56.71235503656238
sg1876
I00
sg1877
Nsg325
Nsg1879
F54.53452482235911
sg1895
F1.9556604284065227
sg1880
(dp3792
g438
I1
sg356
I1
ssg1882
I00
sg1883
Nsg323
F53.55669460815585
sbag2201
ag144
(g1871
g146
Ntp3793
Rp3794
(dp3795
g1875
I00
sg322
F66.00000000000001
sg1876
I00
sg1877
Nsg325
Nsg1879
F63.85048425051504
sg1895
F4.299031498969958
sg1880
(dp3796
g2017
I1
sg483
I1
ssg1882
I00
sg1883
Nsg323
F61.70096850103006
sbasS'v_design_values'
p3797
(lp3798
NaF1.2000000000000004
aF1.2000000000000013
aF0.0
aF4.109692276799126
aF7.765703602453042
aF6.064996593741257
aF7.592941340002276
aF6.87704791532018
asS'trace_info'
p3799
(lp3800
(lp3801
F13.834364070766567
aF8.43333309350215
aa(lp3802
F13.834364070766567
aF10.833333093502151
aa(lp3803
F4.216666546751075
aF27.668728141533133
aa(lp3804
F13.834364070766567
aF8.43333309350215
aa(lp3805
F9.63333309350215
aF27.668728141533133
aa(lp3806
F13.834364070766567
aF10.833333093502151
aa(lp3807
F5.416666546751076
aF27.668728141533133
aa(lp3808
F0.9471533661169182
aF8.43333309350215
aa(lp3809
F0.9471533661169182
aF14.943025370301278
aa(lp3810
F4.216666546751075
aF1.8943067322338365
aa(lp3811
F5.019290312554023
aF8.43333309350215
aa(lp3812
F11.688179231901714
aF1.8943067322338365
aa(lp3813
F5.019290312554023
aF14.943025370301278
aa(lp3814
F7.471512685150639
aF1.8943067322338365
aa(lp3815
F4.216666546751075
aF8.14427389287421
aa(lp3816
F5.019290312554027
aF8.43333309350215
aa(lp3817
F11.688179231901714
aF8.14427389287421
aa(lp3818
F5.019290312554027
aF14.943025370301278
aa(lp3819
F7.471512685150639
aF8.14427389287421
aa(lp3820
F4.216666546751075
aF1.8943067322338436
aa(lp3821
F0.9471533661169218
aF8.43333309350215
aa(lp3822
F11.688179231901714
aF1.8943067322338436
aa(lp3823
F0.9471533661169218
aF14.943025370301278
aa(lp3824
F7.471512685150639
aF1.8943067322338436
aa(lp3825
I18
aF1.2964706700011348
aa(lp3826
F7.59294134000227
aF9.315959428155928
aa(lp3827
F7.59294134000227
aF9.315959428155928
aa(lp3828
F4.299031498969958
aF2.8500000000000014
aa(lp3829
F4.299031498969958
aF4.310730574187804
aa(lp3830
F4.299031498969958
aF4.159839639035052
aa(lp3831
F3.788613464467682
aF4.310730574187804
aa(lp3832
F3.788613464467682
aF4.159839639035052
aa(lp3833
F3.788613464467682
aF4.0680766953124845
aa(lp3834
F3.78861346446768
aF1.6500000000000021
aa(lp3835
F3.78861346446768
aF6.472079725868834
aa(lp3836
F3.78861346446768
aF4.058620470325458
aa(lp3837
F17.69150121259777
aF0.0
aa(lp3838
F17.69150121259777
aF4.310730574187804
aa(lp3839
F17.69150121259777
aF0.0
aa(lp3840
F17.69150121259777
aF4.159839639035052
aa(lp3841
F17.69150121259777
aF0.0
aa(lp3842
F4.299031498969953
aF6.472079725868834
aa(lp3843
F4.299031498969953
aF4.058620470325458
aa(lp3844
F4.299031498969953
aF2.8500000000000014
aa(lp3845
F3.78861346446768
aF1.6500000000000021
aa(lp3846
F3.78861346446768
aF6.472079725868834
aa(lp3847
F3.78861346446768
aF4.058620470325458
aa(lp3848
F4.29903149896996
aF6.472079725868834
aa(lp3849
F4.29903149896996
aF4.058620470325458
aa(lp3850
F4.29903149896996
aF2.8500000000000014
aa(lp3851
I18
aF0.9385239576600881
aa(lp3852
F6.877047915320176
aF10.338928085910155
aa(lp3853
F6.877047915320176
aF13.541186591155302
aa(lp3854
F3.78861346446768
aF4.310730574187804
aa(lp3855
F3.78861346446768
aF4.159839639035052
aa(lp3856
F3.78861346446768
aF4.0680766953124845
aa(lp3857
F4.29903149896996
aF2.8500000000000014
aa(lp3858
F4.29903149896996
aF4.310730574187804
aa(lp3859
F4.29903149896996
aF4.159839639035052
aa(lp3860
I18
aF5.933333093502149
aa(lp3861
F16.8666661870043
aF6.099031498969964
aa(lp3862
F16.8666661870043
aF6.099031498969964
aa(lp3863
F0.9471533661169182
aF2.054846138399565
aa(lp3864
F4.109692276799127
aF4.950645002107553
aa(lp3865
F5.019290312554023
aF2.054846138399565
aa(lp3866
F4.109692276799127
aF27.668728141533133
aa(lp3867
F4.109692276799127
aF3.3495157494849863
aa(lp3868
F1.9556604284065173
aF0.0
aa(lp3869
F1.9556604284065173
aF6.472079725868834
aa(lp3870
F1.9556604284065173
aF0.0
aa(lp3871
F1.9556604284065173
aF4.058620470325458
aa(lp3872
F1.9556604284065173
aF0.0
aasS'algorithm'
p3873
S'NSGAII'
p3874
sS'symbol_graph'
p3875
g144
(g2243
g146
Ntp3876
Rp3877
(dp3878
g2247
(dp3879
g1223
(dp3880
sg553
(dp3881
sg548
(dp3882
sg756
(dp3883
sg807
(dp3884
sg284
(dp3885
sg1202
(dp3886
sg1069
(dp3887
sg487
(dp3888
sg702
(dp3889
sg1073
(dp3890
sg608
(dp3891
sg483
(dp3892
sg1033
(dp3893
sg629
(dp3894
sg1129
(dp3895
sg1506
(dp3896
sg1182
(dp3897
sg1304
(dp3898
sg1186
(dp3899
sg352
(dp3900
sg1118
(dp3901
sg1404
(dp3902
sg418
(dp3903
sg1084
(dp3904
sg1918
(dp3905
sg1462
(dp3906
sg1234
(dp3907
sg1530
(dp3908
sg1190
(dp3909
sg405
(dp3910
sg356
(dp3911
sg1501
(dp3912
sg2017
(dp3913
sg740
(dp3914
sg1250
(dp3915
sg761
(dp3916
sg438
(dp3917
sg1147
(dp3918
sg1207
(dp3919
sg449
(dp3920
sg1142
(dp3921
sg1255
(dp3922
sg467
(dp3923
sg462
(dp3924
sg1100
(dp3925
sg790
(dp3926
sg802
(dp3927
sg532
(dp3928
sg491
(dp3929
sg1105
(dp3930
sg425
(dp3931
sg837
(dp3932
sg624
(dp3933
sg502
(dp3934
sg1320
(dp3935
sg1325
(dp3936
ssg3424
(dp3937
sg3426
(dp3938
g1223
(dp3939
g1234
(dp3940
sg1069
(dp3941
sg1207
(dp3942
sg1304
(dp3943
ssg553
(dp3944
g548
(dp3945
sg438
(dp3946
ssg548
(dp3947
g405
(dp3948
sg532
(dp3949
sg553
g3945
ssg756
(dp3950
g761
(dp3951
sg740
(dp3952
sg790
(dp3953
ssg807
(dp3954
g802
(dp3955
sg483
(dp3956
ssg284
(dp3957
g1069
(dp3958
sg352
(dp3959
ssg1202
(dp3960
g1404
(dp3961
sg1190
(dp3962
sg1207
(dp3963
ssg1069
(dp3964
g284
g3958
sg1223
g3941
sg1073
(dp3965
ssg487
(dp3966
g702
(dp3967
sg483
(dp3968
sg491
(dp3969
ssg702
(dp3970
g487
g3967
ssg1073
(dp3971
g1069
g3965
sg1084
(dp3972
sg1147
(dp3973
sg1530
(dp3974
ssg608
(dp3975
g624
(dp3976
sg491
(dp3977
ssg483
(dp3978
g740
(dp3979
sg807
g3956
sg467
(dp3980
sg487
g3968
ssg1033
(dp3981
g352
(dp3982
ssg629
(dp3983
g624
(dp3984
sg438
(dp3985
ssg1129
(dp3986
g1118
(dp3987
sg1142
(dp3988
ssg1506
(dp3989
g1118
(dp3990
sg1501
(dp3991
ssg1182
(dp3992
g1100
(dp3993
sg1142
(dp3994
sg1186
(dp3995
sg1501
(dp3996
ssg1304
(dp3997
g1223
g3943
sg1320
(dp3998
ssg1186
(dp3999
g1182
g3995
sg1190
(dp4000
sg1462
(dp4001
ssg352
(dp4002
g284
g3959
sg1033
g3982
sg356
(dp4003
ssg1118
(dp4004
g1105
(dp4005
sg1129
g3987
sg1506
g3990
sg1255
(dp4006
sg1404
(dp4007
sg1325
(dp4008
ssg1404
(dp4009
g1202
g3961
sg1118
g4007
ssg418
(dp4010
g405
(dp4011
sg425
(dp4012
sg502
(dp4013
ssg1084
(dp4014
g1100
(dp4015
sg1073
g3972
ssg1918
(dp4016
sg1462
(dp4017
g1186
g4001
ssg1234
(dp4018
g1223
g3940
sg1250
(dp4019
ssg1530
(dp4020
g1073
g3974
sg1501
(dp4021
ssg1190
(dp4022
g1202
g3962
sg1186
g4000
sg1320
(dp4023
sg1250
(dp4024
ssg405
(dp4025
g418
g4011
sg548
g3948
sg624
(dp4026
sg356
(dp4027
ssg356
(dp4028
g405
g4027
sg352
g4003
sg790
(dp4029
ssg1501
(dp4030
g1506
g3991
sg1182
g3996
sg1530
g4021
ssg2017
(dp4031
sg740
(dp4032
g483
g3979
sg756
g3952
ssg1250
(dp4033
g1234
g4019
sg1255
(dp4034
sg1190
g4024
ssg761
(dp4035
g438
(dp4036
sg756
g3951
ssg438
(dp4037
g449
(dp4038
sg553
g3946
sg629
g3985
sg425
(dp4039
sg837
(dp4040
sg761
g4036
ssg1147
(dp4041
g1142
(dp4042
sg1073
g3973
ssg1207
(dp4043
g1202
g3963
sg1223
g3942
ssg449
(dp4044
g438
g4038
sg462
(dp4045
ssg1142
(dp4046
g1129
g3988
sg1147
g4042
sg1182
g3994
ssg1255
(dp4047
g1118
g4006
sg1250
g4034
ssg467
(dp4048
g483
g3980
sg462
(dp4049
ssg462
(dp4050
g449
g4045
sg467
g4049
sg790
(dp4051
ssg1100
(dp4052
g1105
(dp4053
sg1084
g4015
sg1182
g3993
ssg790
(dp4054
g462
g4051
sg756
g3953
sg802
(dp4055
sg356
g4029
ssg802
(dp4056
g807
g3955
sg837
(dp4057
sg790
g4055
ssg532
(dp4058
g548
g3949
sg491
(dp4059
ssg491
(dp4060
g608
g3977
sg502
(dp4061
sg532
g4059
sg487
g3969
ssg1105
(dp4062
g1100
g4053
sg1118
g4005
ssg425
(dp4063
g418
g4012
sg438
g4039
ssg837
(dp4064
g438
g4040
sg802
g4057
ssg624
(dp4065
g608
g3976
sg629
g3984
sg405
g4026
ssg502
(dp4066
g418
g4013
sg491
g4061
ssg1320
(dp4067
g1325
(dp4068
sg1190
g4023
sg1304
g3998
ssg1325
(dp4069
g1118
g4008
sg1320
g4068
sssg3658
g3938
sbsg2081
(lp4070
g1501
ag1100
ag1142
ag418
ag548
ag624
ag802
ag462
ag756
ag1202
ag1320
ag1250
asS'SymPoint'
p4071
g416
sS'trace_ylen'
p4072
I7
sS'points'
p4073
(lp4074
g418
ag1501
ag548
ag1100
ag1202
ag1033
ag802
ag1142
ag1320
ag462
ag1250
ag702
ag756
ag1462
ag624
asS'mode'
p4075
I7
sS'removed_vert_dv_index'
p4076
I0
sS'solution_lib'
p4077
(ipowercad.sol_browser.solution_lib
SolutionLibrary
p4078
(dp4079
S'measure_data'
p4080
(lp4081
(lp4082
F564.9385260862609
aF565.1317294976143
aF565.1317294976143
aF565.1317294976143
aF565.1317294976144
aF565.1317294976144
aF565.3628463984892
aF565.4027777379948
aF565.4569966864074
aF565.4856552527569
aF565.5319946328207
aF565.5331173436
aF565.5399188871479
aF565.6974728754726
aF565.6992021910041
aF565.7587359542875
aF565.8102689002633
aF565.8162626146166
aF565.8334932196942
aF565.8359100265608
aF565.8866456617757
aF565.8984684484991
aF565.8984684484991
aF565.977441724081
aF566.0336815377352
aF566.1064980464662
aF566.1078642468678
aF566.1230582746352
aF566.1744068667647
aF566.2023262077449
aF566.2413810369819
aF566.2442748900198
aF566.2451354264732
aF566.4079700311123
aF566.4437092831432
aF566.4462803238791
aF566.4696815224072
aF566.5507676439961
aF566.5920808900071
aF566.6530316185258
aF566.9079624764527
aF567.002315067512
aF567.002315067512
aF567.2705875132997
aF567.6645854460664
aF567.8297613157308
aF568.1443691449812
aF568.2426118250844
aF568.9818475806417
aF568.9818475806417
aF569.608097019297
aF571.2731938637235
aa(lp4083
F10.750479531407857
aF11.826906955871316
aF11.826907006171488
aF11.826907054127247
aF11.826907025891547
aF11.826907025891547
aF11.387490938079916
aF11.07327914552474
aF10.617534767154428
aF11.184588832587401
aF11.004269471419757
aF11.101561929035864
aF11.175262704507254
aF10.967081244301934
aF11.461186623535287
aF11.183580911295639
aF10.88818584384559
aF11.091961571912474
aF10.95832181792522
aF10.872317121838705
aF10.710757684799997
aF10.500850630372689
aF10.500850678519821
aF11.704486740400895
aF10.627666436139686
aF10.685509556840465
aF11.294315268423956
aF10.636552168211242
aF10.520056288651261
aF10.253249671182102
aF10.509918671543167
aF10.5626677838755
aF10.231038145331112
aF9.839351859389783
aF10.454642165049723
aF10.385637810149628
aF10.206724257779488
aF10.307288172966626
aF10.204811687216768
aF10.533655406667169
aF9.780183418486645
aF10.087284797593355
aF10.08728485069754
aF11.070393913665665
aF10.214247110281583
aF10.077143973423668
aF12.63523201644227
aF11.533770034369837
aF11.523076905245478
aF11.523076924921343
aF11.485451972744972
aF10.76708017161947
aa(lp4084
F0.3764060023955884
aF0.34755233575271455
aF0.34755233571891914
aF0.34755233566984356
aF0.34755233567348637
aF0.34755233567348637
aF0.34712972533484077
aF0.37132367716437337
aF0.41059591025346553
aF0.3431208588393555
aF0.3673768573367371
aF0.35328066972596356
aF0.3461741659678459
aF0.3676818208150413
aF0.33431433992321147
aF0.3447058036893823
aF0.3577968739457797
aF0.33585015775197025
aF0.34380890051504875
aF0.36522658887279963
aF0.35707699741008847
aF0.41776616918106285
aF0.4177661688784773
aF0.33420129752504407
aF0.3708005523068137
aF0.3602947193805693
aF0.33467088350110274
aF0.3257360133786057
aF0.40906519759415094
aF0.414778280333867
aF0.34888547458795605
aF0.3451185899531927
aF0.41598326605279845
aF0.4030874652890425
aF0.3525142710777224
aF0.39571004634588647
aF0.35825153800568876
aF0.34280505907700265
aF0.36510374909056476
aF0.33820463759014596
aF0.41624846710387253
aF0.3731218282173321
aF0.37312182804589245
aF0.31894888924595793
aF0.3347159518956873
aF0.37482937956955786
aF0.3149242735662974
aF0.3081887259564692
aF0.3112257455902696
aF0.31122574552907634
aF0.30875686852758133
aF0.32385337341300385
aasS'individuals'
p4085
(lp4086
(lp4087
F4.290131360419945
aF7.461136292392104
aF9.87908100822374
aF12.606584226876926
aF1.2000000000000002
aF2.1379201482868258
aF2.2904082235423417
aF1.2000000000000002
aF1.2000000000000008
aF0.0
aF2.8076554131989084
aF10.713246143462994
aF11.697308494700952
aF7.658570424720754
aF7.353104190425411
aF0.4219755090200513
aF0.9028838936086043
aF0.0
aF1.0
aF0.0
aF0.6594271562705167
aa(lp4088
F4.40273489090731
aF7.433515453086177
aF7.872705578258794
aF16.43082180275898
aF1.2000000000000002
aF2.4270585613578968
aF3.777230579725228
aF1.2000000000000008
aF1.200000000000001
aF0.0
aF2.1314655736730064
aF6.709037788897
aF18.314175481777564
aF7.736986390417849
aF7.232419060973903
aF0.40005288522979016
aF0.6867502101205953
aF0.0
aF1.0
aF0.0
aF0.600131777526059
aa(lp4089
F4.402734890907311
aF7.433515453086177
aF5.311376548890559
aF16.43082180275898
aF1.4811894051430319
aF2.4270585613578968
aF3.777230579725228
aF1.2
aF1.200000000000001
aF0.0
aF2.1314655736730064
aF6.709037788897
aF18.314175481777568
aF7.736986390417849
aF7.232419060973905
aF0.4000528852297901
aF0.6867502101205953
aF0.0
aF1.0
aF0.0
aF0.6001317775260588
aa(lp4090
F4.402734890907311
aF7.4335154530861764
aF5.311376548890561
aF16.430821802758985
aF1.4811894051430317
aF2.4270585613578968
aF3.7772305797252277
aF1.2
aF1.2000000000000015
aF0.0
aF2.1314655736730064
aF6.709037788897
aF18.314175481777568
aF7.736986390417848
aF7.232419060973905
aF0.40005288522979016
aF0.6867502101205953
aF0.0
aF1.0
aF0.0
aF0.6001317775260587
aa(lp4091
F4.40273489090731
aF7.433515453086177
aF5.31137654889056
aF16.430821802758985
aF1.4811894051430319
aF2.4270585613578968
aF3.777230579725228
aF1.2
aF1.2000000000000013
aF0.0
aF2.1314655736730064
aF6.709037788897
aF18.314175481777564
aF7.736986390417849
aF7.232419060973905
aF0.40005288522979016
aF0.6867502101205953
aF0.0
aF1.0
aF0.0
aF0.600131777526059
aa(lp4092
F4.40273489090731
aF7.433515453086177
aF7.872705578258794
aF16.430821802758985
aF1.2000000000000004
aF2.4270585613578968
aF3.777230579725228
aF1.2000000000000008
aF1.2000000000000013
aF0.0
aF2.1314655736730064
aF6.709037788897
aF18.314175481777564
aF7.736986390417849
aF7.232419060973905
aF0.40005288522979016
aF0.6867502101205953
aF0.0
aF1.0
aF0.0
aF0.600131777526059
aa(lp4093
F4.358573763131959
aF7.341035872335906
aF9.565524271459662
aF16.466099446221037
aF1.2000000000000002
aF2.4182207831485285
aF4.064795470679951
aF1.2000000000000006
aF1.200000000000001
aF0.0
aF2.855110865594888
aF6.82895063352284
aF16.319770175769488
aF7.7378302995753545
aF8.726175189735248
aF0.40011398697670364
aF0.6885692297067029
aF0.0
aF1.0
aF0.0
aF0.6110469749829692
aa(lp4094
F3.915527800699534
aF7.186599975649325
aF14.969324768122874
aF3.9518506808955287
aF1.2
aF1.9502922676420005
aF3.488051749659978
aF1.2000000000000002
aF1.2000000000000006
aF0.0
aF3.867165175454215
aF8.536041487806196
aF11.981722761084919
aF7.60430372755414
aF6.167163315417864
aF0.37589709679218064
aF0.6998722494638957
aF0.0
aF1.0
aF0.0
aF0.6162677344937655
aa(lp4095
F3.402873304426384
aF9.775256475619758
aF11.454695898554686
aF7.324778000278394
aF1.2
aF1.2
aF4.604431824900344
aF1.2000000000000013
aF1.2
aF0.0
aF4.1758250083716675
aF7.566767574215142
aF12.514345031084714
aF7.8717187122913845
aF6.318117457078994
aF0.4172129006678306
aF0.7419641382951212
aF0.0
aF1.0
aF0.0
aF0.637291518672674
aa(lp4096
F5.142614864264797
aF7.395880898940222
aF13.470888216884418
aF13.087125518631378
aF2.699528376651962
aF1.2
aF4.545872923949262
aF1.2
aF1.2
aF0.0
aF4.196889499502773
aF8.08721648494507
aF12.347346813672107
aF7.837571274312495
aF6.319977252111909
aF0.32018038132877336
aF0.748836263791915
aF0.0
aF1.0
aF0.0
aF0.68719395171489
aa(lp4097
F4.31113630006506
aF7.476467528093818
aF9.138534279957
aF13.821701991724881
aF1.2000000000000002
aF2.1894758619379924
aF3.4137118696368507
aF1.2000000000000002
aF1.200000000000001
aF0.0
aF3.3758276810502674
aF9.351073551622559
aF12.535248218017141
aF7.764378160680588
aF8.634232856387467
aF0.4065019793203746
aF0.6917696240138208
aF0.0
aF1.0
aF0.0
aF0.540590627674252
aa(lp4098
F4.370856683713831
aF7.4245105817273505
aF9.041733342883767
aF15.175207306156718
aF1.2000000000000004
aF2.4832052187264364
aF3.3946998819089096
aF1.2000000000000004
aF1.2000000000000013
aF0.0
aF3.280379046548566
aF7.6288534800953105
aF13.381444785253848
aF7.5510313825420745
aF6.83121554213178
aF0.3976635395133946
aF0.6596624063433233
aF0.0
aF1.0
aF0.0
aF0.5755415162022878
aa(lp4099
F4.330465976126105
aF7.5067441455118225
aF7.765745152320707
aF16.89819568808724
aF1.4951377953464733
aF2.013052409728949
aF4.245486369304163
aF1.2000000000000002
aF1.2000000000000013
aF0.0
aF1.6807800251816656
aF7.455313549802479
aF15.013788308887523
aF7.733517039924597
aF8.291205019627153
aF0.40412295243991236
aF0.6850652508987891
aF0.0
aF1.0
aF0.0
aF0.6545185573062435
aa(lp4100
F4.276055803427387
aF7.485258332610009
aF6.993947304941996
aF13.525412421287708
aF1.2
aF2.2286642567922788
aF5.71096961180725
aF1.2000000000000002
aF1.2000000000000013
aF0.0
aF1.9197783307696712
aF7.990506254043852
aF11.47678086931704
aF7.647894247724571
aF5.393859010726589
aF0.40117473075805377
aF0.701174979628095
aF0.0
aF1.0
aF0.0
aF0.549839468313327
aa(lp4101
F4.139074882761945
aF7.474217602517241
aF8.042196007500639
aF19.104468670064993
aF1.2000000000000002
aF2.2404555677941222
aF4.75313474729823
aF1.2000000000000006
aF1.2000000000000015
aF0.0
aF2.199530055642899
aF8.73247962388032
aF12.544023028385032
aF7.618571548291939
aF5.662365517961771
aF0.3997205290701906
aF0.6926325587016985
aF0.0
aF1.0
aF0.0
aF0.5961467489991912
aa(lp4102
F4.329102420163383
aF7.458480985322032
aF8.038323760912839
aF16.560932600939523
aF1.2000000000000002
aF2.428545467868448
aF3.2667020233248647
aF1.2000000000000006
aF1.2000000000000015
aF0.0
aF3.386566331308142
aF7.079761251384017
aF12.797238425877735
aF7.744711290749866
aF5.550107710992599
aF0.40005051984916173
aF0.6924129930163669
aF0.0
aF1.0
aF0.0
aF0.5908246892904812
aa(lp4103
F4.301414728107127
aF7.495572448102415
aF8.548150802590975
aF14.755799810701953
aF1.2000000000000002
aF2.2135379410674707
aF5.880697604972917
aF1.2000000000000004
aF1.2000000000000013
aF0.0
aF1.3131456420703853
aF7.890518967504562
aF11.323344048388439
aF7.715748915902381
aF6.223569785761443
aF0.40257777327621125
aF0.6820173256113085
aF0.0
aF1.0
aF0.0
aF0.5214495085611901
aa(lp4104
F4.36738457910872
aF7.4220142007922165
aF8.730009027865366
aF17.343440741529292
aF1.2000000000000002
aF2.62760073267818
aF4.861935697344254
aF1.200000000000001
aF1.2000000000000015
aF0.0
aF2.5304544632342454
aF8.70775424708846
aF10.477999019081508
aF7.7783640239266845
aF5.627802012719253
aF0.40262756166631075
aF0.6962697115454597
aF0.0
aF1.0
aF0.0
aF0.5987004135452403
aa(lp4105
F2.7044476976214904
aF4.273048979123548
aF19.047013009399098
aF7.259493745255529
aF1.2
aF6.690658981504384
aF4.464393317188527
aF1.2
aF1.200000000000001
aF0.0
aF5.163318581389741
aF6.620274367715041
aF12.561903193268813
aF7.710063683566507
aF7.260965010443938
aF0.3981595124063652
aF0.743012156669532
aF0.0
aF1.0
aF0.0
aF0.262224511726553
aa(lp4106
F4.274802126823857
aF7.54667374202049
aF7.54138519559973
aF14.168190217090029
aF1.2000000000000002
aF2.0626319522212806
aF3.383357175351588
aF1.2000000000000002
aF1.200000000000001
aF0.0
aF3.3766247026251555
aF8.768260789630292
aF11.416311905492792
aF7.770192272084761
aF6.562230366802228
aF0.4019546998301376
aF0.689220852450087
aF0.0
aF1.0
aF0.0
aF0.5111413422556506
aa(lp4107
F4.3359434297176325
aF7.482431853389418
aF7.676544324347015
aF14.446351514615447
aF1.2000000000000002
aF2.379957811804077
aF3.6641564554468498
aF1.2000000000000002
aF1.2000000000000015
aF0.0
aF2.7434851055319283
aF7.807972420366098
aF9.78465969487103
aF7.64722971605642
aF5.735261511799422
aF0.40019755307446553
aF0.690562449671446
aF0.0
aF1.0
aF0.0
aF0.6225741484949747
aa(lp4108
F3.7203229548917554
aF4.932832763965405
aF9.602117110047148
aF10.20677718313642
aF1.2204679425873668
aF1.2000000000000002
aF4.244606307129056
aF1.2000000000000015
aF1.200000000000002
aF0.0
aF3.9468035239022248
aF6.880207647448403
aF12.592617157711999
aF7.871839163282789
aF7.169921097087652
aF0.411463061779652
aF0.7426139519996999
aF0.0
aF1.0
aF0.0
aF0.2959474282543454
aa(lp4109
F3.7203229548917554
aF4.932832763965406
aF9.602117110047148
aF10.20677718313642
aF1.2204679425873668
aF1.2000000000000002
aF4.2446063071290565
aF1.2000000000000015
aF1.2000000000000017
aF0.0
aF3.946803523902225
aF6.880207647448403
aF12.592617157711999
aF7.871839163282789
aF7.169921097087652
aF0.411463061779652
aF0.7426139519996999
aF0.0
aF1.0
aF0.0
aF0.29594742825434545
aa(lp4110
F4.353768861073371
aF7.497079862116429
aF8.05750802676742
aF19.05910988489589
aF1.2000000000000002
aF1.8443988951915022
aF3.336906514726338
aF1.2000000000000006
aF1.2000000000000015
aF0.0
aF3.374562183281016
aF9.885987622957296
aF12.649162552855891
aF7.756580307255046
aF10.921064894929238
aF0.4107837441071817
aF0.6926845139719524
aF0.0
aF1.0
aF0.0
aF0.5460210796414723
aa(lp4111
F4.302118534085176
aF7.628673821577178
aF12.854104295494697
aF2.6494201747068002
aF2.1544091638880754
aF1.7005811994267765
aF3.093255460970026
aF1.2000000000000002
aF1.200000000000002
aF0.0
aF4.569723740520194
aF7.319396476204432
aF9.363951806475878
aF7.4146452805313245
aF5.515074115809849
aF0.3838771085252047
aF0.785482459318314
aF0.0
aF1.0
aF0.0
aF0.6128641903070696
aa(lp4112
F4.222926345920845
aF7.507763305739179
aF7.680759972077782
aF14.430397403524431
aF1.2000000000000002
aF2.305577778496246
aF3.2950831496540047
aF1.2000000000000004
aF1.2000000000000015
aF0.0
aF1.5737792828866404
aF7.857268387076317
aF9.35497827304256
aF7.69520881861677
aF5.749235493616715
aF0.4001971507963651
aF0.692558620775721
aF0.0
aF1.0
aF0.0
aF0.5859296337104426
aa(lp4113
F4.16697365045574
aF7.458105608205731
aF7.939989292335976
aF18.78440943936831
aF1.2000000000000002
aF2.2508906694935282
aF4.777877961034399
aF1.2
aF1.2000000000000017
aF0.0
aF1.2
aF7.259120977514257
aF12.923670066673244
aF7.612419110953036
aF5.806735782112998
aF0.4000865383586607
aF0.6925530802055274
aF0.0
aF1.0
aF0.0
aF0.509653240560823
aa(lp4114
F4.955932360923555
aF7.336957965266096
aF13.78739233590292
aF2.9397171683564
aF4.901774251925412
aF1.417403029710015
aF4.035237824141606
aF1.2000000000000002
aF1.2000000000000008
aF0.0
aF4.050809534175967
aF7.405660769337468
aF8.029588423785246
aF7.808372049670137
aF5.986467576590393
aF0.3819666736037264
aF0.7502761824293003
aF0.0
aF1.0
aF0.0
aF0.6127155930181272
aa(lp4115
F4.217260197260085
aF7.5376605656620175
aF7.759470218374957
aF1.2
aF1.2000000000000002
aF2.3672000917418954
aF3.152047031936601
aF1.2000000000000006
aF1.2000000000000015
aF0.0
aF2.6559655227698284
aF7.701008258602577
aF10.199590186874907
aF7.638112031274326
aF5.748989867351888
aF0.3970536621264854
aF0.7136927691405317
aF0.0
aF1.0
aF0.0
aF0.5882482909288747
aa(lp4116
F3.96610666773716
aF11.1222346675808
aF2.929294898410495
aF8.141070259755748
aF1.2283845039170551
aF1.2
aF4.12625086497602
aF1.200000000000002
aF1.2000000000000017
aF0.0
aF4.062206952149076
aF6.764482564485721
aF12.010433304250531
aF7.774256786754086
aF7.65665821988469
aF0.4006670289579968
aF0.7093892170109153
aF0.0
aF1.0
aF0.0
aF0.28854604640906045
aa(lp4117
F4.278462700821046
aF7.441983645107851
aF7.558797522057812
aF16.10508315339245
aF1.2000000000000002
aF2.1654524773265025
aF5.237263108459947
aF1.2000000000000004
aF1.2000000000000022
aF0.0
aF4.788456962919279
aF8.332013734007184
aF9.319580077668451
aF7.73283756719203
aF8.486111672852418
aF0.3997574228498856
aF0.6914154886280732
aF0.0
aF1.0
aF0.0
aF0.4338432132051133
aa(lp4118
F4.290136709605759
aF7.481641557071666
aF7.889673059923937
aF16.369653455268388
aF1.2000000000000002
aF2.425546018919036
aF3.2954941093043675
aF1.2000000000000004
aF1.200000000000002
aF0.0
aF4.733085562767257
aF7.443821492846356
aF10.581065278010438
aF7.733214222176933
aF8.218064714295256
aF0.40004793451020665
aF0.6950727184707406
aF0.0
aF1.0
aF0.0
aF0.5818388838678203
aa(lp4119
F3.7203229548917554
aF4.932832763965406
aF9.602117110047148
aF10.20677718313642
aF1.2204679425873668
aF1.2000000000000002
aF4.2446063071290565
aF1.2000000000000015
aF1.2
aF0.0
aF3.946803523902225
aF6.880207647448403
aF10.668814603258378
aF7.871839163282789
aF7.169921097087652
aF0.411463061779652
aF0.7426139519996999
aF0.0
aF1.0
aF0.0
aF0.4646867146819961
aa(lp4120
F3.2983906432913117
aF11.737267846792665
aF6.731121564427658
aF9.292445680644985
aF1.2
aF3.5115774189243893
aF4.450732343117402
aF1.2000000000000017
aF1.2000000000000015
aF0.0
aF3.8322431534711994
aF8.911464067338771
aF8.198791644407972
aF8.02650367519865
aF8.123144709431099
aF0.3886951946285698
aF0.8134706093671727
aF0.0
aF1.0
aF0.0
aF0.3156549450997449
aa(lp4121
F4.3502585584409985
aF7.5541716403184305
aF8.769519548963435
aF15.571179650304611
aF1.2000000000000002
aF1.7888100850699498
aF3.376276997816571
aF1.2
aF1.200000000000001
aF0.0
aF3.357194833190002
aF9.299276720715449
aF8.65370163026936
aF7.763814830370405
aF7.656821939707213
aF0.40346416050617506
aF0.6915405010847657
aF0.0
aF1.0
aF0.0
aF0.5106223306406651
aa(lp4122
F4.210637185756494
aF11.149077279388365
aF9.839088522235683
aF8.121834988406908
aF1.2184011050480195
aF1.2000000000000002
aF4.408576065167953
aF1.200000000000002
aF1.2000000000000015
aF0.0
aF4.2223647333615055
aF6.823865931085008
aF11.713846483558461
aF7.726969049623028
aF6.706447119738355
aF0.426028152542854
aF0.7652561854417788
aF0.0
aF1.0
aF0.0
aF0.28239536307047186
aa(lp4123
F4.335785329991461
aF6.874795443991339
aF9.550779356096697
aF14.364123417102828
aF1.2000000000000002
aF2.0008892510769183
aF3.5807919250405416
aF1.2
aF1.2000000000000017
aF0.0
aF1.8574304884130823
aF5.475591281394873
aF10.154842838172986
aF7.763907752101758
aF7.482370556200922
aF0.3910806870714425
aF0.6962068780859255
aF0.0
aF1.0
aF0.0
aF0.4873063286101391
aa(lp4124
F4.1539644084882585
aF7.4581688192105515
aF13.816777079623025
aF1.2
aF5.30255982237197
aF1.2
aF2.5053212177186817
aF1.2000000000000004
aF1.200000000000002
aF0.0
aF3.987393708837092
aF7.157530184261404
aF7.005274474922925
aF7.780790505249368
aF6.321240429459597
aF0.3736048453260359
aF0.7620748362150818
aF0.0
aF1.0
aF0.0
aF0.5576230968899089
aa(lp4125
F4.1539644084882585
aF7.4581688192105515
aF13.816777079623025
aF1.2
aF2.1953854220770523
aF1.2
aF2.5053212177186817
aF1.2000000000000004
aF1.200000000000002
aF0.0
aF3.987393708837092
aF7.157530184261404
aF7.005274474922925
aF7.780790505249368
aF6.321240429459597
aF0.3736048453260359
aF0.7620748362150818
aF0.0
aF1.0
aF0.0
aF0.5576230968899089
aa(lp4126
F4.309076743577596
aF7.410702040456256
aF8.847697877410502
aF16.897116224985655
aF1.2000000000000002
aF2.6445873732995544
aF4.212421024637058
aF1.2000000000000004
aF1.2000000000000015
aF0.0
aF4.689983168288757
aF6.498043701730464
aF10.046015002046753
aF7.7282979751551295
aF7.1174552609859685
aF0.4003208174083974
aF0.6876916936638962
aF0.0
aF1.0
aF0.0
aF0.46601612669904297
aa(lp4127
F3.2983906432913117
aF11.737267846792665
aF6.731121564427658
aF9.292445680644985
aF1.2
aF1.7730354371589783
aF4.450732343117402
aF1.2000000000000017
aF1.2000000000000015
aF0.0
aF2.543473716643237
aF8.911464067338771
aF8.198791644407972
aF8.02650367519865
aF9.931366781475786
aF0.3886951946285698
aF0.8134706093671727
aF0.0
aF1.0
aF0.0
aF0.3156549450997449
aa(lp4128
F4.33578532999146
aF7.471541379426375
aF9.550779356096697
aF12.208374574145346
aF1.2000000000000002
aF2.0008892510769183
aF3.5807919250405416
aF1.2000000000000008
aF1.2000000000000017
aF0.0
aF1.8574304884130826
aF5.475591281394873
aF10.154842838172984
aF7.763907752101758
aF8.031134075238894
aF0.3910806870714425
aF0.6962068780859255
aF0.0
aF1.0
aF0.0
aF0.4873063286101392
aa(lp4129
F4.335785329991461
aF7.471541379426376
aF9.550779356096697
aF12.208374574145344
aF1.2000000000000002
aF2.0008892510769183
aF3.5807919250405416
aF1.2000000000000006
aF1.2000000000000017
aF0.0
aF1.8574304884130823
aF5.475591281394873
aF10.154842838172986
aF7.763907752101758
aF8.031134075238892
aF0.3910806870714425
aF0.6962068780859255
aF0.0
aF1.0
aF0.0
aF0.4873063286101391
aa(lp4130
F2.477292193008541
aF1.2
aF9.692501925054408
aF24.162375479033088
aF1.2
aF6.219481480199757
aF3.5673097933674356
aF1.2
aF1.2000000000000008
aF0.0
aF7.277358505700371
aF0.0
aF18.03620233638424
aF8.383602672379208
aF7.94589757022829
aF0.22915498344032117
aF0.6946943899823801
aF0.0
aF1.0
aF0.0
aF0.5981078358075643
aa(lp4131
F4.299031498969958
aF7.501290004215107
aF8.55619911536023
aF17.691501212597768
aF1.2000000000000002
aF1.9556604284065227
aF2.6853686076326966
aF1.2000000000000004
aF1.2000000000000013
aF0.0
aF4.109692276799126
aF7.765703602453042
aF6.064996593741257
aF7.592941340002276
aF6.87704791532018
aF0.3958922178667331
aF0.7779267970001841
aF0.0
aF1.0
aF0.0
aF0.6145915851073027
aa(lp4132
F2.83466678554103
aF7.501290004215107
aF8.55619911536023
aF17.691501212597768
aF1.2000000000000002
aF1.9556604284065227
aF2.6853686076326966
aF1.2000000000000004
aF1.2000000000000013
aF0.0
aF4.109692276799126
aF7.765703602453042
aF6.064996593741257
aF7.592941340002276
aF6.87704791532018
aF0.3958922178667331
aF0.7779267970001841
aF0.0
aF1.0
aF0.0
aF0.6145915851073027
aa(lp4133
F7.736645157724108
aF6.234015389046799
aF1.2
aF6.199301421403738
aF1.2
aF4.317676098392534
aF5.415057997996214
aF1.2000000000000002
aF1.2000000000000004
aF0.0
aF5.869195952716474
aF8.501445107077389
aF12.559641578465401
aF7.727519429799889
aF6.013408738591638
aF0.39810901099057444
aF0.6941175442683439
aF0.0
aF1.0
aF0.0
aF0.7866777007871351
aa(lp4134
F7.6543384392933955
aF2.533824272028606
aF1.2
aF6.341838412666978
aF1.2000000000000002
aF4.6357151335526465
aF4.524180703792406
aF1.2000000000000002
aF1.2000000000000004
aF0.0
aF2.834816152917262
aF5.85719823206607
aF12.59992106694682
aF7.816062066060993
aF5.846865767171108
aF0.3100790714864369
aF0.6943050843509664
aF0.0
aF1.0
aF0.0
aF0.6672616265046747
aa(lp4135
F7.6531313525795115
aF1.482097469282627
aF1.2
aF6.354002008207439
aF1.2000000000000002
aF4.239489436679635
aF3.445821272808198
aF1.2000000000000002
aF1.2000000000000006
aF0.0
aF6.772418720450954
aF3.3281151047648794
aF12.618159937851019
aF8.049615539548821
aF6.001722722155823
aF0.2893204348792066
aF0.6945360500671807
aF0.0
aF1.0
aF0.0
aF0.6030380418115958
aa(lp4136
F7.653131352579512
aF1.482097469282627
aF1.2
aF6.354002008207438
aF1.2000000000000002
aF4.239489436679635
aF3.445821272808198
aF1.2000000000000002
aF1.2000000000000008
aF0.0
aF6.772418720450954
aF3.32811510476488
aF12.618159937851019
aF8.049615539548821
aF6.001722722155823
aF0.28932043487920656
aF0.6945360500671807
aF0.0
aF1.0
aF0.0
aF0.6030380418115958
aa(lp4137
F8.92833186921499
aF9.773375168529398
aF4.121269769026292
aF1.2
aF1.2
aF1.2
aF1.4461924527881096
aF1.2000000000000006
aF1.2000000000000022
aF0.0
aF1.5773141194455558
aF8.13275627167081
aF6.838699770656678
aF8.113183051163217
aF5.854859991813509
aF0.30615111112118787
aF0.6918055260624525
aF0.0
aF1.0
aF0.0
aF0.659511045244616
aa(lp4138
F6.2982118402183715
aF7.515160743342268
aF4.7648347341419495
aF1.8139201219972763
aF8.63590103343287
aF1.2
aF6.377312665463409
aF1.2
aF1.2
aF0.0
aF3.4479502976771594
aF8.403248853602536
aF4.893642310668916
aF7.628104913245517
aF5.455668286799464
aF0.38613119988151706
aF0.6938906624507953
aF0.0
aF1.0
aF0.0
aF0.48459119708687465
aasS'measure_names_units'
p4139
(lp4140
(g242
g243
tp4141
a(g245
g246
tp4142
a(g248
g249
tp4143
asbsS'dev_dv_list'
p4144
(lp4145
(lp4146
g1501
ag1320
aa(lp4147
g1100
ag1250
aa(lp4148
g1142
ag1202
aa(lp4149
g418
ag802
aa(lp4150
g548
ag462
aa(lp4151
g624
ag756
aasS'tol_constraints'
p4152
(lp4153
sS'bondwires'
p4154
(lp4155
g449
ag740
ag425
ag1129
ag1234
ag629
ag1325
ag1207
ag1105
ag553
ag1084
ag1506
ag761
ag807
ag467
ag502
ag1255
ag1147
ag1404
ag1530
ag1304
ag532
ag608
ag837
asS'v_design_var_dict'
p4156
Nsbsb.