ccopy_reg
_reconstructor
p0
(cpowercad.thermal.elmer_characterize
CachedCharacterization
p1
c__builtin__
object
p2
Ntp3
Rp4
(dp5
S'sublayer_tf'
p6
(ipowercad.thermal.fast_thermal
SublayerThermalFeatures
p7
(dp8
S't_amb'
p9
F300.0
sS'sub_res'
p10
cnumpy.core.multiarray
scalar
p11
(cnumpy
dtype
p12
(S'f8'
p13
I0
I1
tp14
Rp15
(I3
S'<'
p16
NNNI-1
I-1
I0
tp17
bS'\xa0;\xb2\xebBO&@'
p18
tp19
Rp20
sS'metal_thickness'
p21
F0.41
sS'metal_cond'
p22
F200.0
sbsS'materials'
p23
(lp24
(F9700.0
F190.0
tp25
a(F11020.0
F35.8
tp26
a(F2710.0
F200.0
tp27
a(F3250.0
F160.0
tp28
a(F2710.0
F200.0
tp29
a(F11020.0
F35.8
tp30
a(F8940.0
F3.69
tp31
asS'thermal_features'
p32
(ipowercad.thermal.fast_thermal
DieThermalFeatures
p33
(dp34
S'eff_power'
p35
F0.9624273422289196
sS'iso_top_temps'
p36
(lp37
(ipowercad.thermal.fast_thermal
ContourRect
p38
(dp39
S'width'
p40
F6.82
sS'avg_val'
p41
F11.410202088661483
sS'height'
p42
F6.474474474474475
sba(ipowercad.thermal.fast_thermal
ContourRect
p43
(dp44
g40
F9.173333333333334
sg41
F11.27804816544481
sg42
F8.8008008008008
sba(ipowercad.thermal.fast_thermal
ContourRect
p45
(dp46
g40
F11.526666666666667
sg41
F11.214087372990939
sg42
F11.21121121121121
sba(ipowercad.thermal.fast_thermal
ContourRect
p47
(dp48
g40
F13.88
sg41
F11.177800310971717
sg42
F13.621621621621621
sba(ipowercad.thermal.fast_thermal
ContourRect
p49
(dp50
g40
F16.233333333333334
sg41
F11.154399901840048
sg42
F16.004004004004003
sba(ipowercad.thermal.fast_thermal
ContourRect
p51
(dp52
g40
F18.586666666666666
sg41
F11.13821975305864
sg42
F18.35835835835836
sba(ipowercad.thermal.fast_thermal
ContourRect
p53
(dp54
g40
F20.94
sg41
F11.126645920700826
sg42
F20.684684684684683
sba(ipowercad.thermal.fast_thermal
ContourRect
p55
(dp56
g40
F23.293333333333337
sg41
F11.118462079338942
sg42
F22.954954954954953
sba(ipowercad.thermal.fast_thermal
ContourRect
p57
(dp58
g40
F25.64666666666667
sg41
F11.112436369038186
sg42
F25.365365365365363
sba(ipowercad.thermal.fast_thermal
ContourRect
p59
(dp60
g40
F28.0
sg41
F11.107919382011444
sg42
F27.01901901901902
sbasS'iso_top_avg_temp'
p61
F11.154807439333863
sS'die_power'
p62
F1.0
sS'die_res'
p63
F5.070669039902688
sS'self_temp'
p64
F11.410202088661483
sS'iso_top_fluxes'
p65
(lp66
(ipowercad.thermal.fast_thermal
ContourRect
p67
(dp68
g40
F6.82
sg41
F0.016450425686936637
sg42
F6.138138138138138
sba(ipowercad.thermal.fast_thermal
ContourRect
p69
(dp70
g40
F7.903616950283617
sg41
F0.00701138642651864
sg42
F7.231231231231231
sba(ipowercad.thermal.fast_thermal
ContourRect
p71
(dp72
g40
F8.987233900567233
sg41
F0.0029403425266724343
sg42
F8.268268268268269
sba(ipowercad.thermal.fast_thermal
ContourRect
p73
(dp74
g40
F10.070850850850851
sg41
F0.001247424267310946
sg42
F10.006006006006006
sba(ipowercad.thermal.fast_thermal
ContourRect
p75
(dp76
g40
F11.154467801134468
sg41
F0.0007065219359483025
sg42
F11.21121121121121
sba(ipowercad.thermal.fast_thermal
ContourRect
p77
(dp78
g40
F12.238084751418084
sg41
F0.0005207235711928476
sg42
F11.603603603603604
sba(ipowercad.thermal.fast_thermal
ContourRect
p79
(dp80
g40
F13.321701701701702
sg41
F0.0003933536373315614
sg42
F12.332332332332332
sba(ipowercad.thermal.fast_thermal
ContourRect
p81
(dp82
g40
F14.405318651985318
sg41
F0.00019360869140834129
sg42
F24.496496496496498
sba(ipowercad.thermal.fast_thermal
ContourRect
p83
(dp84
g40
F15.488935602268935
sg41
F0.00018992444590514647
sg42
F25.113113113113112
sba(ipowercad.thermal.fast_thermal
ContourRect
p85
(dp86
g40
F16.57255255255255
sg41
F0.00015921925244024928
sg42
F25.365365365365363
sbasbsS'conv_coeff'
p87
F100.0
sS'dimensions'
p88
(lp89
cnumpy.core.multiarray
_reconstruct
p90
(cnumpy
ndarray
p91
(I0
tp92
S'b'
p93
tp94
Rp95
(I1
(I7
tp96
g15
I00
S'\xb8\x1e\x85\xebQ\xb8\x9e?y\xe9&1\x08\xac\x9c?y\xe9&1\x08\xac\x9c?y\xe9&1\x08\xac\x9c?\xfa~j\xbct\x93\x98?\xc9\xeaV\xcfI\xef{?\xc9\xeaV\xcfI\xef{?'
p97
tp98
bag90
(g91
(I0
tp99
g93
tp100
Rp101
(I1
(I7
tp102
g15
I00
S'\xb8\x1e\x85\xebQ\xb8\x9e?y\xe9&1\x08\xac\x9c?y\xe9&1\x08\xac\x9c?y\xe9&1\x08\xac\x9c?\xfa~j\xbct\x93\x98?\xa6\nF%u\x02z?\xa6\nF%u\x02z?'
p103
tp104
bag90
(g91
(I0
tp105
g93
tp106
Rp107
(I1
(I7
tp108
g15
I00
S'{\x14\xaeG\xe1zt?\xf1h\xe3\x88\xb5\xf8\x14?t^c\x97\xa8\xde:?\xf1h\xe3\x88\xb5\xf8D?t^c\x97\xa8\xde:?-C\x1c\xeb\xe26\x1a?-C\x1c\xeb\xe26J?'
p109
tp110
bag90
(g91
(I0
tp111
g93
tp112
Rp113
(I1
(I7
tp114
g15
I00
S'\xfc\xa9\xf1\xd2MbP?\xb4\xa3K\x12^\x95N?\xb4\xa3K\x12^\x95N?\xb4\xa3K\x12^\x95N?\xb4\xa3K\x12^\x95N?\x1f\xa2\xd1\x1d\xc4\xceD?\x1f\xa2\xd1\x1d\xc4\xceD?'
p115
tp116
basb.