ccopy_reg
_reconstructor
p0
(cpowercad.thermal.elmer_characterize
CachedCharacterization
p1
c__builtin__
object
p2
Ntp3
Rp4
(dp5
S'sublayer_tf'
p6
(ipowercad.thermal.fast_thermal
SublayerThermalFeatures
p7
(dp8
S't_amb'
p9
F300.0
sS'sub_res'
p10
cnumpy.core.multiarray
scalar
p11
(cnumpy
dtype
p12
(S'f8'
p13
I0
I1
tp14
Rp15
(I3
S'<'
p16
NNNI-1
I-1
I0
tp17
bS'\xdaXI\x01(\x0f\x10@'
p18
tp19
Rp20
sS'metal_thickness'
p21
F0.2
sS'metal_cond'
p22
F400.0
sbsS'materials'
p23
(lp24
(F9700.0
F190.0
tp25
a(F11020.0
F35.8
tp26
a(F8020.0
F400.0
tp27
a(F3250.0
F160.0
tp28
a(F8020.0
F400.0
tp29
a(F11020.0
F35.8
tp30
a(F3200.0
F120.0
tp31
asS'thermal_features'
p32
(ipowercad.thermal.fast_thermal
DieThermalFeatures
p33
(dp34
S'eff_power'
p35
F0.9129883592006802
sS'iso_top_temps'
p36
(lp37
(ipowercad.thermal.fast_thermal
ContourRect
p38
(dp39
S'width'
p40
F3.08
sS'avg_val'
p41
F4.623492945308715
sS'height'
p42
F3.123123123123123
sba(ipowercad.thermal.fast_thermal
ContourRect
p43
(dp44
g40
F8.071111111111112
sg41
F4.2784119949308925
sg42
F7.975975975975976
sba(ipowercad.thermal.fast_thermal
ContourRect
p45
(dp46
g40
F13.062222222222223
sg41
F4.132624547211676
sg42
F13.117117117117116
sba(ipowercad.thermal.fast_thermal
ContourRect
p47
(dp48
g40
F18.053333333333335
sg41
F4.074246347913272
sg42
F18.01801801801802
sba(ipowercad.thermal.fast_thermal
ContourRect
p49
(dp50
g40
F23.044444444444444
sg41
F4.040288660722982
sg42
F22.966966966966968
sba(ipowercad.thermal.fast_thermal
ContourRect
p51
(dp52
g40
F28.035555555555554
sg41
F4.017021581537096
sg42
F28.01201201201201
sba(ipowercad.thermal.fast_thermal
ContourRect
p53
(dp54
g40
F33.02666666666667
sg41
F4.000542554168273
sg42
F33.009009009009006
sba(ipowercad.thermal.fast_thermal
ContourRect
p55
(dp56
g40
F38.01777777777778
sg41
F3.9890366673469773
sg42
F38.006006006006004
sba(ipowercad.thermal.fast_thermal
ContourRect
p57
(dp58
g40
F43.00888888888889
sg41
F3.981360536322022
sg42
F42.906906906906904
sba(ipowercad.thermal.fast_thermal
ContourRect
p59
(dp60
g40
F48.0
sg41
F3.97657712493841
sg42
F48.0
sbasS'iso_top_avg_temp'
p61
F4.014802805701425
sS'die_power'
p62
F1.0
sS'die_res'
p63
F0.6256285583627237
sS'self_temp'
p64
F4.623492945308715
sS'iso_top_fluxes'
p65
(lp66
(ipowercad.thermal.fast_thermal
ContourRect
p67
(dp68
g40
F3.08
sg41
F0.05875659295421361
sg42
F2.8828828828828827
sba(ipowercad.thermal.fast_thermal
ContourRect
p69
(dp70
g40
F3.599595150706262
sg41
F0.03408956801288072
sg42
F3.4114114114114114
sba(ipowercad.thermal.fast_thermal
ContourRect
p71
(dp72
g40
F4.119190301412524
sg41
F0.023471736479687158
sg42
F3.987987987987988
sba(ipowercad.thermal.fast_thermal
ContourRect
p73
(dp74
g40
F4.6387854521187855
sg41
F0.01512004691935477
sg42
F4.468468468468468
sba(ipowercad.thermal.fast_thermal
ContourRect
p75
(dp76
g40
F5.158380602825048
sg41
F0.008856263074409135
sg42
F4.996996996996997
sba(ipowercad.thermal.fast_thermal
ContourRect
p77
(dp78
g40
F5.677975753531309
sg41
F0.004470068018322354
sg42
F5.525525525525525
sba(ipowercad.thermal.fast_thermal
ContourRect
p79
(dp80
g40
F6.197570904237571
sg41
F0.001963850822523145
sg42
F6.006006006006006
sba(ipowercad.thermal.fast_thermal
ContourRect
p81
(dp82
g40
F6.717166054943833
sg41
F0.0007528067175552781
sg42
F6.438438438438438
sba(ipowercad.thermal.fast_thermal
ContourRect
p83
(dp84
g40
F7.236761205650095
sg41
F0.00046255136647761834
sg42
F11.435435435435435
sba(ipowercad.thermal.fast_thermal
ContourRect
p85
(dp86
g40
F7.756356356356356
sg41
F0.00019368229871676807
sg42
F16.624624624624623
sbasbsS'conv_coeff'
p87
F100.0
sS'dimensions'
p88
(lp89
cnumpy.core.multiarray
_reconstruct
p90
(cnumpy
ndarray
p91
(I0
tp92
S'b'
p93
tp94
Rp95
(I1
(I7
tp96
g15
I00
S'\x9a\x99\x99\x99\x99\x99\xa9?\xfa~j\xbct\x93\xa8?\xfa~j\xbct\x93\xa8?\xfa~j\xbct\x93\xa8?\xbaI\x0c\x02+\x87\xa6?B\x9a\xb1h:;i?B\x9a\xb1h:;i?'
p97
tp98
bag90
(g91
(I0
tp99
g93
tp100
Rp101
(I1
(I7
tp102
g15
I00
S'\x9a\x99\x99\x99\x99\x99\xa9?\xfa~j\xbct\x93\xa8?\xfa~j\xbct\x93\xa8?\xfa~j\xbct\x93\xa8?\xbaI\x0c\x02+\x87\xa6?B\x9a\xb1h:;i?B\x9a\xb1h:;i?'
p103
tp104
bag90
(g91
(I0
tp105
g93
tp106
Rp107
(I1
(I7
tp108
g15
I00
S'{\x14\xaeG\xe1zt?-C\x1c\xeb\xe26\x1a?-C\x1c\xeb\xe26*?\xfc\xa9\xf1\xd2Mb@?-C\x1c\xeb\xe26*?-C\x1c\xeb\xe26\x1a?\xd5\xea\xab\xab\x02\xb58?'
p109
tp110
bag90
(g91
(I0
tp111
g93
tp112
Rp113
(I1
(I7
tp114
g15
I00
S'O\x1b\xe8\xb4\x81N[?-C\x1c\xeb\xe26Z?-C\x1c\xeb\xe26Z?-C\x1c\xeb\xe26Z?-C\x1c\xeb\xe26Z?\xce\xe1Z\xeda/4?\xce\xe1Z\xeda/4?'
p115
tp116
basb.