ccopy_reg
_reconstructor
p0
(cpowercad.thermal.elmer_characterize
CachedCharacterization
p1
c__builtin__
object
p2
Ntp3
Rp4
(dp5
S'sublayer_tf'
p6
(ipowercad.thermal.fast_thermal
SublayerThermalFeatures
p7
(dp8
S't_amb'
p9
F300.0
sS'sub_res'
p10
cnumpy.core.multiarray
scalar
p11
(cnumpy
dtype
p12
(S'f8'
p13
I0
I1
tp14
Rp15
(I3
S'<'
p16
NNNI-1
I-1
I0
tp17
bS'\r<\x9fq^\xcd\x00@'
p18
tp19
Rp20
sS'metal_thickness'
p21
F0.41
sS'metal_cond'
p22
F200.0
sbsS'materials'
p23
(lp24
(F9700.0
F190.0
tp25
a(F11020.0
F35.8
tp26
a(F2710.0
F200.0
tp27
a(F3250.0
F160.0
tp28
a(F2710.0
F200.0
tp29
a(F7440.0
F62.0
tp30
a(F3200.0
F120.0
tp31
asS'thermal_features'
p32
(ipowercad.thermal.fast_thermal
DieThermalFeatures
p33
(dp34
S'eff_power'
p35
F8.53269051022174
sS'iso_top_temps'
p36
(lp37
(ipowercad.thermal.fast_thermal
ContourRect
p38
(dp39
S'width'
p40
F3.0830830830830833
sS'avg_val'
p41
F27.488638712585576
sS'height'
p42
F3.1
sba(ipowercad.thermal.fast_thermal
ContourRect
p43
(dp44
g40
F8.338338338338339
sg41
F23.83668593207613
sg42
F8.311111111111112
sba(ipowercad.thermal.fast_thermal
ContourRect
p45
(dp46
g40
F13.313313313313314
sg41
F22.359993591762006
sg42
F13.522222222222222
sba(ipowercad.thermal.fast_thermal
ContourRect
p47
(dp48
g40
F18.21821821821822
sg41
F21.80738661704648
sg42
F18.733333333333334
sba(ipowercad.thermal.fast_thermal
ContourRect
p49
(dp50
g40
F22.912912912912915
sg41
F21.491144077881287
sg42
F23.944444444444446
sba(ipowercad.thermal.fast_thermal
ContourRect
p51
(dp52
g40
F27.32732732732733
sg41
F21.276109967172946
sg42
F29.15555555555556
sba(ipowercad.thermal.fast_thermal
ContourRect
p53
(dp54
g40
F31.25125125125125
sg41
F21.120120169096026
sg42
F34.36666666666667
sba(ipowercad.thermal.fast_thermal
ContourRect
p55
(dp56
g40
F34.68468468468468
sg41
F21.005323137954917
sg42
F39.57777777777778
sba(ipowercad.thermal.fast_thermal
ContourRect
p57
(dp58
g40
F37.20720720720721
sg41
F20.924321302787142
sg42
F44.78888888888889
sba(ipowercad.thermal.fast_thermal
ContourRect
p59
(dp60
g40
F38.95895895895896
sg41
F20.871171000045187
sg42
F50.0
sbasS'iso_top_avg_temp'
p61
F21.00277793571429
sS'die_power'
p62
F10.0
sS'die_res'
p63
F0.45077931813858774
sS'self_temp'
p64
F27.468709750723516
sS'iso_top_fluxes'
p65
(lp66
(ipowercad.thermal.fast_thermal
ContourRect
p67
(dp68
g40
F3.1531531531531534
sg41
F0.5032868478671167
sg42
F3.1
sba(ipowercad.thermal.fast_thermal
ContourRect
p69
(dp70
g40
F3.7137137137137137
sg41
F0.2776687338712942
sg42
F3.6320653987320655
sba(ipowercad.thermal.fast_thermal
ContourRect
p71
(dp72
g40
F4.2742742742742745
sg41
F0.1883875045321743
sg42
F4.16413079746413
sba(ipowercad.thermal.fast_thermal
ContourRect
p73
(dp74
g40
F4.904904904904905
sg41
F0.11645075753526714
sg42
F4.696196196196196
sba(ipowercad.thermal.fast_thermal
ContourRect
p75
(dp76
g40
F5.535535535535535
sg41
F0.06581813951063453
sg42
F5.228261594928261
sba(ipowercad.thermal.fast_thermal
ContourRect
p77
(dp78
g40
F6.306306306306307
sg41
F0.032569444939858264
sg42
F5.7603269936603265
sba(ipowercad.thermal.fast_thermal
ContourRect
p79
(dp80
g40
F7.147147147147147
sg41
F0.014784620821960467
sg42
F6.292392392392392
sba(ipowercad.thermal.fast_thermal
ContourRect
p81
(dp82
g40
F8.618618618618619
sg41
F0.008667486707813093
sg42
F6.824457791124457
sba(ipowercad.thermal.fast_thermal
ContourRect
p83
(dp84
g40
F11.351351351351353
sg41
F0.008201986640315307
sg42
F7.356523189856523
sba(ipowercad.thermal.fast_thermal
ContourRect
p85
(dp86
g40
F12.332332332332333
sg41
F0.0058550551642364826
sg42
F7.888588588588588
sbasbsS'conv_coeff'
p87
F100.0
sS'dimensions'
p88
(lp89
cnumpy.core.multiarray
_reconstruct
p90
(cnumpy
ndarray
p91
(I0
tp92
S'b'
p93
tp94
Rp95
(I1
(I7
tp96
g15
I00
S'{\x14\xaeG\xe1z\xb4?\xecQ\xb8\x1e\x85\xeb\xb1?\xecQ\xb8\x1e\x85\xeb\xb1?\xecQ\xb8\x1e\x85\xeb\xb1?L7\x89A`\xe5\xb0?\x14a\xc3\xd3+ei?\x14a\xc3\xd3+ei?'
p97
tp98
bag90
(g91
(I0
tp99
g93
tp100
Rp101
(I1
(I7
tp102
g15
I00
S'\xb8\x1e\x85\xebQ\xb8\xae?\x9a\x99\x99\x99\x99\x99\xa9?\x9a\x99\x99\x99\x99\x99\xa9?\x9a\x99\x99\x99\x99\x99\xa9?Zd;\xdfO\x8d\xa7?\x14a\xc3\xd3+ei?\x14a\xc3\xd3+ei?'
p103
tp104
bag90
(g91
(I0
tp105
g93
tp106
Rp107
(I1
(I7
tp108
g15
I00
S'\xfa~j\xbct\x93x?\xf1h\xe3\x88\xb5\xf8\x14?t^c\x97\xa8\xde:?\xf1h\xe3\x88\xb5\xf8D?t^c\x97\xa8\xde:?\xf1h\xe3\x88\xb5\xf8\x14?\xb2c#\x10\xaf\xeb7?'
p109
tp110
bag90
(g91
(I0
tp111
g93
tp112
Rp113
(I1
(I7
tp114
g15
I00
S'\xfc\xa9\xf1\xd2Mb`?O\x1b\xe8\xb4\x81N[?O\x1b\xe8\xb4\x81N[?O\x1b\xe8\xb4\x81N[?O\x1b\xe8\xb4\x81N[?\xa9M\x9c\xdc\xefP4?\xa9M\x9c\xdc\xefP4?'
p115
tp116
basb.