ccopy_reg
_reconstructor
p0
(cpowercad.thermal.elmer_characterize
CachedCharacterization
p1
c__builtin__
object
p2
Ntp3
Rp4
(dp5
S'sublayer_tf'
p6
(ipowercad.thermal.fast_thermal
SublayerThermalFeatures
p7
(dp8
S't_amb'
p9
F300.0
sS'sub_res'
p10
cnumpy.core.multiarray
scalar
p11
(cnumpy
dtype
p12
(S'f8'
p13
I0
I1
tp14
Rp15
(I3
S'<'
p16
NNNI-1
I-1
I0
tp17
bS'\xa6\xfc\xf3N\xecN&@'
p18
tp19
Rp20
sS'metal_thickness'
p21
F0.41
sS'metal_cond'
p22
F200.0
sbsS'materials'
p23
(lp24
(F9700.0
F190.0
tp25
a(F11020.0
F35.8
tp26
a(F2710.0
F200.0
tp27
a(F3250.0
F160.0
tp28
a(F2710.0
F200.0
tp29
a(F11020.0
F35.8
tp30
a(F3200.0
F120.0
tp31
asS'thermal_features'
p32
(ipowercad.thermal.fast_thermal
DieThermalFeatures
p33
(dp34
S'eff_power'
p35
F4.777357137167149
sS'iso_top_temps'
p36
(lp37
(ipowercad.thermal.fast_thermal
ContourRect
p38
(dp39
S'width'
p40
F4.8
sS'avg_val'
p41
F58.141867559521046
sS'height'
p42
F3.111111111111111
sba(ipowercad.thermal.fast_thermal
ContourRect
p43
(dp44
g40
F7.377777777777777
sg41
F56.86217604947207
sg42
F6.138138138138138
sba(ipowercad.thermal.fast_thermal
ContourRect
p45
(dp46
g40
F9.955555555555556
sg41
F56.25878666876701
sg42
F8.996996996996996
sba(ipowercad.thermal.fast_thermal
ContourRect
p47
(dp48
g40
F12.533333333333331
sg41
F55.98344547053229
sg42
F11.771771771771771
sba(ipowercad.thermal.fast_thermal
ContourRect
p49
(dp50
g40
F15.11111111111111
sg41
F55.823756111183684
sg42
F14.462462462462462
sba(ipowercad.thermal.fast_thermal
ContourRect
p51
(dp52
g40
F17.688888888888886
sg41
F55.71939633040245
sg42
F17.097097097097098
sba(ipowercad.thermal.fast_thermal
ContourRect
p53
(dp54
g40
F20.266666666666666
sg41
F55.647449953940736
sg42
F19.64764764764765
sba(ipowercad.thermal.fast_thermal
ContourRect
p55
(dp56
g40
F22.844444444444445
sg41
F55.59805667899593
sg42
F22.002002002002
sba(ipowercad.thermal.fast_thermal
ContourRect
p57
(dp58
g40
F25.42222222222222
sg41
F55.563149289960656
sg42
F24.72072072072072
sba(ipowercad.thermal.fast_thermal
ContourRect
p59
(dp60
g40
F28.0
sg41
F55.53810746918911
sg42
F26.03803803803804
sbasS'iso_top_avg_temp'
p61
F55.7707332004717
sS'die_power'
p62
F5.0
sS'die_res'
p63
F0.447161765466584
sS'self_temp'
p64
F58.141867559521046
sS'iso_top_fluxes'
p65
(lp66
(ipowercad.thermal.fast_thermal
ContourRect
p67
(dp68
g40
F4.8
sg41
F0.22234143856843516
sg42
F2.5225225225225225
sba(ipowercad.thermal.fast_thermal
ContourRect
p69
(dp70
g40
F6.115982649315982
sg41
F0.08764688165235202
sg42
F3.755755755755756
sba(ipowercad.thermal.fast_thermal
ContourRect
p71
(dp72
g40
F7.431965298631965
sg41
F0.021985792122098943
sg42
F5.801801801801802
sba(ipowercad.thermal.fast_thermal
ContourRect
p73
(dp74
g40
F8.747947947947948
sg41
F0.009024307658806427
sg42
F7.53953953953954
sba(ipowercad.thermal.fast_thermal
ContourRect
p75
(dp76
g40
F10.06393059726393
sg41
F0.005153101912167485
sg42
F8.24024024024024
sba(ipowercad.thermal.fast_thermal
ContourRect
p77
(dp78
g40
F11.379913246579912
sg41
F0.002851891620599525
sg42
F10.398398398398399
sba(ipowercad.thermal.fast_thermal
ContourRect
p79
(dp80
g40
F12.695895895895895
sg41
F0.0018782159669894093
sg42
F11.267267267267266
sba(ipowercad.thermal.fast_thermal
ContourRect
p81
(dp82
g40
F14.011878545211879
sg41
F0.000930928116041369
sg42
F24.55255255255255
sba(ipowercad.thermal.fast_thermal
ContourRect
p83
(dp84
g40
F15.32786119452786
sg41
F0.000883556141434524
sg42
F25.001001001001
sba(ipowercad.thermal.fast_thermal
ContourRect
p85
(dp86
g40
F16.643843843843843
sg41
F0.0007718885619329245
sg42
F25.16916916916917
sbasbsS'conv_coeff'
p87
F100.0
sS'dimensions'
p88
(lp89
cnumpy.core.multiarray
_reconstruct
p90
(cnumpy
ndarray
p91
(I0
tp92
S'b'
p93
tp94
Rp95
(I1
(I7
tp96
g15
I00
S'\xb8\x1e\x85\xebQ\xb8\x9e?y\xe9&1\x08\xac\x9c?y\xe9&1\x08\xac\x9c?y\xe9&1\x08\xac\x9c?\xfa~j\xbct\x93\x98?a2U0*\xa9s?a2U0*\xa9s?'
p97
tp98
bag90
(g91
(I0
tp99
g93
tp100
Rp101
(I1
(I7
tp102
g15
I00
S'\xb8\x1e\x85\xebQ\xb8\x9e?y\xe9&1\x08\xac\x9c?y\xe9&1\x08\xac\x9c?y\xe9&1\x08\xac\x9c?\xfa~j\xbct\x93\x98?a2U0*\xa9c?a2U0*\xa9c?'
p103
tp104
bag90
(g91
(I0
tp105
g93
tp106
Rp107
(I1
(I7
tp108
g15
I00
S'{\x14\xaeG\xe1zt?\xf1h\xe3\x88\xb5\xf8\x14?t^c\x97\xa8\xde:?\xf1h\xe3\x88\xb5\xf8D?t^c\x97\xa8\xde:?\xf1h\xe3\x88\xb5\xf8\x14?\xc7\xba\xb8\x8d\x06\xf06?'
p109
tp110
bag90
(g91
(I0
tp111
g93
tp112
Rp113
(I1
(I7
tp114
g15
I00
S'\xfc\xa9\xf1\xd2MbP?\xb4\xa3K\x12^\x95N?\xb4\xa3K\x12^\x95N?\xb4\xa3K\x12^\x95N?\xb4\xa3K\x12^\x95N?i\x1dUM\x10u/?i\x1dUM\x10u/?'
p115
tp116
basb.