ccopy_reg
_reconstructor
p0
(cpowercad.thermal.elmer_characterize
CachedCharacterization
p1
c__builtin__
object
p2
Ntp3
Rp4
(dp5
S'sublayer_tf'
p6
(ipowercad.thermal.fast_thermal
SublayerThermalFeatures
p7
(dp8
S't_amb'
p9
F300.0
sS'sub_res'
p10
cnumpy.core.multiarray
scalar
p11
(cnumpy
dtype
p12
(S'f8'
p13
I0
I1
tp14
Rp15
(I3
S'<'
p16
NNNI-1
I-1
I0
tp17
bS'\xcd\xe4\x03\xd0T(\xf4?'
p18
tp19
Rp20
sS'metal_thickness'
p21
F0.41
sS'metal_cond'
p22
F200.0
sbsS'materials'
p23
(lp24
(F9700.0
F190.0
tp25
a(F11020.0
F35.8
tp26
a(F2710.0
F200.0
tp27
a(F3250.0
F160.0
tp28
a(F2710.0
F200.0
tp29
a(F11020.0
F35.8
tp30
a(F3200.0
F120.0
tp31
asS'thermal_features'
p32
(ipowercad.thermal.fast_thermal
DieThermalFeatures
p33
(dp34
S'eff_power'
p35
F9.048164872382731
sS'iso_top_temps'
p36
(lp37
(ipowercad.thermal.fast_thermal
ContourRect
p38
(dp39
S'width'
p40
F3.243243243243243
sS'avg_val'
p41
F19.09150458205787
sS'height'
p42
F2.4
sba(ipowercad.thermal.fast_thermal
ContourRect
p43
(dp44
g40
F10.54054054054054
sg41
F15.38689864498583
sg42
F9.91111111111111
sba(ipowercad.thermal.fast_thermal
ContourRect
p45
(dp46
g40
F17.65765765765766
sg41
F13.890160839669056
sg42
F17.42222222222222
sba(ipowercad.thermal.fast_thermal
ContourRect
p47
(dp48
g40
F24.684684684684683
sg41
F13.368089550336812
sg42
F24.93333333333333
sba(ipowercad.thermal.fast_thermal
ContourRect
p49
(dp50
g40
F31.53153153153153
sg41
F13.055616999066775
sg42
F32.44444444444444
sba(ipowercad.thermal.fast_thermal
ContourRect
p51
(dp52
g40
F37.927927927927925
sg41
F12.83947570962467
sg42
F39.95555555555555
sba(ipowercad.thermal.fast_thermal
ContourRect
p53
(dp54
g40
F43.87387387387387
sg41
F12.682120406115107
sg42
F47.46666666666666
sba(ipowercad.thermal.fast_thermal
ContourRect
p55
(dp56
g40
F48.91891891891892
sg41
F12.56762919852386
sg42
F54.97777777777777
sba(ipowercad.thermal.fast_thermal
ContourRect
p57
(dp58
g40
F52.97297297297297
sg41
F12.487161126202487
sg42
F62.48888888888888
sba(ipowercad.thermal.fast_thermal
ContourRect
p59
(dp60
g40
F55.4054054054054
sg41
F12.437425452889272
sg42
F70.0
sbasS'iso_top_avg_temp'
p61
F12.598465085596223
sS'die_power'
p62
F10.0
sS'die_res'
p63
F0.447161765466584
sS'self_temp'
p64
F17.8900107646291
sS'iso_top_fluxes'
p65
(lp66
(ipowercad.thermal.fast_thermal
ContourRect
p67
(dp68
g40
F3.153153153153153
sg41
F0.40819637028628014
sg42
F2.4
sba(ipowercad.thermal.fast_thermal
ContourRect
p69
(dp70
g40
F4.234234234234234
sg41
F0.28321558535103664
sg42
F3.181937493048604
sba(ipowercad.thermal.fast_thermal
ContourRect
p71
(dp72
g40
F5.315315315315315
sg41
F0.1904834218018121
sg42
F3.963874986097208
sba(ipowercad.thermal.fast_thermal
ContourRect
p73
(dp74
g40
F6.306306306306306
sg41
F0.11717753174048334
sg42
F4.745812479145812
sba(ipowercad.thermal.fast_thermal
ContourRect
p75
(dp76
g40
F7.4774774774774775
sg41
F0.06758905108576772
sg42
F5.527749972194416
sba(ipowercad.thermal.fast_thermal
ContourRect
p77
(dp78
g40
F8.64864864864865
sg41
F0.03387822321411233
sg42
F6.3096874652430195
sba(ipowercad.thermal.fast_thermal
ContourRect
p79
(dp80
g40
F9.72972972972973
sg41
F0.014746366133433837
sg42
F7.091624958291625
sba(ipowercad.thermal.fast_thermal
ContourRect
p81
(dp82
g40
F17.92792792792793
sg41
F0.001986850440131411
sg42
F7.873562451340229
sba(ipowercad.thermal.fast_thermal
ContourRect
p83
(dp84
g40
F90.0
sg41
F0.0002712762083747807
sg42
F8.655499944388833
sba(ipowercad.thermal.fast_thermal
ContourRect
p85
(dp86
g40
F90.0
sg41
F0.0007539145289770643
sg42
F9.437437437437437
sbasbsS'conv_coeff'
p87
F100.0
sS'dimensions'
p88
(lp89
cnumpy.core.multiarray
_reconstruct
p90
(cnumpy
ndarray
p91
(I0
tp92
S'b'
p93
tp94
Rp95
(I1
(I7
tp96
g15
I00
S'\x9a\x99\x99\x99\x99\x99\xb9?\n\xd7\xa3p=\n\xb7?\n\xd7\xa3p=\n\xb7?\n\xd7\xa3p=\n\xb7?k\xbct\x93\x18\x04\xb6?a2U0*\xa9s?a2U0*\xa9s?'
p97
tp98
bag90
(g91
(I0
tp99
g93
tp100
Rp101
(I1
(I7
tp102
g15
I00
S'{\x14\xaeG\xe1z\xb4?\xecQ\xb8\x1e\x85\xeb\xb1?\xecQ\xb8\x1e\x85\xeb\xb1?\xecQ\xb8\x1e\x85\xeb\xb1?L7\x89A`\xe5\xb0?a2U0*\xa9c?a2U0*\xa9c?'
p103
tp104
bag90
(g91
(I0
tp105
g93
tp106
Rp107
(I1
(I7
tp108
g15
I00
S'\xfa~j\xbct\x93x?\xf1h\xe3\x88\xb5\xf8\x14?t^c\x97\xa8\xde:?\xf1h\xe3\x88\xb5\xf8D?t^c\x97\xa8\xde:?\xf1h\xe3\x88\xb5\xf8\x14?\xc7\xba\xb8\x8d\x06\xf06?'
p109
tp110
bag90
(g91
(I0
tp111
g93
tp112
Rp113
(I1
(I7
tp114
g15
I00
S'\xa5\xe2\xec\xc3g\xd8e?QFo\xcbZ\x1dc?QFo\xcbZ\x1dc?QFo\xcbZ\x1dc?QFo\xcbZ\x1dc?i\x1dUM\x10u/?i\x1dUM\x10u/?'
p115
tp116
basb.