ccopy_reg
_reconstructor
p0
(cpowercad.thermal.elmer_characterize
CachedCharacterization
p1
c__builtin__
object
p2
Ntp3
Rp4
(dp5
S'sublayer_tf'
p6
(ipowercad.thermal.fast_thermal
SublayerThermalFeatures
p7
(dp8
S't_amb'
p9
F300.0
sS'sub_res'
p10
cnumpy.core.multiarray
scalar
p11
(cnumpy
dtype
p12
(S'f8'
p13
I0
I1
tp14
Rp15
(I3
S'<'
p16
NNNI-1
I-1
I0
tp17
bS'\xdaXI\x01(\x0f\x10@'
p18
tp19
Rp20
sS'metal_thickness'
p21
F0.2
sS'metal_cond'
p22
F400.0
sbsS'materials'
p23
(lp24
(F9700.0
F190.0
tp25
a(F11020.0
F35.8
tp26
a(F8020.0
F400.0
tp27
a(F3250.0
F160.0
tp28
a(F8020.0
F400.0
tp29
a(F11020.0
F35.8
tp30
a(F3200.0
F120.0
tp31
asS'thermal_features'
p32
(ipowercad.thermal.fast_thermal
DieThermalFeatures
p33
(dp34
S'eff_power'
p35
F4.52113738857628
sS'iso_top_temps'
p36
(lp37
(ipowercad.thermal.fast_thermal
ContourRect
p38
(dp39
S'width'
p40
F3.1
sS'avg_val'
p41
F23.106276685589556
sS'height'
p42
F3.123123123123123
sba(ipowercad.thermal.fast_thermal
ContourRect
p43
(dp44
g40
F8.088888888888889
sg41
F21.39020977474225
sg42
F7.975975975975976
sba(ipowercad.thermal.fast_thermal
ContourRect
p45
(dp46
g40
F13.077777777777778
sg41
F20.661521462499604
sg42
F13.165165165165165
sba(ipowercad.thermal.fast_thermal
ContourRect
p47
(dp48
g40
F18.066666666666666
sg41
F20.369960537758757
sg42
F18.066066066066067
sba(ipowercad.thermal.fast_thermal
ContourRect
p49
(dp50
g40
F23.055555555555557
sg41
F20.20061896696536
sg42
F23.015015015015013
sba(ipowercad.thermal.fast_thermal
ContourRect
p51
(dp52
g40
F28.044444444444444
sg41
F20.084804527985114
sg42
F28.01201201201201
sba(ipowercad.thermal.fast_thermal
ContourRect
p53
(dp54
g40
F33.03333333333333
sg41
F20.0026535816572
sg42
F33.009009009009006
sba(ipowercad.thermal.fast_thermal
ContourRect
p55
(dp56
g40
F38.022222222222226
sg41
F19.94515982592597
sg42
F38.006006006006004
sba(ipowercad.thermal.fast_thermal
ContourRect
p57
(dp58
g40
F43.01111111111111
sg41
F19.906809299311274
sg42
F42.906906906906904
sba(ipowercad.thermal.fast_thermal
ContourRect
p59
(dp60
g40
F48.0
sg41
F19.88289235808725
sg42
F48.0
sbasS'iso_top_avg_temp'
p61
F20.074005222805702
sS'die_power'
p62
F5.0
sS'die_res'
p63
F0.6071761452707745
sS'self_temp'
p64
F23.106276685589556
sS'iso_top_fluxes'
p65
(lp66
(ipowercad.thermal.fast_thermal
ContourRect
p67
(dp68
g40
F3.1
sg41
F0.2915379294777243
sg42
F2.8828828828828827
sba(ipowercad.thermal.fast_thermal
ContourRect
p69
(dp70
g40
F3.6193638082526975
sg41
F0.16804847823104943
sg42
F3.4594594594594597
sba(ipowercad.thermal.fast_thermal
ContourRect
p71
(dp72
g40
F4.138727616505395
sg41
F0.11596543054216293
sg42
F3.987987987987988
sba(ipowercad.thermal.fast_thermal
ContourRect
p73
(dp74
g40
F4.658091424758092
sg41
F0.07425767572948644
sg42
F4.516516516516517
sba(ipowercad.thermal.fast_thermal
ContourRect
p75
(dp76
g40
F5.1774552330107895
sg41
F0.043594563775933515
sg42
F4.996996996996997
sba(ipowercad.thermal.fast_thermal
ContourRect
p77
(dp78
g40
F5.6968190412634865
sg41
F0.02221787384069772
sg42
F5.525525525525525
sba(ipowercad.thermal.fast_thermal
ContourRect
p79
(dp80
g40
F6.2161828495161835
sg41
F0.00961629616648138
sg42
F6.054054054054054
sba(ipowercad.thermal.fast_thermal
ContourRect
p81
(dp82
g40
F6.7355466577688805
sg41
F0.003542026755041966
sg42
F6.438438438438438
sba(ipowercad.thermal.fast_thermal
ContourRect
p83
(dp84
g40
F7.2549104660215775
sg41
F0.002298591238578019
sg42
F11.387387387387387
sba(ipowercad.thermal.fast_thermal
ContourRect
p85
(dp86
g40
F7.7742742742742745
sg41
F0.00105139950657154
sg42
F11.81981981981982
sbasbsS'conv_coeff'
p87
F100.0
sS'dimensions'
p88
(lp89
cnumpy.core.multiarray
_reconstruct
p90
(cnumpy
ndarray
p91
(I0
tp92
S'b'
p93
tp94
Rp95
(I1
(I7
tp96
g15
I00
S'\x9a\x99\x99\x99\x99\x99\xa9?\xfa~j\xbct\x93\xa8?\xfa~j\xbct\x93\xa8?\xfa~j\xbct\x93\xa8?\xbaI\x0c\x02+\x87\xa6?\x14a\xc3\xd3+ei?\x14a\xc3\xd3+ei?'
p97
tp98
bag90
(g91
(I0
tp99
g93
tp100
Rp101
(I1
(I7
tp102
g15
I00
S'\x9a\x99\x99\x99\x99\x99\xa9?\xfa~j\xbct\x93\xa8?\xfa~j\xbct\x93\xa8?\xfa~j\xbct\x93\xa8?\xbaI\x0c\x02+\x87\xa6?\x14a\xc3\xd3+ei?\x14a\xc3\xd3+ei?'
p103
tp104
bag90
(g91
(I0
tp105
g93
tp106
Rp107
(I1
(I7
tp108
g15
I00
S'{\x14\xaeG\xe1zt?-C\x1c\xeb\xe26\x1a?-C\x1c\xeb\xe26*?\xfc\xa9\xf1\xd2Mb@?-C\x1c\xeb\xe26*?-C\x1c\xeb\xe26\x1a?\xb2c#\x10\xaf\xeb7?'
p109
tp110
bag90
(g91
(I0
tp111
g93
tp112
Rp113
(I1
(I7
tp114
g15
I00
S'O\x1b\xe8\xb4\x81N[?-C\x1c\xeb\xe26Z?-C\x1c\xeb\xe26Z?-C\x1c\xeb\xe26Z?-C\x1c\xeb\xe26Z?\xa9M\x9c\xdc\xefP4?\xa9M\x9c\xdc\xefP4?'
p115
tp116
basb.