ccopy_reg
_reconstructor
p0
(cpowercad.thermal.elmer_characterize
CachedCharacterization
p1
c__builtin__
object
p2
Ntp3
Rp4
(dp5
S'sublayer_tf'
p6
(ipowercad.thermal.fast_thermal
SublayerThermalFeatures
p7
(dp8
S't_amb'
p9
F300.0
sS'sub_res'
p10
cnumpy.core.multiarray
scalar
p11
(cnumpy
dtype
p12
(S'f8'
p13
I0
I1
tp14
Rp15
(I3
S'<'
p16
NNNI-1
I-1
I0
tp17
bS'@\xa5S3c\x0f\x10@'
p18
tp19
Rp20
sS'metal_thickness'
p21
F0.41
sS'metal_cond'
p22
F200.0
sbsS'materials'
p23
(lp24
(F9700.0
F190.0
tp25
a(F11020.0
F35.8
tp26
a(F2710.0
F200.0
tp27
a(F3250.0
F160.0
tp28
a(F2710.0
F200.0
tp29
a(F11020.0
F35.8
tp30
a(F3200.0
F120.0
tp31
asS'thermal_features'
p32
(ipowercad.thermal.fast_thermal
DieThermalFeatures
p33
(dp34
S'eff_power'
p35
F0.8989286090901453
sS'iso_top_temps'
p36
(lp37
(ipowercad.thermal.fast_thermal
ContourRect
p38
(dp39
S'width'
p40
F3.1
sS'avg_val'
p41
F4.6358341157034495
sS'height'
p42
F3.075075075075075
sba(ipowercad.thermal.fast_thermal
ContourRect
p43
(dp44
g40
F8.088888888888889
sg41
F4.282336246739604
sg42
F8.168168168168169
sba(ipowercad.thermal.fast_thermal
ContourRect
p45
(dp46
g40
F13.077777777777778
sg41
F4.131031266707052
sg42
F13.213213213213214
sba(ipowercad.thermal.fast_thermal
ContourRect
p47
(dp48
g40
F18.066666666666666
sg41
F4.073441658768918
sg42
F18.066066066066067
sba(ipowercad.thermal.fast_thermal
ContourRect
p49
(dp50
g40
F23.055555555555557
sg41
F4.039965525272129
sg42
F23.015015015015013
sba(ipowercad.thermal.fast_thermal
ContourRect
p51
(dp52
g40
F28.044444444444444
sg41
F4.017196966137313
sg42
F28.01201201201201
sba(ipowercad.thermal.fast_thermal
ContourRect
p53
(dp54
g40
F33.03333333333333
sg41
F4.001064826412944
sg42
F33.05705705705706
sba(ipowercad.thermal.fast_thermal
ContourRect
p55
(dp56
g40
F38.022222222222226
sg41
F3.9897977697383094
sg42
F38.006006006006004
sba(ipowercad.thermal.fast_thermal
ContourRect
p57
(dp58
g40
F43.01111111111111
sg41
F3.982291398246908
sg42
F43.003003003003
sba(ipowercad.thermal.fast_thermal
ContourRect
p59
(dp60
g40
F48.0
sg41
F3.977632243710104
sg42
F48.0
sbasS'iso_top_avg_temp'
p61
F4.015026857357357
sS'die_power'
p62
F1.0
sS'die_res'
p63
F0.6071761452707745
sS'self_temp'
p64
F4.632991887366338
sS'iso_top_fluxes'
p65
(lp66
(ipowercad.thermal.fast_thermal
ContourRect
p67
(dp68
g40
F3.1
sg41
F0.05073756065010694
sg42
F3.123123123123123
sba(ipowercad.thermal.fast_thermal
ContourRect
p69
(dp70
g40
F4.138727616505395
sg41
F0.02277115899927551
sg42
F4.372372372372372
sba(ipowercad.thermal.fast_thermal
ContourRect
p71
(dp72
g40
F5.177455233010789
sg41
F0.009536148696952967
sg42
F5.285285285285285
sba(ipowercad.thermal.fast_thermal
ContourRect
p73
(dp74
g40
F6.2161828495161835
sg41
F0.003420408695502226
sg42
F5.90990990990991
sba(ipowercad.thermal.fast_thermal
ContourRect
p75
(dp76
g40
F7.2549104660215775
sg41
F0.0013163426390753893
sg42
F6.2942942942942945
sba(ipowercad.thermal.fast_thermal
ContourRect
p77
(dp78
g40
F8.293638082526972
sg41
F0.0010227716812326586
sg42
F6.438438438438438
sba(ipowercad.thermal.fast_thermal
ContourRect
p79
(dp80
g40
F9.332365699032366
sg41
F0.00075863588378291
sg42
F11.29129129129129
sba(ipowercad.thermal.fast_thermal
ContourRect
p81
(dp82
g40
F10.37109331553776
sg41
F0.00038034456919765246
sg42
F12.396396396396396
sba(ipowercad.thermal.fast_thermal
ContourRect
p83
(dp84
g40
F11.409820932043154
sg41
F0.00015812941112873174
sg42
F17.2012012012012
sba(ipowercad.thermal.fast_thermal
ContourRect
p85
(dp86
g40
F12.448548548548548
sg41
F4.6556769859376883e-05
sg42
F45.16516516516516
sbasbsS'conv_coeff'
p87
F100.0
sS'dimensions'
p88
(lp89
cnumpy.core.multiarray
_reconstruct
p90
(cnumpy
ndarray
p91
(I0
tp92
S'b'
p93
tp94
Rp95
(I1
(I7
tp96
g15
I00
S'\x9a\x99\x99\x99\x99\x99\xa9?\xfa~j\xbct\x93\xa8?\xfa~j\xbct\x93\xa8?\xfa~j\xbct\x93\xa8?\xbaI\x0c\x02+\x87\xa6?\x14a\xc3\xd3+ei?\x14a\xc3\xd3+ei?'
p97
tp98
bag90
(g91
(I0
tp99
g93
tp100
Rp101
(I1
(I7
tp102
g15
I00
S'\x9a\x99\x99\x99\x99\x99\xa9?\xfa~j\xbct\x93\xa8?\xfa~j\xbct\x93\xa8?\xfa~j\xbct\x93\xa8?\xbaI\x0c\x02+\x87\xa6?\x14a\xc3\xd3+ei?\x14a\xc3\xd3+ei?'
p103
tp104
bag90
(g91
(I0
tp105
g93
tp106
Rp107
(I1
(I7
tp108
g15
I00
S'{\x14\xaeG\xe1zt?\xf1h\xe3\x88\xb5\xf8\x14?t^c\x97\xa8\xde:?\xf1h\xe3\x88\xb5\xf8D?t^c\x97\xa8\xde:?-C\x1c\xeb\xe26\x1a?\xb2c#\x10\xaf\xeb7?'
p109
tp110
bag90
(g91
(I0
tp111
g93
tp112
Rp113
(I1
(I7
tp114
g15
I00
S'O\x1b\xe8\xb4\x81N[?-C\x1c\xeb\xe26Z?-C\x1c\xeb\xe26Z?-C\x1c\xeb\xe26Z?-C\x1c\xeb\xe26Z?\xa9M\x9c\xdc\xefP4?\xa9M\x9c\xdc\xefP4?'
p115
tp116
basb.