ccopy_reg
_reconstructor
p0
(cpowercad.thermal.elmer_characterize
CachedCharacterization
p1
c__builtin__
object
p2
Ntp3
Rp4
(dp5
S'sublayer_tf'
p6
(ipowercad.thermal.fast_thermal
SublayerThermalFeatures
p7
(dp8
S't_amb'
p9
F300.0
sS'sub_res'
p10
cnumpy.core.multiarray
scalar
p11
(cnumpy
dtype
p12
(S'f8'
p13
I0
I1
tp14
Rp15
(I3
S'<'
p16
NNNI-1
I-1
I0
tp17
bS'Z\xcfB\xa22\x0f\x10@'
p18
tp19
Rp20
sS'metal_thickness'
p21
F0.41
sS'metal_cond'
p22
F200.0
sbsS'materials'
p23
(lp24
(F9700.0
F190.0
tp25
a(F11020.0
F35.8
tp26
a(F2710.0
F200.0
tp27
a(F3250.0
F160.0
tp28
a(F2710.0
F200.0
tp29
a(F11020.0
F35.8
tp30
a(F8940.0
F3.69
tp31
asS'thermal_features'
p32
(ipowercad.thermal.fast_thermal
DieThermalFeatures
p33
(dp34
S'eff_power'
p35
F4.732613299453527
sS'iso_top_temps'
p36
(lp37
(ipowercad.thermal.fast_thermal
ContourRect
p38
(dp39
S'width'
p40
F6.82
sS'avg_val'
p41
F21.70301643258855
sS'height'
p42
F6.438438438438438
sba(ipowercad.thermal.fast_thermal
ContourRect
p43
(dp44
g40
F11.395555555555557
sg41
F20.87441182961484
sg42
F11.243243243243244
sba(ipowercad.thermal.fast_thermal
ContourRect
p45
(dp46
g40
F15.971111111111112
sg41
F20.47497660783466
sg42
F15.75975975975976
sba(ipowercad.thermal.fast_thermal
ContourRect
p47
(dp48
g40
F20.546666666666667
sg41
F20.276705238083924
sg42
F20.37237237237237
sba(ipowercad.thermal.fast_thermal
ContourRect
p49
(dp50
g40
F25.122222222222224
sg41
F20.147250038043364
sg42
F24.984984984984983
sba(ipowercad.thermal.fast_thermal
ContourRect
p51
(dp52
g40
F29.69777777777778
sg41
F20.056126552481196
sg42
F29.54954954954955
sba(ipowercad.thermal.fast_thermal
ContourRect
p53
(dp54
g40
F34.27333333333333
sg41
F19.990008166496498
sg42
F34.16216216216216
sba(ipowercad.thermal.fast_thermal
ContourRect
p55
(dp56
g40
F38.848888888888894
sg41
F19.94282894953678
sg42
F38.63063063063063
sba(ipowercad.thermal.fast_thermal
ContourRect
p57
(dp58
g40
F43.42444444444445
sg41
F19.91095131145723
sg42
F43.0990990990991
sba(ipowercad.thermal.fast_thermal
ContourRect
p59
(dp60
g40
F48.0
sg41
F19.890442989118988
sg42
F47.42342342342342
sbasS'iso_top_avg_temp'
p61
F20.0742079512012
sS'die_power'
p62
F5.0
sS'die_res'
p63
F5.070669039902688
sS'self_temp'
p64
F21.70301643258855
sS'iso_top_fluxes'
p65
(lp66
(ipowercad.thermal.fast_thermal
ContourRect
p67
(dp68
g40
F6.82
sg41
F0.0811316840750661
sg42
F6.102102102102102
sba(ipowercad.thermal.fast_thermal
ContourRect
p69
(dp70
g40
F7.882591480369259
sg41
F0.035724486297491906
sg42
F7.303303303303303
sba(ipowercad.thermal.fast_thermal
ContourRect
p71
(dp72
g40
F8.945182960738517
sg41
F0.01636792648909613
sg42
F8.216216216216216
sba(ipowercad.thermal.fast_thermal
ContourRect
p73
(dp74
g40
F10.007774441107774
sg41
F0.007152869669759832
sg42
F9.225225225225225
sba(ipowercad.thermal.fast_thermal
ContourRect
p75
(dp76
g40
F11.070365921477034
sg41
F0.004137769162155809
sg42
F10.09009009009009
sba(ipowercad.thermal.fast_thermal
ContourRect
p77
(dp78
g40
F12.13295740184629
sg41
F0.003263800821287619
sg42
F10.378378378378379
sba(ipowercad.thermal.fast_thermal
ContourRect
p79
(dp80
g40
F13.19554888221555
sg41
F0.002952565954682176
sg42
F11.243243243243244
sba(ipowercad.thermal.fast_thermal
ContourRect
p81
(dp82
g40
F14.258140362584808
sg41
F0.0022626938697344113
sg42
F12.876876876876876
sba(ipowercad.thermal.fast_thermal
ContourRect
p83
(dp84
g40
F15.320731842954066
sg41
F0.0010987577864688999
sg42
F17.873873873873872
sba(ipowercad.thermal.fast_thermal
ContourRect
p85
(dp86
g40
F16.383323323323324
sg41
F0.0006402394121161893
sg42
F18.546546546546548
sbasbsS'conv_coeff'
p87
F100.0
sS'dimensions'
p88
(lp89
cnumpy.core.multiarray
_reconstruct
p90
(cnumpy
ndarray
p91
(I0
tp92
S'b'
p93
tp94
Rp95
(I1
(I7
tp96
g15
I00
S'\x9a\x99\x99\x99\x99\x99\xa9?\xfa~j\xbct\x93\xa8?\xfa~j\xbct\x93\xa8?\xfa~j\xbct\x93\xa8?\xbaI\x0c\x02+\x87\xa6?\xc9\xeaV\xcfI\xef{?\xc9\xeaV\xcfI\xef{?'
p97
tp98
bag90
(g91
(I0
tp99
g93
tp100
Rp101
(I1
(I7
tp102
g15
I00
S'\x9a\x99\x99\x99\x99\x99\xa9?\xfa~j\xbct\x93\xa8?\xfa~j\xbct\x93\xa8?\xfa~j\xbct\x93\xa8?\xbaI\x0c\x02+\x87\xa6?\xa6\nF%u\x02z?\xa6\nF%u\x02z?'
p103
tp104
bag90
(g91
(I0
tp105
g93
tp106
Rp107
(I1
(I7
tp108
g15
I00
S'{\x14\xaeG\xe1zt?\xf1h\xe3\x88\xb5\xf8\x14?t^c\x97\xa8\xde:?\xf1h\xe3\x88\xb5\xf8D?t^c\x97\xa8\xde:?-C\x1c\xeb\xe26\x1a?-C\x1c\xeb\xe26J?'
p109
tp110
bag90
(g91
(I0
tp111
g93
tp112
Rp113
(I1
(I7
tp114
g15
I00
S'O\x1b\xe8\xb4\x81N[?-C\x1c\xeb\xe26Z?-C\x1c\xeb\xe26Z?-C\x1c\xeb\xe26Z?-C\x1c\xeb\xe26Z?\x1f\xa2\xd1\x1d\xc4\xceD?\x1f\xa2\xd1\x1d\xc4\xceD?'
p115
tp116
basb.