ccopy_reg
_reconstructor
p0
(cpowercad.thermal.elmer_characterize
CachedCharacterization
p1
c__builtin__
object
p2
Ntp3
Rp4
(dp5
S'sublayer_tf'
p6
(ipowercad.thermal.fast_thermal
SublayerThermalFeatures
p7
(dp8
S't_amb'
p9
F300.0
sS'sub_res'
p10
cnumpy.core.multiarray
scalar
p11
(cnumpy
dtype
p12
(S'f8'
p13
I0
I1
tp14
Rp15
(I3
S'<'
p16
NNNI-1
I-1
I0
tp17
bS'\xe0,\xee\x14\xe3M&@'
p18
tp19
Rp20
sS'metal_thickness'
p21
F0.2
sS'metal_cond'
p22
F400.0
sbsS'materials'
p23
(lp24
(F9700.0
F190.0
tp25
a(F11020.0
F35.8
tp26
a(F8020.0
F400.0
tp27
a(F3250.0
F160.0
tp28
a(F8020.0
F400.0
tp29
a(F11020.0
F35.8
tp30
a(F3200.0
F120.0
tp31
asS'thermal_features'
p32
(ipowercad.thermal.fast_thermal
DieThermalFeatures
p33
(dp34
S'eff_power'
p35
F0.8931101629098704
sS'iso_top_temps'
p36
(lp37
(ipowercad.thermal.fast_thermal
ContourRect
p38
(dp39
S'width'
p40
F3.1
sS'avg_val'
p41
F11.705800569157908
sS'height'
p42
F3.1671671671671673
sba(ipowercad.thermal.fast_thermal
ContourRect
p43
(dp44
g40
F5.866666666666667
sg41
F11.413703879590159
sg42
F5.857857857857858
sba(ipowercad.thermal.fast_thermal
ContourRect
p45
(dp46
g40
F8.633333333333333
sg41
F11.268979173687939
sg42
F8.576576576576576
sba(ipowercad.thermal.fast_thermal
ContourRect
p47
(dp48
g40
F11.4
sg41
F11.205705625452547
sg42
F11.323323323323324
sba(ipowercad.thermal.fast_thermal
ContourRect
p49
(dp50
g40
F14.166666666666666
sg41
F11.169246490127565
sg42
F14.126126126126126
sba(ipowercad.thermal.fast_thermal
ContourRect
p51
(dp52
g40
F16.933333333333334
sg41
F11.145464577281258
sg42
F16.9009009009009
sba(ipowercad.thermal.fast_thermal
ContourRect
p53
(dp54
g40
F19.700000000000003
sg41
F11.129154149828421
sg42
F19.675675675675677
sba(ipowercad.thermal.fast_thermal
ContourRect
p55
(dp56
g40
F22.46666666666667
sg41
F11.11783823840444
sg42
F22.42242242242242
sba(ipowercad.thermal.fast_thermal
ContourRect
p57
(dp58
g40
F25.233333333333334
sg41
F11.110211462789263
sg42
F25.197197197197198
sba(ipowercad.thermal.fast_thermal
ContourRect
p59
(dp60
g40
F28.0
sg41
F11.10436575420365
sg42
F27.943943943943943
sbasS'iso_top_avg_temp'
p61
F11.152123121332277
sS'die_power'
p62
F1.0
sS'die_res'
p63
F0.6071761452707745
sS'self_temp'
p64
F11.705800569157908
sS'iso_top_fluxes'
p65
(lp66
(ipowercad.thermal.fast_thermal
ContourRect
p67
(dp68
g40
F3.1
sg41
F0.05679190951098306
sg42
F3.055055055055055
sba(ipowercad.thermal.fast_thermal
ContourRect
p69
(dp70
g40
F3.867133800467134
sg41
F0.026958039693298845
sg42
F3.7277277277277276
sba(ipowercad.thermal.fast_thermal
ContourRect
p71
(dp72
g40
F4.634267600934267
sg41
F0.012639593381043514
sg42
F4.344344344344345
sba(ipowercad.thermal.fast_thermal
ContourRect
p73
(dp74
g40
F5.401401401401401
sg41
F0.005579995616327155
sg42
F5.185185185185185
sba(ipowercad.thermal.fast_thermal
ContourRect
p75
(dp76
g40
F6.168535201868535
sg41
F0.003156284551047888
sg42
F6.138138138138138
sba(ipowercad.thermal.fast_thermal
ContourRect
p77
(dp78
g40
F6.935669002335668
sg41
F0.002315125081734171
sg42
F6.614614614614615
sba(ipowercad.thermal.fast_thermal
ContourRect
p79
(dp80
g40
F7.702802802802802
sg41
F0.0016470657852414169
sg42
F7.203203203203203
sba(ipowercad.thermal.fast_thermal
ContourRect
p81
(dp82
g40
F8.469936603269936
sg41
F0.0010813126505164012
sg42
F8.044044044044044
sba(ipowercad.thermal.fast_thermal
ContourRect
p83
(dp84
g40
F9.23707040373707
sg41
F0.0005626808683064599
sg42
F11.323323323323324
sba(ipowercad.thermal.fast_thermal
ContourRect
p85
(dp86
g40
F10.004204204204203
sg41
F0.00041616593324190674
sg42
F11.911911911911911
sbasbsS'conv_coeff'
p87
F100.0
sS'dimensions'
p88
(lp89
cnumpy.core.multiarray
_reconstruct
p90
(cnumpy
ndarray
p91
(I0
tp92
S'b'
p93
tp94
Rp95
(I1
(I7
tp96
g15
I00
S'\xb8\x1e\x85\xebQ\xb8\x9e?y\xe9&1\x08\xac\x9c?y\xe9&1\x08\xac\x9c?y\xe9&1\x08\xac\x9c?\xfa~j\xbct\x93\x98?\x14a\xc3\xd3+ei?\x14a\xc3\xd3+ei?'
p97
tp98
bag90
(g91
(I0
tp99
g93
tp100
Rp101
(I1
(I7
tp102
g15
I00
S'\xb8\x1e\x85\xebQ\xb8\x9e?y\xe9&1\x08\xac\x9c?y\xe9&1\x08\xac\x9c?y\xe9&1\x08\xac\x9c?\xfa~j\xbct\x93\x98?\x14a\xc3\xd3+ei?\x14a\xc3\xd3+ei?'
p103
tp104
bag90
(g91
(I0
tp105
g93
tp106
Rp107
(I1
(I7
tp108
g15
I00
S'{\x14\xaeG\xe1zt?\xf1h\xe3\x88\xb5\xf8\x14?-C\x1c\xeb\xe26*?\xfc\xa9\xf1\xd2Mb@?-C\x1c\xeb\xe26*?-C\x1c\xeb\xe26\x1a?\xb2c#\x10\xaf\xeb7?'
p109
tp110
bag90
(g91
(I0
tp111
g93
tp112
Rp113
(I1
(I7
tp114
g15
I00
S'\xfc\xa9\xf1\xd2MbP?\xb4\xa3K\x12^\x95N?\xb4\xa3K\x12^\x95N?\xb4\xa3K\x12^\x95N?\xb4\xa3K\x12^\x95N?\xa9M\x9c\xdc\xefP4?\xa9M\x9c\xdc\xefP4?'
p115
tp116
basb.