ccopy_reg
_reconstructor
p0
(cpowercad.thermal.elmer_characterize
CachedCharacterization
p1
c__builtin__
object
p2
Ntp3
Rp4
(dp5
S'sublayer_tf'
p6
(ipowercad.thermal.fast_thermal
SublayerThermalFeatures
p7
(dp8
S't_amb'
p9
F300.0
sS'sub_res'
p10
cnumpy.core.multiarray
scalar
p11
(cnumpy
dtype
p12
(S'f8'
p13
I0
I1
tp14
Rp15
(I3
S'<'
p16
NNNI-1
I-1
I0
tp17
bS'\x1a\x9ch\xf5\x04\x0e\x10@'
p18
tp19
Rp20
sS'metal_thickness'
p21
F0.2
sS'metal_cond'
p22
F400.0
sbsS'materials'
p23
(lp24
(F9700.0
F190.0
tp25
a(F11020.0
F35.8
tp26
a(F8020.0
F400.0
tp27
a(F3250.0
F160.0
tp28
a(F8020.0
F400.0
tp29
a(F11020.0
F35.8
tp30
a(F8940.0
F3.69
tp31
asS'thermal_features'
p32
(ipowercad.thermal.fast_thermal
DieThermalFeatures
p33
(dp34
S'eff_power'
p35
F4.931082311698789
sS'iso_top_temps'
p36
(lp37
(ipowercad.thermal.fast_thermal
ContourRect
p38
(dp39
S'width'
p40
F6.82
sS'avg_val'
p41
F21.676130199038322
sS'height'
p42
F6.342342342342342
sba(ipowercad.thermal.fast_thermal
ContourRect
p43
(dp44
g40
F11.395555555555557
sg41
F20.869955095636396
sg42
F11.243243243243244
sba(ipowercad.thermal.fast_thermal
ContourRect
p45
(dp46
g40
F15.971111111111112
sg41
F20.47689927123391
sg42
F15.75975975975976
sba(ipowercad.thermal.fast_thermal
ContourRect
p47
(dp48
g40
F20.546666666666667
sg41
F20.27826101868524
sg42
F20.324324324324323
sba(ipowercad.thermal.fast_thermal
ContourRect
p49
(dp50
g40
F25.122222222222224
sg41
F20.147194657621974
sg42
F24.984984984984983
sba(ipowercad.thermal.fast_thermal
ContourRect
p51
(dp52
g40
F29.69777777777778
sg41
F20.054321347504825
sg42
F29.54954954954955
sba(ipowercad.thermal.fast_thermal
ContourRect
p53
(dp54
g40
F34.27333333333333
sg41
F19.987232736354777
sg42
F34.066066066066064
sba(ipowercad.thermal.fast_thermal
ContourRect
p55
(dp56
g40
F38.848888888888894
sg41
F19.938954305656136
sg42
F38.67867867867868
sba(ipowercad.thermal.fast_thermal
ContourRect
p57
(dp58
g40
F43.42444444444445
sg41
F19.906297240833187
sg42
F43.003003003003
sba(ipowercad.thermal.fast_thermal
ContourRect
p59
(dp60
g40
F48.0
sg41
F19.88518550628669
sg42
F47.51951951951952
sbasS'iso_top_avg_temp'
p61
F20.068453953313252
sS'die_power'
p62
F5.0
sS'die_res'
p63
F5.070669039902688
sS'self_temp'
p64
F21.675158008021945
sS'iso_top_fluxes'
p65
(lp66
(ipowercad.thermal.fast_thermal
ContourRect
p67
(dp68
g40
F6.82
sg41
F0.08423237480150755
sg42
F6.15015015015015
sba(ipowercad.thermal.fast_thermal
ContourRect
p69
(dp70
g40
F8.496329662996331
sg41
F0.030472154518634793
sg42
F7.927927927927928
sba(ipowercad.thermal.fast_thermal
ContourRect
p71
(dp72
g40
F10.17265932599266
sg41
F0.008399771418092448
sg42
F8.696696696696696
sba(ipowercad.thermal.fast_thermal
ContourRect
p73
(dp74
g40
F11.848988988988989
sg41
F0.0031826518472692833
sg42
F8.88888888888889
sba(ipowercad.thermal.fast_thermal
ContourRect
p75
(dp76
g40
F13.52531865198532
sg41
F0.0019817369472862265
sg42
F9.033033033033034
sba(ipowercad.thermal.fast_thermal
ContourRect
p77
(dp78
g40
F15.20164831498165
sg41
F0.0013212352269174233
sg42
F9.12912912912913
sba(ipowercad.thermal.fast_thermal
ContourRect
p79
(dp80
g40
F16.877977977977977
sg41
F0.0009248868136669725
sg42
F9.177177177177176
sba(ipowercad.thermal.fast_thermal
ContourRect
p81
(dp82
g40
F18.554307640974308
sg41
F0.0009484802414651318
sg42
F9.273273273273274
sba(ipowercad.thermal.fast_thermal
ContourRect
p83
(dp84
g40
F20.23063730397064
sg41
F0.0003921781932958821
sg42
F44.3963963963964
sba(ipowercad.thermal.fast_thermal
ContourRect
p85
(dp86
g40
F21.90696696696697
sg41
F0.00013929239632039974
sg42
F48.0
sbasbsS'conv_coeff'
p87
F100.0
sS'dimensions'
p88
(lp89
cnumpy.core.multiarray
_reconstruct
p90
(cnumpy
ndarray
p91
(I0
tp92
S'b'
p93
tp94
Rp95
(I1
(I7
tp96
g15
I00
S'\x9a\x99\x99\x99\x99\x99\xa9?\xfa~j\xbct\x93\xa8?\xfa~j\xbct\x93\xa8?\xfa~j\xbct\x93\xa8?\xbaI\x0c\x02+\x87\xa6?\xc9\xeaV\xcfI\xef{?\xc9\xeaV\xcfI\xef{?'
p97
tp98
bag90
(g91
(I0
tp99
g93
tp100
Rp101
(I1
(I7
tp102
g15
I00
S'\x9a\x99\x99\x99\x99\x99\xa9?\xfa~j\xbct\x93\xa8?\xfa~j\xbct\x93\xa8?\xfa~j\xbct\x93\xa8?\xbaI\x0c\x02+\x87\xa6?\xa6\nF%u\x02z?\xa6\nF%u\x02z?'
p103
tp104
bag90
(g91
(I0
tp105
g93
tp106
Rp107
(I1
(I7
tp108
g15
I00
S'{\x14\xaeG\xe1zt?-C\x1c\xeb\xe26\x1a?-C\x1c\xeb\xe26*?\xfc\xa9\xf1\xd2Mb@?-C\x1c\xeb\xe26*?-C\x1c\xeb\xe26\x1a?-C\x1c\xeb\xe26J?'
p109
tp110
bag90
(g91
(I0
tp111
g93
tp112
Rp113
(I1
(I7
tp114
g15
I00
S'O\x1b\xe8\xb4\x81N[?-C\x1c\xeb\xe26Z?-C\x1c\xeb\xe26Z?-C\x1c\xeb\xe26Z?-C\x1c\xeb\xe26Z?\x1f\xa2\xd1\x1d\xc4\xceD?\x1f\xa2\xd1\x1d\xc4\xceD?'
p115
tp116
basb.