ccopy_reg
_reconstructor
p0
(cpowercad.thermal.elmer_characterize
CachedCharacterization
p1
c__builtin__
object
p2
Ntp3
Rp4
(dp5
S'sublayer_tf'
p6
(ipowercad.thermal.fast_thermal
SublayerThermalFeatures
p7
(dp8
S't_amb'
p9
F300.0
sS'sub_res'
p10
cnumpy.core.multiarray
scalar
p11
(cnumpy
dtype
p12
(S'f8'
p13
I0
I1
tp14
Rp15
(I3
S'<'
p16
NNNI-1
I-1
I0
tp17
bS'\xcd\xe4\x03\xd0T(\xf4?'
p18
tp19
Rp20
sS'metal_thickness'
p21
F0.41
sS'metal_cond'
p22
F200.0
sbsS'materials'
p23
(lp24
(F9700.0
F190.0
tp25
a(F11020.0
F35.8
tp26
a(F2710.0
F200.0
tp27
a(F3250.0
F160.0
tp28
a(F2710.0
F200.0
tp29
a(F11020.0
F35.8
tp30
a(F3100.0
F370.0
tp31
asS'thermal_features'
p32
(ipowercad.thermal.fast_thermal
DieThermalFeatures
p33
(dp34
S'eff_power'
p35
F2.756184839541558
sS'iso_top_temps'
p36
(lp37
(ipowercad.thermal.fast_thermal
ContourRect
p38
(dp39
S'width'
p40
F3.603603603603603
sS'avg_val'
p41
F5.654063781936662
sS'height'
p42
F3.36
sba(ipowercad.thermal.fast_thermal
ContourRect
p43
(dp44
g40
F9.36936936936937
sg41
F4.588239458740437
sg42
F10.764444444444445
sba(ipowercad.thermal.fast_thermal
ContourRect
p45
(dp46
g40
F17.74774774774775
sg41
F4.163235424897128
sg42
F18.16888888888889
sba(ipowercad.thermal.fast_thermal
ContourRect
p47
(dp48
g40
F24.954954954954953
sg41
F4.003479823076671
sg42
F25.573333333333334
sba(ipowercad.thermal.fast_thermal
ContourRect
p49
(dp50
g40
F31.8018018018018
sg41
F3.91213029667766
sg42
F32.97777777777778
sba(ipowercad.thermal.fast_thermal
ContourRect
p51
(dp52
g40
F38.108108108108105
sg41
F3.8491183253938197
sg42
F40.382222222222225
sba(ipowercad.thermal.fast_thermal
ContourRect
p53
(dp54
g40
F43.87387387387387
sg41
F3.8033136898439746
sg42
F47.78666666666667
sba(ipowercad.thermal.fast_thermal
ContourRect
p55
(dp56
g40
F48.91891891891892
sg41
F3.7697287048931694
sg42
F55.19111111111111
sba(ipowercad.thermal.fast_thermal
ContourRect
p57
(dp58
g40
F52.79279279279279
sg41
F3.7461521534634676
sg42
F62.595555555555556
sba(ipowercad.thermal.fast_thermal
ContourRect
p59
(dp60
g40
F55.22522522522522
sg41
F3.7315240395060414
sg42
F70.0
sbasS'iso_top_avg_temp'
p61
F3.7794944108618647
sS'die_power'
p62
F3.0
sS'die_res'
p63
F0.3252583221947072
sS'self_temp'
p64
F5.654063781936662
sS'iso_top_fluxes'
p65
(lp66
(ipowercad.thermal.fast_thermal
ContourRect
p67
(dp68
g40
F3.243243243243243
sg41
F0.1189678887511356
sg42
F3.36
sba(ipowercad.thermal.fast_thermal
ContourRect
p69
(dp70
g40
F3.873873873873874
sg41
F0.07467199538249693
sg42
F4.034478923367812
sba(ipowercad.thermal.fast_thermal
ContourRect
p71
(dp72
g40
F4.324324324324325
sg41
F0.05649565578238278
sg42
F4.708957846735625
sba(ipowercad.thermal.fast_thermal
ContourRect
p73
(dp74
g40
F4.864864864864865
sg41
F0.04199778851045324
sg42
F5.383436770103437
sba(ipowercad.thermal.fast_thermal
ContourRect
p75
(dp76
g40
F5.405405405405405
sg41
F0.02904938553466644
sg42
F6.05791569347125
sba(ipowercad.thermal.fast_thermal
ContourRect
p77
(dp78
g40
F6.036036036036036
sg41
F0.018049865451606403
sg42
F6.732394616839063
sba(ipowercad.thermal.fast_thermal
ContourRect
p79
(dp80
g40
F6.666666666666666
sg41
F0.009859303821296165
sg42
F7.406873540206874
sba(ipowercad.thermal.fast_thermal
ContourRect
p81
(dp82
g40
F15.945945945945946
sg41
F0.0013515646872108993
sg42
F8.081352463574687
sba(ipowercad.thermal.fast_thermal
ContourRect
p83
(dp84
g40
F90.0
sg41
F8.543460805398861e-05
sg42
F8.7558313869425
sba(ipowercad.thermal.fast_thermal
ContourRect
p85
(dp86
g40
F90.0
sg41
F0.00018863944038486746
sg42
F9.430310310310311
sbasbsS'conv_coeff'
p87
F100.0
sS'dimensions'
p88
(lp89
cnumpy.core.multiarray
_reconstruct
p90
(cnumpy
ndarray
p91
(I0
tp92
S'b'
p93
tp94
Rp95
(I1
(I7
tp96
g15
I00
S'\x9a\x99\x99\x99\x99\x99\xb9?\n\xd7\xa3p=\n\xb7?\n\xd7\xa3p=\n\xb7?\n\xd7\xa3p=\n\xb7?k\xbct\x93\x18\x04\xb6?\x14a\xc3\xd3+ei?\x14a\xc3\xd3+ei?'
p97
tp98
bag90
(g91
(I0
tp99
g93
tp100
Rp101
(I1
(I7
tp102
g15
I00
S'{\x14\xaeG\xe1z\xb4?\xecQ\xb8\x1e\x85\xeb\xb1?\xecQ\xb8\x1e\x85\xeb\xb1?\xecQ\xb8\x1e\x85\xeb\xb1?L7\x89A`\xe5\xb0?\xbcy\xaaCn\x86k?\xbcy\xaaCn\x86k?'
p103
tp104
bag90
(g91
(I0
tp105
g93
tp106
Rp107
(I1
(I7
tp108
g15
I00
S'\xfa~j\xbct\x93x?\xf1h\xe3\x88\xb5\xf8\x14?t^c\x97\xa8\xde:?\xf1h\xe3\x88\xb5\xf8D?t^c\x97\xa8\xde:?-C\x1c\xeb\xe26\x1a?K\xb08\x9c\xf9\xd5,?'
p109
tp110
bag90
(g91
(I0
tp111
g93
tp112
Rp113
(I1
(I7
tp114
g15
I00
S'\xa5\xe2\xec\xc3g\xd8e?QFo\xcbZ\x1dc?QFo\xcbZ\x1dc?QFo\xcbZ\x1dc?QFo\xcbZ\x1dc?\xa9M\x9c\xdc\xefP4?\xa9M\x9c\xdc\xefP4?'
p115
tp116
basb.