(ipowercad.corner_stitch.optimization_setup
OptSetup
p0
(dp1
S'electrical_func'
p2
I0
sS'thermal_dev_tbl'
p3
NsS'perf_table'
p4
(dp5
S' 2'
p6
(dp7
S'type'
p8
S'Thermal'
p9
sS'Eval'
p10
S'Maximum'
p11
sS'measure'
p12
ccopy_reg
_reconstructor
p13
(cpowercad.sym_layout.symbolic_layout
ThermalMeasure
p14
c__builtin__
object
p15
Ntp16
Rp17
(dp18
S'units'
p19
S'K'
p20
sS'stat_fn'
p21
I1
sS'name'
p22
g6
sS'devices'
p23
(lp24
g13
(cpowercad.sym_layout.symbolic_layout
SymPoint
p25
g15
Ntp26
Rp27
(dp28
S'center_position'
p29
(F7.08
F32.68
tp30
sS'sym_bondwires'
p31
(lp32
g13
(cpowercad.sym_layout.symbolic_layout
SymLine
p33
g15
Ntp34
Rp35
(dp36
S'child_pts'
p37
NsS'trace'
p38
g13
(g33
g15
Ntp39
Rp40
(dp41
g37
(lp42
sg38
NsS'num_wires'
p43
NsS'dv_index'
p44
I3
sS'trace_connections'
p45
(lp46
g13
(g33
g15
Ntp47
Rp48
(dp49
g37
(lp50
g13
(g25
g15
Ntp51
Rp52
(dp53
g29
(F21.82
F11.739999999999998
tp54
sg31
(lp55
g13
(g33
g15
Ntp56
Rp57
(dp58
g37
Nsg38
g13
(g33
g15
Ntp59
Rp60
(dp61
g37
(lp62
g13
(g25
g15
Ntp63
Rp64
(dp65
g29
(lp66
F27.560000000000002
aF8.0
asg31
(lp67
sS'raw_element'
p68
g13
(cpowercad.sym_layout.svg
LayoutPoint
p69
g15
Ntp70
Rp71
(dp72
S'path_id'
p73
S'L4'
p74
sg22
NsS'pt'
p75
(F6.0
F2.0
tp76
sbsg22
g74
sS'constraint'
p77
Nsg44
NsS'parent_line'
p78
g60
sS'element'
p79
g13
(g69
g15
Ntp80
Rp81
(dp82
g73
g74
sg22
Nsg75
(I6
I2
tp83
sbsS'states'
p84
(lp85
sS'tech'
p86
(ipowercad.design.library_structures
Lead
p87
(dp88
S'lead_type'
p89
I2
sS'shape'
p90
I2
sS'properties'
p91
(ipowercad.design.library_structures
MaterialProperties
p92
(dp93
S'rel_permit'
p94
Nsg22
S'Aluminium'
p95
sS'density'
p96
NsS'rel_permeab'
p97
NsS'electrical_res'
p98
F3e-08
sS'thermal_cond'
p99
NsS'spec_heat_cap'
p100
Nsbsg22
S'Cylindrical Aluminium Lead 1.2mm Diam.'
p101
sS'dimensions'
p102
(F1.2
I10
tp103
sbsS'footprint_rect'
p104
(ipowercad.general.data_struct.util
Rect
p105
(dp106
S'right'
p107
F28.160000000000004
sS'bottom'
p108
F7.4
sS'top'
p109
F8.6
sS'height'
p110
F1.1999999999999993
sS'width'
p111
F1.2000000000000028
sS'left'
p112
F26.96
sbsS'lumped_node'
p113
I89
sS'orientation'
p114
Nsbasg38
Nsg43
Nsg44
I2
sg45
(lp115
sS'intersecting_trace'
p116
NsS'device'
p117
NsS'land_pt'
p118
NsS'dev_pt'
p119
NsS'long_contacts'
p120
(dp121
sS'super_connections'
p122
(lp123
sS'land_pt2'
p124
NsS'wire'
p125
I00
sg68
g13
(cpowercad.sym_layout.svg
LayoutLine
p126
g15
Ntp127
Rp128
(dp129
g73
S'T11'
p130
sS'vertical'
p131
I01
sS'pt2'
p132
(F6.0
F7.0
tp133
sS'pt1'
p134
(F6.0
F1.0
tp135
sbsg22
g130
sS'conn_bonds'
p136
(lp137
g13
(g33
g15
Ntp138
Rp139
(dp140
g37
Nsg38
g60
sg43
I2
sg44
Nsg45
(lp141
sg116
Nsg117
g13
(g25
g15
Ntp142
Rp143
(dp144
g29
(F33.44
F22.44
tp145
sg31
(lp146
g139
ag13
(g33
g15
Ntp147
Rp148
(dp149
g37
Nsg38
g60
sg43
I2
sg44
Nsg45
(lp150
sg116
Nsg117
g143
sg118
(F17.8360453259194
F11.420983468831514
tp151
sg119
I2
sg120
(dp152
sg122
(lp153
sg124
Nsg125
I01
sg68
Nsg136
(lp154
sS'end_pt_conn'
p155
NsS'start_pt_conn'
p156
Nsg77
NsS'end_pts'
p157
(lp158
(F17.8360453259194
F10.100983468831513
tp159
asg79
Nsg86
(ipowercad.design.library_structures
BondWire
p160
(dp161
S'a'
p162
F0.2
sg90
I1
sS'wire_type'
p163
I2
sg22
S'Aluminium Signal Bondwire 0.1mm'
p164
sS'b'
p165
F0.125
sg91
(ipowercad.design.library_structures
MaterialProperties
p166
(dp167
g94
Nsg22
S'Aluminium'
p168
sg96
Nsg97
Nsg98
F3e-08
sg99
Nsg100
Nsbsg102
F0.1
sbsS'has_rect'
p169
I01
sS'start_pts'
p170
(lp171
(F25.261181539839242
F10.100983468831513
tp172
asS'trace_rect'
p173
NsS'trace_line'
p174
NsS'trace2'
p175
NsS'wire_sep'
p176
F0.1
sS'normal_connections'
p177
(lp178
sbag13
(g33
g15
Ntp179
Rp180
(dp181
g43
I2
sg45
(lp182
sg119
I1
sg124
Nsg125
I01
sg68
Nsg136
(lp183
sg156
Nsg157
(lp184
(F28.36
F22.62
tp185
a(F28.36
F23.62
tp186
asg169
I01
sg175
Nsg176
F0.1
sg37
Nsg38
g60
sg173
Nsg44
Nsg116
Nsg117
g143
sg118
(F28.36
F22.44
tp187
sg120
(dp188
sg122
(lp189
sg77
Nsg155
Nsg170
(lp190
(F32.86
F22.62
tp191
a(F32.86
F23.62
tp192
asg79
Nsg86
(ipowercad.design.library_structures
BondWire
p193
(dp194
g162
F0.4
sg163
I1
sg22
S'Aluminium Power Bondwire 0.3x0.2mm'
p195
sg90
I2
sg165
F0.25
sg91
(ipowercad.design.library_structures
MaterialProperties
p196
(dp197
g22
S'Aluminium'
p198
sg96
Nsg98
F3e-08
sg97
Nsg94
Nsg99
Nsg100
Nsbsg102
(F0.3
F0.2
tp199
sbsg177
(lp200
sg174
Nsbag13
(g33
g15
Ntp201
Rp202
(dp203
g43
I2
sg45
(lp204
sg119
I2
sg124
Nsg125
I01
sg68
Nsg136
(lp205
sg156
Nsg157
(lp206
(F25.96
F21.12
tp207
asg169
I01
sg175
Nsg176
F0.1
sg37
Nsg38
g60
sg173
Nsg44
Nsg116
Nsg117
g143
sg118
(F25.96
F22.44
tp208
sg120
(dp209
sg122
(lp210
sg77
Nsg155
Nsg170
(lp211
(F33.86
F21.12
tp212
asg79
Nsg86
(ipowercad.design.library_structures
BondWire
p213
(dp214
g162
F0.2
sg163
I2
sg22
g164
sg90
I1
sg165
F0.125
sg91
(ipowercad.design.library_structures
MaterialProperties
p215
(dp216
g22
g168
sg96
Nsg98
F3e-08
sg97
Nsg94
Nsg99
Nsg100
Nsbsg102
F0.1
sbsg177
(lp217
sg174
Nsbasg68
g13
(g69
g15
Ntp218
Rp219
(dp220
g73
S'M4'
p221
sg22
Nsg75
(F7.0
F5.0
tp222
sbsg22
g221
sg77
Nsg44
I6
sg78
g13
(g33
g15
Ntp223
Rp224
(dp225
g37
(lp226
g143
ag13
(g25
g15
Ntp227
Rp228
(dp229
g29
(F33.44
F17.16
tp230
sg31
(lp231
g13
(g33
g15
Ntp232
Rp233
(dp234
g37
Nsg38
g60
sg43
I2
sg44
Nsg45
(lp235
sg116
Nsg117
g228
sg118
(F18.827171436440562
F6.516436584197466
tp236
sg119
I1
sg120
(dp237
sg122
(lp238
sg124
Nsg125
I01
sg68
Nsg136
(lp239
sg155
Nsg156
Nsg77
Nsg157
(lp240
(F18.827171436440562
F6.696436584197466
tp241
a(F18.827171436440562
F7.696436584197466
tp242
asg79
Nsg86
(ipowercad.design.library_structures
BondWire
p243
(dp244
g162
F0.4
sg90
I2
sg163
I1
sg22
S'Aluminium Power Bondwire 0.3x0.2mm'
p245
sg165
F0.25
sg91
(ipowercad.design.library_structures
MaterialProperties
p246
(dp247
g94
Nsg22
S'Aluminium'
p248
sg96
Nsg97
Nsg98
F3e-08
sg99
Nsg100
Nsbsg102
(F0.3
F0.2
tp249
sbsg169
I01
sg170
(lp250
(F24.261181539839242
F6.696436584197466
tp251
a(F24.261181539839242
F7.696436584197466
tp252
asg173
Nsg174
Nsg175
Nsg176
F0.1
sg177
(lp253
sbag13
(g33
g15
Ntp254
Rp255
(dp256
g37
Nsg38
g60
sg43
I2
sg44
Nsg45
(lp257
sg116
Nsg117
g228
sg118
(F17.8360453259194
F6.516436584197466
tp258
sg119
I2
sg120
(dp259
sg122
(lp260
sg124
Nsg125
I01
sg68
Nsg136
(lp261
sg155
Nsg156
Nsg77
Nsg157
(lp262
(F17.8360453259194
F5.196436584197466
tp263
asg79
Nsg86
(ipowercad.design.library_structures
BondWire
p264
(dp265
g162
F0.2
sg90
I1
sg163
I2
sg22
S'Aluminium Signal Bondwire 0.1mm'
p266
sg165
F0.125
sg91
(ipowercad.design.library_structures
MaterialProperties
p267
(dp268
g94
Nsg22
S'Aluminium'
p269
sg96
Nsg97
Nsg98
F3e-08
sg99
Nsg100
Nsbsg102
F0.1
sbsg169
I01
sg170
(lp270
(F25.261181539839242
F5.196436584197466
tp271
asg173
Nsg174
Nsg175
Nsg176
F0.1
sg177
(lp272
sbag13
(g33
g15
Ntp273
Rp274
(dp275
g43
I2
sg45
(lp276
sg119
I1
sg124
Nsg125
I01
sg68
Nsg136
(lp277
sg156
Nsg157
(lp278
(F28.36
F17.34
tp279
a(F28.36
F18.34
tp280
asg169
I01
sg175
Nsg176
F0.1
sg37
Nsg38
g60
sg173
Nsg44
Nsg116
Nsg117
g228
sg118
(F28.36
F17.16
tp281
sg120
(dp282
sg122
(lp283
sg77
Nsg155
Nsg170
(lp284
(F32.86
F17.34
tp285
a(F32.86
F18.34
tp286
asg79
Nsg86
(ipowercad.design.library_structures
BondWire
p287
(dp288
g162
F0.4
sg163
I1
sg22
g245
sg90
I2
sg165
F0.25
sg91
(ipowercad.design.library_structures
MaterialProperties
p289
(dp290
g22
g248
sg96
Nsg98
F3e-08
sg97
Nsg94
Nsg99
Nsg100
Nsbsg102
g249
sbsg177
(lp291
sg174
Nsbag13
(g33
g15
Ntp292
Rp293
(dp294
g43
I2
sg45
(lp295
sg119
I2
sg124
Nsg125
I01
sg68
Nsg136
(lp296
sg156
Nsg157
(lp297
(F25.96
F15.84
tp298
asg169
I01
sg175
Nsg176
F0.1
sg37
Nsg38
g60
sg173
Nsg44
Nsg116
Nsg117
g228
sg118
(F25.96
F17.16
tp299
sg120
(dp300
sg122
(lp301
sg77
Nsg155
Nsg170
(lp302
(F33.86
F15.84
tp303
asg79
Nsg86
(ipowercad.design.library_structures
BondWire
p304
(dp305
g162
F0.2
sg163
I2
sg22
g266
sg90
I1
sg165
F0.125
sg91
(ipowercad.design.library_structures
MaterialProperties
p306
(dp307
g22
g269
sg96
Nsg98
F3e-08
sg97
Nsg94
Nsg99
Nsg100
Nsbsg102
F0.1
sbsg177
(lp308
sg174
Nsbasg68
g13
(g69
g15
Ntp309
Rp310
(dp311
g73
S'M5'
p312
sg22
Nsg75
(F7.0
F4.0
tp313
sbsg22
g312
sg77
Nsg44
I7
sg78
g224
sg79
g13
(g69
g15
Ntp314
Rp315
(dp316
g73
g312
sg22
Nsg75
(I7
I4
tp317
sbsg84
(lp318
cnumpy.core.multiarray
scalar
p319
(cnumpy
dtype
p320
(S'f8'
p321
I0
I1
tp322
Rp323
(I3
S'<'
p324
NNNI-1
I-1
I0
tp325
bS'\x00\x00\x00\x00\x00\x00\x00\x00'
p326
tp327
Rp328
ag319
(g323
S'\x00\x00\x00\x00\x00\x00\x00\x00'
p329
tp330
Rp331
ag319
(g323
S'\x00\x00\x00\x00\x00\x00\x00\x00'
p332
tp333
Rp334
asg86
(ipowercad.design.project_structures
DeviceInstance
p335
(dp336
S'attach_thickness'
p337
F0.01
sS'heat_flow'
p338
F3.0
sS'attach_tech'
p339
(ipowercad.design.library_structures
DieAttach
p340
(dp341
g91
(ipowercad.design.library_structures
MaterialProperties
p342
(dp343
g94
Nsg22
S'Pb-Sn Solder Alloy'
p344
sg96
F11020.0
sg97
Nsg98
Nsg99
F35.8
sg100
F130.0
sbsbsS'device_tech'
p345
(ipowercad.design.library_structures
Device
p346
(dp347
S'power_side'
p348
I1
sg22
S'CPM2-1200-0080B-MOS'
p349
sS'device_type'
p350
I1
sS'wire_landings'
p351
(lp352
(ipowercad.design.library_structures
BondwireLanding
p353
(dp354
S'position'
p355
(F1.0
F3.0
tp356
sS'bond_type'
p357
I2
sba(ipowercad.design.library_structures
BondwireLanding
p358
(dp359
g355
(F2.0
F1.5
tp360
sg357
I1
sba(ipowercad.design.library_structures
BondwireLanding
p361
(dp362
g355
(F2.0
F0.5
tp363
sg357
I1
sbasS'device_model'
p364
Nsg91
(ipowercad.design.library_structures
MaterialProperties
p365
(dp366
S'young_mdl'
p367
NsS'poi_rat'
p368
Nsg22
Nsg96
F3100.0
sS'expansion_coeff'
p369
Nsg98
Nsg97
Nsg94
Nsg99
F370.0
sS'id'
p370
Nsg100
F750.0
sbsg102
(F3.1
F3.36
F0.22
tp371
sbsS'thermal_features'
p372
(ipowercad.thermal.fast_thermal
DieThermalFeatures
p373
(dp374
S'eff_power'
p375
F2.815810317738009
sS'die_res'
p376
F0.08390209327315112
sS'die_power'
p377
F3.0
sS'iso_top_temps'
p378
(lp379
(ipowercad.thermal.fast_thermal
ContourRect
p380
(dp381
g111
F3.1
sS'avg_val'
p382
F7.122843879714676
sg110
F3.2032032032032034
sba(ipowercad.thermal.fast_thermal
ContourRect
p383
(dp384
g111
F7.199999999999999
sg382
F6.195886377251021
sg110
F7.257257257257257
sba(ipowercad.thermal.fast_thermal
ContourRect
p385
(dp386
g111
F11.299999999999999
sg382
F5.82479632383603
sg110
F11.361361361361363
sba(ipowercad.thermal.fast_thermal
ContourRect
p387
(dp388
g111
F15.399999999999999
sg382
F5.719809716328077
sg110
F15.365365365365367
sba(ipowercad.thermal.fast_thermal
ContourRect
p389
(dp390
g111
F19.5
sg382
F5.665395068731171
sg110
F19.46946946946947
sba(ipowercad.thermal.fast_thermal
ContourRect
p391
(dp392
g111
F23.6
sg382
F5.628904479651517
sg110
F23.523523523523526
sba(ipowercad.thermal.fast_thermal
ContourRect
p393
(dp394
g111
F27.7
sg382
F5.60182383903479
sg110
F27.57757757757758
sba(ipowercad.thermal.fast_thermal
ContourRect
p395
(dp396
g111
F31.799999999999997
sg382
F5.580976751553924
sg110
F31.481481481481485
sba(ipowercad.thermal.fast_thermal
ContourRect
p397
(dp398
g111
F35.9
sg382
F5.565404840807914
sg110
F34.88488488488489
sba(ipowercad.thermal.fast_thermal
ContourRect
p399
(dp400
g111
F40.0
sg382
F5.553110320150989
sg110
F38.38838838838839
sbasS'iso_top_avg_temp'
p401
F5.612647129999999
sS'self_temp'
p402
F7.0795867466334075
sS'iso_top_fluxes'
p403
(lp404
(ipowercad.thermal.fast_thermal
ContourRect
p405
(dp406
g111
F3.1
sg382
F0.1490142399808351
sg110
F2.752752752752753
sba(ipowercad.thermal.fast_thermal
ContourRect
p407
(dp408
g111
F4.253253253253254
sg382
F0.08143094757300282
sg110
F4.054054054054054
sba(ipowercad.thermal.fast_thermal
ContourRect
p409
(dp410
g111
F5.406506506506506
sg382
F0.03177977525900483
sg110
F5.405405405405406
sba(ipowercad.thermal.fast_thermal
ContourRect
p411
(dp412
g111
F6.5597597597597606
sg382
F0.011957215287250638
sg110
F6.406406406406407
sba(ipowercad.thermal.fast_thermal
ContourRect
p413
(dp414
g111
F7.713013013013013
sg382
F0.006323006347286486
sg110
F7.357357357357357
sba(ipowercad.thermal.fast_thermal
ContourRect
p415
(dp416
g111
F8.866266266266267
sg382
F0.004067180676208915
sg110
F7.807807807807809
sba(ipowercad.thermal.fast_thermal
ContourRect
p417
(dp418
g111
F10.01951951951952
sg382
F0.0030276207000371437
sg110
F8.358358358358359
sba(ipowercad.thermal.fast_thermal
ContourRect
p419
(dp420
g111
F11.172772772772772
sg382
F0.002137082119879503
sg110
F9.50950950950951
sba(ipowercad.thermal.fast_thermal
ContourRect
p421
(dp422
g111
F12.326026026026026
sg382
F0.001101283879651085
sg110
F11.211211211211213
sba(ipowercad.thermal.fast_thermal
ContourRect
p423
(dp424
g111
F13.479279279279279
sg382
F0.000394061760365258
sg110
F15.915915915915917
sbasbsbsg104
(ipowercad.general.data_struct.util
Rect
p425
(dp426
g107
F34.86
sg108
F15.48
sg109
F18.84
sg110
F3.3599999999999994
sg111
F3.099999999999998
sg112
F31.76
sbsg113
I56
sg114
I2
sbag13
(g25
g15
Ntp427
Rp428
(dp429
g29
(F33.44
F11.879999999999999
tp430
sg31
(lp431
g13
(g33
g15
Ntp432
Rp433
(dp434
g37
Nsg38
g60
sg43
I2
sg44
Nsg45
(lp435
sg116
Nsg117
g428
sg118
(F18.827171436440562
F17.695834728619666
tp436
sg119
I1
sg120
(dp437
sg122
(lp438
sg124
Nsg125
I01
sg68
Nsg136
(lp439
sg155
Nsg156
Nsg77
Nsg157
(lp440
(F18.827171436440562
F17.875834728619665
tp441
a(F18.827171436440562
F18.875834728619665
tp442
asg79
Nsg86
(ipowercad.design.library_structures
BondWire
p443
(dp444
g162
F0.4
sg90
I2
sg163
I1
sg22
S'Aluminium Power Bondwire 0.3x0.2mm'
p445
sg165
F0.25
sg91
(ipowercad.design.library_structures
MaterialProperties
p446
(dp447
g94
Nsg22
S'Aluminium'
p448
sg96
Nsg97
Nsg98
F3e-08
sg99
Nsg100
Nsbsg102
(F0.3
F0.2
tp449
sbsg169
I01
sg170
(lp450
(F24.261181539839242
F17.875834728619665
tp451
a(F24.261181539839242
F18.875834728619665
tp452
asg173
Nsg174
Nsg175
Nsg176
F0.1
sg177
(lp453
sbag13
(g33
g15
Ntp454
Rp455
(dp456
g37
Nsg38
g60
sg43
I2
sg44
Nsg45
(lp457
sg116
Nsg117
g428
sg118
(F17.8360453259194
F17.695834728619666
tp458
sg119
I2
sg120
(dp459
sg122
(lp460
sg124
Nsg125
I01
sg68
Nsg136
(lp461
sg155
Nsg156
Nsg77
Nsg157
(lp462
(F17.8360453259194
F16.375834728619665
tp463
asg79
Nsg86
(ipowercad.design.library_structures
BondWire
p464
(dp465
g162
F0.2
sg90
I1
sg163
I2
sg22
S'Aluminium Signal Bondwire 0.1mm'
p466
sg165
F0.125
sg91
(ipowercad.design.library_structures
MaterialProperties
p467
(dp468
g94
Nsg22
S'Aluminium'
p469
sg96
Nsg97
Nsg98
F3e-08
sg99
Nsg100
Nsbsg102
F0.1
sbsg169
I01
sg170
(lp470
(F25.261181539839242
F16.375834728619665
tp471
asg173
Nsg174
Nsg175
Nsg176
F0.1
sg177
(lp472
sbag13
(g33
g15
Ntp473
Rp474
(dp475
g43
I2
sg45
(lp476
sg119
I1
sg124
Nsg125
I01
sg68
Nsg136
(lp477
sg156
Nsg157
(lp478
(F28.36
F12.059999999999999
tp479
a(F28.36
F13.059999999999999
tp480
asg169
I01
sg175
Nsg176
F0.1
sg37
Nsg38
g60
sg173
Nsg44
Nsg116
Nsg117
g428
sg118
(F28.36
F11.879999999999999
tp481
sg120
(dp482
sg122
(lp483
sg77
Nsg155
Nsg170
(lp484
(F32.86
F12.059999999999999
tp485
a(F32.86
F13.059999999999999
tp486
asg79
Nsg86
(ipowercad.design.library_structures
BondWire
p487
(dp488
g162
F0.4
sg163
I1
sg22
g445
sg90
I2
sg165
F0.25
sg91
(ipowercad.design.library_structures
MaterialProperties
p489
(dp490
g22
g448
sg96
Nsg98
F3e-08
sg97
Nsg94
Nsg99
Nsg100
Nsbsg102
g449
sbsg177
(lp491
sg174
Nsbag13
(g33
g15
Ntp492
Rp493
(dp494
g43
I2
sg45
(lp495
sg119
I2
sg124
Nsg125
I01
sg68
Nsg136
(lp496
sg156
Nsg157
(lp497
(F25.96
F10.559999999999999
tp498
asg169
I01
sg175
Nsg176
F0.1
sg37
Nsg38
g60
sg173
Nsg44
Nsg116
Nsg117
g428
sg118
(F25.96
F11.879999999999999
tp499
sg120
(dp500
sg122
(lp501
sg77
Nsg155
Nsg170
(lp502
(F33.86
F10.559999999999999
tp503
asg79
Nsg86
(ipowercad.design.library_structures
BondWire
p504
(dp505
g162
F0.2
sg163
I2
sg22
g466
sg90
I1
sg165
F0.125
sg91
(ipowercad.design.library_structures
MaterialProperties
p506
(dp507
g22
g469
sg96
Nsg98
F3e-08
sg97
Nsg94
Nsg99
Nsg100
Nsbsg102
F0.1
sbsg177
(lp508
sg174
Nsbasg68
g13
(g69
g15
Ntp509
Rp510
(dp511
g73
S'M6'
p512
sg22
Nsg75
(F7.0
F3.0
tp513
sbsg22
g512
sg77
Nsg44
I8
sg78
g224
sg79
g13
(g69
g15
Ntp514
Rp515
(dp516
g73
g512
sg22
Nsg75
(I7
I3
tp517
sbsg84
(lp518
g319
(g323
S'\x00\x00\x00\x00\x00\x00\x00\x00'
p519
tp520
Rp521
ag319
(g323
S'\x00\x00\x00\x00\x00\x00\x00\x00'
p522
tp523
Rp524
ag319
(g323
S'\x00\x00\x00\x00\x00\x00\x00\x00'
p525
tp526
Rp527
asg86
g335
sg104
(ipowercad.general.data_struct.util
Rect
p528
(dp529
g107
F34.86
sg108
F10.2
sg109
F13.559999999999999
sg110
F3.3599999999999994
sg111
F3.099999999999998
sg112
F31.76
sbsg113
I61
sg114
I2
sbasg38
Nsg43
Nsg44
I3
sg45
(lp530
g13
(g33
g15
Ntp531
Rp532
(dp533
g37
(lp534
g13
(g25
g15
Ntp535
Rp536
(dp537
g29
(lp538
F27.560000000000002
aF3.2
asg31
(lp539
sg68
g13
(g69
g15
Ntp540
Rp541
(dp542
g73
S'L5'
p543
sg22
Nsg75
(F6.0
F0.0
tp544
sbsg22
g543
sg77
Nsg44
Nsg78
g532
sg79
g13
(g69
g15
Ntp545
Rp546
(dp547
g73
g543
sg22
Nsg75
(I6
I0
tp548
sbsg84
(lp549
sg86
g87
sg104
(ipowercad.general.data_struct.util
Rect
p550
(dp551
g107
F28.160000000000004
sg108
F2.6
sg109
F3.8000000000000003
sg110
F1.2000000000000002
sg111
F1.2000000000000028
sg112
F26.96
sbsg113
I86
sg114
Nsbasg38
Nsg43
Nsg44
I0
sg45
(lp552
g48
ag224
ag48
ag224
asg116
Nsg117
Nsg118
Nsg119
Nsg120
(dp553
sg122
(lp554
sg124
Nsg125
I00
sg68
g13
(g126
g15
Ntp555
Rp556
(dp557
g73
S'T6'
p558
sg131
I00
sg132
(F7.0
F0.0
tp559
sg134
(F5.0
F0.0
tp560
sbsg22
g558
sg136
(lp561
sg155
Nsg156
Nsg77
Nsg157
Nsg79
g13
(g126
g15
Ntp562
Rp563
(dp564
g73
g558
sg131
I00
sg132
(I7
I0
tp565
sg134
(I5
I0
tp566
sbsg86
Nsg169
I01
sg170
Nsg173
(ipowercad.corner_stitch.CornerStitch
Rectangle
p567
(dp568
g107
F36.32
sg22
NsS'Echar'
p569
NsS'Netid'
p570
Nsg109
F5.6
sg108
F2.0
sS'Schar'
p571
Nsg110
F3.5999999999999996
sg111
F17.240000000000002
sS'y'
p572
F2.0
sS'x'
p573
F19.08
sg8
S'Type_1'
p574
sg112
F19.08
sbsg174
g13
(g126
g15
Ntp575
Rp576
(dp577
g73
g558
sg134
(I1
I0
tp578
sg132
(I3
I0
tp579
sg131
I00
sbsg175
Nsg176
Nsg177
(lp580
sbag13
(g33
g15
Ntp581
Rp582
(dp583
g37
(lp584
sg38
Nsg43
Nsg44
I4
sg45
(lp585
g224
ag224
asg116
Nsg117
Nsg118
Nsg119
Nsg120
(dp586
sg122
(lp587
sg124
Nsg125
I00
sg68
g13
(g126
g15
Ntp588
Rp589
(dp590
g73
S'T8'
p591
sg131
I00
sg132
(F11.0
F7.0
tp592
sg134
(F7.0
F7.0
tp593
sbsg22
g591
sg136
(lp594
g13
(g33
g15
Ntp595
Rp596
(dp597
g37
Nsg38
g582
sg43
I2
sg44
Nsg45
(lp598
sg116
Nsg117
g13
(g25
g15
Ntp599
Rp600
(dp601
g29
(F41.26
F32.68
tp602
sg31
(lp603
g596
ag13
(g33
g15
Ntp604
Rp605
(dp606
g43
I2
sg45
(lp607
sg119
I1
sg124
Nsg125
I01
sg68
Nsg136
(lp608
sg156
Nsg157
(lp609
(F41.86
F27.24
tp610
asg169
I01
sg175
Nsg176
F0.1
sg37
Nsg38
g582
sg173
Nsg44
Nsg116
Nsg117
g600
sg118
(F41.26
F27.24
tp611
sg120
(dp612
sg122
(lp613
sg77
Nsg155
Nsg170
(lp614
(F41.86
F31.48
tp615
asg79
Nsg86
(ipowercad.design.library_structures
BondWire
p616
(dp617
g162
F0.4
sg163
I1
sg22
S'Aluminium Power Bondwire 0.3x0.2mm'
p618
sg90
I2
sg165
F0.25
sg91
(ipowercad.design.library_structures
MaterialProperties
p619
(dp620
g22
S'Aluminium'
p621
sg96
Nsg98
F3e-08
sg97
Nsg94
Nsg99
Nsg100
Nsbsg102
(F0.3
F0.2
tp622
sbsg177
(lp623
sg174
Nsbasg68
g13
(g69
g15
Ntp624
Rp625
(dp626
g73
S'D1'
p627
sg22
Nsg75
(F8.0
F8.0
tp628
sbsg22
g627
sg77
Nsg44
I9
sg78
g13
(g33
g15
Ntp629
Rp630
(dp631
g37
(lp632
g600
ag13
(g25
g15
Ntp633
Rp634
(dp635
g29
(F49.94
F32.68
tp636
sg31
(lp637
g13
(g33
g15
Ntp638
Rp639
(dp640
g37
Nsg38
g582
sg43
I2
sg44
Nsg45
(lp641
sg116
Nsg117
g634
sg118
(F30.193075962265823
F24.751651574493607
tp642
sg119
I1
sg120
(dp643
sg122
(lp644
sg124
Nsg125
I01
sg68
Nsg136
(lp645
sg155
Nsg156
Nsg77
Nsg157
(lp646
(F30.793075962265824
F24.751651574493607
tp647
asg79
Nsg86
(ipowercad.design.library_structures
BondWire
p648
(dp649
g162
F0.4
sg90
I2
sg163
I1
sg22
S'Aluminium Power Bondwire 0.3x0.2mm'
p650
sg165
F0.25
sg91
(ipowercad.design.library_structures
MaterialProperties
p651
(dp652
g94
Nsg22
S'Aluminium'
p653
sg96
Nsg97
Nsg98
F3e-08
sg99
Nsg100
Nsbsg102
(F0.3
F0.2
tp654
sbsg169
I01
sg170
(lp655
(F30.793075962265824
F32.825038687536775
tp656
asg173
Nsg174
Nsg175
Nsg176
F0.1
sg177
(lp657
sbag13
(g33
g15
Ntp658
Rp659
(dp660
g43
I2
sg45
(lp661
sg119
I1
sg124
Nsg125
I01
sg68
Nsg136
(lp662
sg156
Nsg157
(lp663
(F50.54
F27.24
tp664
asg169
I01
sg175
Nsg176
F0.1
sg37
Nsg38
g582
sg173
Nsg44
Nsg116
Nsg117
g634
sg118
(F49.94
F27.24
tp665
sg120
(dp666
sg122
(lp667
sg77
Nsg155
Nsg170
(lp668
(F50.54
F31.48
tp669
asg79
Nsg86
(ipowercad.design.library_structures
BondWire
p670
(dp671
g162
F0.4
sg163
I1
sg22
g650
sg90
I2
sg165
F0.25
sg91
(ipowercad.design.library_structures
MaterialProperties
p672
(dp673
g22
g653
sg96
Nsg98
F3e-08
sg97
Nsg94
Nsg99
Nsg100
Nsbsg102
g654
sbsg177
(lp674
sg174
Nsbasg68
g13
(g69
g15
Ntp675
Rp676
(dp677
g73
S'D2'
p678
sg22
Nsg75
(F9.0
F8.0
tp679
sbsg22
g678
sg77
Nsg44
I10
sg78
g630
sg79
g13
(g69
g15
Ntp680
Rp681
(dp682
g73
g678
sg22
Nsg75
(I9
I8
tp683
sbsg84
(lp684
g319
(g323
S'\x00\x00\x00\x00\x00\x00\x00\x00'
p685
tp686
Rp687
asg86
(ipowercad.design.project_structures
DeviceInstance
p688
(dp689
g337
F0.01
sg338
F3.0
sg339
(ipowercad.design.library_structures
DieAttach
p690
(dp691
g91
(ipowercad.design.library_structures
MaterialProperties
p692
(dp693
g94
Nsg22
S'Pb-Sn Solder Alloy'
p694
sg96
F11020.0
sg97
Nsg98
Nsg99
F35.8
sg100
F130.0
sbsbsg345
(ipowercad.design.library_structures
Device
p695
(dp696
g348
I1
sg22
S'CPW4-1200S020B SiC-Diode'
p697
sg350
I2
sg351
(lp698
(ipowercad.design.library_structures
BondwireLanding
p699
(dp700
g355
(F0.84
F0.94
tp701
sg357
I1
sbasg364
Nsg91
(ipowercad.design.library_structures
MaterialProperties
p702
(dp703
g94
Nsg22
Nsg96
F3200.0
sg97
Nsg98
Nsg99
F120.0
sg100
F750.0
sbsg102
(F3.08
F3.08
F0.377
tp704
sbsg372
(ipowercad.thermal.fast_thermal
DieThermalFeatures
p705
(dp706
g375
F2.8382217536309233
sg376
F0.3606211287322076
sg377
F3.0
sg378
(lp707
(ipowercad.thermal.fast_thermal
ContourRect
p708
(dp709
g111
F3.08
sg382
F7.216718163628425
sg110
F3.0030030030030033
sba(ipowercad.thermal.fast_thermal
ContourRect
p710
(dp711
g111
F7.182222222222222
sg382
F6.201372454139829
sg110
F7.157157157157157
sba(ipowercad.thermal.fast_thermal
ContourRect
p712
(dp713
g111
F11.284444444444444
sg382
F5.827007593837798
sg110
F11.161161161161163
sba(ipowercad.thermal.fast_thermal
ContourRect
p714
(dp715
g111
F15.386666666666667
sg382
F5.720826348934478
sg110
F15.265265265265267
sba(ipowercad.thermal.fast_thermal
ContourRect
p716
(dp717
g111
F19.488888888888887
sg382
F5.665737706646163
sg110
F19.41941941941942
sba(ipowercad.thermal.fast_thermal
ContourRect
p718
(dp719
g111
F23.59111111111111
sg382
F5.629078594652856
sg110
F23.473473473473476
sba(ipowercad.thermal.fast_thermal
ContourRect
p720
(dp721
g111
F27.693333333333335
sg382
F5.602043669753269
sg110
F27.47747747747748
sba(ipowercad.thermal.fast_thermal
ContourRect
p722
(dp723
g111
F31.795555555555552
sg382
F5.581064549554261
sg110
F31.481481481481485
sba(ipowercad.thermal.fast_thermal
ContourRect
p724
(dp725
g111
F35.897777777777776
sg382
F5.565375469027432
sg110
F34.88488488488489
sba(ipowercad.thermal.fast_thermal
ContourRect
p726
(dp727
g111
F40.0
sg382
F5.553074492150306
sg110
F38.38838838838839
sbasg401
F5.612626814999999
sg402
F7.191335510854267
sg403
(lp728
(ipowercad.thermal.fast_thermal
ContourRect
p729
(dp730
g111
F3.08
sg382
F0.16157931425689082
sg110
F2.702702702702703
sba(ipowercad.thermal.fast_thermal
ContourRect
p731
(dp732
g111
F4.209240351462574
sg382
F0.08574608272227874
sg110
F3.753753753753754
sba(ipowercad.thermal.fast_thermal
ContourRect
p733
(dp734
g111
F5.338480702925148
sg382
F0.03471426674440198
sg110
F4.954954954954955
sba(ipowercad.thermal.fast_thermal
ContourRect
p735
(dp736
g111
F6.467721054387721
sg382
F0.012655633755992862
sg110
F6.106106106106107
sba(ipowercad.thermal.fast_thermal
ContourRect
p737
(dp738
g111
F7.596961405850295
sg382
F0.006781958030982951
sg110
F7.207207207207207
sba(ipowercad.thermal.fast_thermal
ContourRect
p739
(dp740
g111
F8.726201757312868
sg382
F0.0043983680166397995
sg110
F7.7077077077077085
sba(ipowercad.thermal.fast_thermal
ContourRect
p741
(dp742
g111
F9.855442108775442
sg382
F0.0032033147250979336
sg110
F8.208208208208209
sba(ipowercad.thermal.fast_thermal
ContourRect
p743
(dp744
g111
F10.984682460238016
sg382
F0.0021805843682154917
sg110
F9.50950950950951
sba(ipowercad.thermal.fast_thermal
ContourRect
p745
(dp746
g111
F12.11392281170059
sg382
F0.0010440508748991663
sg110
F11.611611611611613
sba(ipowercad.thermal.fast_thermal
ContourRect
p747
(dp748
g111
F13.243163163163164
sg382
F0.00038127798578774117
sg110
F15.765765765765767
sbasbsbsg104
(ipowercad.general.data_struct.util
Rect
p749
(dp750
g107
F51.48
sg108
F30.64
sg109
F33.72
sg110
F3.0799999999999983
sg111
F3.0799999999999983
sg112
F48.4
sbsg113
I73
sg114
I3
sbag13
(g25
g15
Ntp751
Rp752
(dp753
g29
(F56.22
F32.68
tp754
sg31
(lp755
g13
(g33
g15
Ntp756
Rp757
(dp758
g37
Nsg38
g582
sg43
I2
sg44
Nsg45
(lp759
sg116
Nsg117
g752
sg118
(F34.36000000000001
F24.751651574493607
tp760
sg119
I1
sg120
(dp761
sg122
(lp762
sg124
Nsg125
I01
sg68
Nsg136
(lp763
sg155
Nsg156
Nsg77
Nsg157
(lp764
(F34.96000000000001
F24.751651574493607
tp765
asg79
Nsg86
(ipowercad.design.library_structures
BondWire
p766
(dp767
g162
F0.4
sg90
I2
sg163
I1
sg22
S'Aluminium Power Bondwire 0.3x0.2mm'
p768
sg165
F0.25
sg91
(ipowercad.design.library_structures
MaterialProperties
p769
(dp770
g94
Nsg22
S'Aluminium'
p771
sg96
Nsg97
Nsg98
F3e-08
sg99
Nsg100
Nsbsg102
(F0.3
F0.2
tp772
sbsg169
I01
sg170
(lp773
(F34.96000000000001
F32.825038687536775
tp774
asg173
Nsg174
Nsg175
Nsg176
F0.1
sg177
(lp775
sbag13
(g33
g15
Ntp776
Rp777
(dp778
g43
I2
sg45
(lp779
sg119
I1
sg124
Nsg125
I01
sg68
Nsg136
(lp780
sg156
Nsg157
(lp781
(F56.82
F27.24
tp782
asg169
I01
sg175
Nsg176
F0.1
sg37
Nsg38
g582
sg173
Nsg44
Nsg116
Nsg117
g752
sg118
(F56.22
F27.24
tp783
sg120
(dp784
sg122
(lp785
sg77
Nsg155
Nsg170
(lp786
(F56.82
F31.48
tp787
asg79
Nsg86
(ipowercad.design.library_structures
BondWire
p788
(dp789
g162
F0.4
sg163
I1
sg22
g768
sg90
I2
sg165
F0.25
sg91
(ipowercad.design.library_structures
MaterialProperties
p790
(dp791
g22
g771
sg96
Nsg98
F3e-08
sg97
Nsg94
Nsg99
Nsg100
Nsbsg102
g772
sbsg177
(lp792
sg174
Nsbasg68
g13
(g69
g15
Ntp793
Rp794
(dp795
g73
S'D3'
p796
sg22
Nsg75
(F10.0
F8.0
tp797
sbsg22
g796
sg77
Nsg44
I11
sg78
g630
sg79
g13
(g69
g15
Ntp798
Rp799
(dp800
g73
g796
sg22
Nsg75
(I10
I8
tp801
sbsg84
(lp802
g319
(g323
S'\x00\x00\x00\x00\x00\x00\x00\x00'
p803
tp804
Rp805
asg86
g688
sg104
(ipowercad.general.data_struct.util
Rect
p806
(dp807
g107
F57.76
sg108
F30.64
sg109
F33.72
sg110
F3.0799999999999983
sg111
F3.0799999999999983
sg112
F54.68
sbsg113
I76
sg114
I3
sbasg38
Nsg43
Nsg44
I7
sg45
(lp808
g13
(g33
g15
Ntp809
Rp810
(dp811
g37
(lp812
g13
(g25
g15
Ntp813
Rp814
(dp815
g29
(lp816
F27.560000000000002
aF30.64
asg31
(lp817
sg68
g13
(g69
g15
Ntp818
Rp819
(dp820
g73
S'L3'
p821
sg22
Nsg75
(F6.0
F8.0
tp822
sbsg22
g821
sg77
Nsg44
Nsg78
g810
sg79
g13
(g69
g15
Ntp823
Rp824
(dp825
g73
g821
sg22
Nsg75
(I6
I8
tp826
sbsg84
(lp827
sg86
g87
sg104
(ipowercad.general.data_struct.util
Rect
p828
(dp829
g107
F28.160000000000004
sg108
F30.04
sg109
F31.240000000000002
sg110
F1.2000000000000028
sg111
F1.2000000000000028
sg112
F26.96
sbsg113
I88
sg114
Nsbasg38
Nsg43
Nsg44
I5
sg45
(lp830
g630
ag13
(g33
g15
Ntp831
Rp832
(dp833
g37
(lp834
g27
ag13
(g25
g15
Ntp835
Rp836
(dp837
g29
(F11.64
F32.68
tp838
sg31
(lp839
g13
(g33
g15
Ntp840
Rp841
(dp842
g37
Nsg38
g40
sg43
I2
sg44
Nsg45
(lp843
sg116
Nsg117
g836
sg118
(F5.629421148513528
F23.12931450062867
tp844
sg119
I1
sg120
(dp845
sg122
(lp846
sg124
Nsg125
I01
sg68
Nsg136
(lp847
sg155
Nsg156
Nsg77
Nsg157
(lp848
(F5.809421148513528
F23.12931450062867
tp849
a(F6.809421148513528
F23.12931450062867
tp850
asg79
Nsg86
(ipowercad.design.library_structures
BondWire
p851
(dp852
g162
F0.4
sg90
I2
sg163
I1
sg22
S'Aluminium Power Bondwire 0.3x0.2mm'
p853
sg165
F0.25
sg91
(ipowercad.design.library_structures
MaterialProperties
p854
(dp855
g94
Nsg22
S'Aluminium'
p856
sg96
Nsg97
Nsg98
F3e-08
sg99
Nsg100
Nsbsg102
(F0.3
F0.2
tp857
sbsg169
I01
sg170
(lp858
(F5.809421148513528
F33.97503868753678
tp859
a(F6.809421148513528
F33.97503868753678
tp860
asg173
Nsg174
Nsg175
Nsg176
F0.1
sg177
(lp861
sbag13
(g33
g15
Ntp862
Rp863
(dp864
g37
Nsg38
g13
(g33
g15
Ntp865
Rp866
(dp867
g37
(lp868
g13
(g25
g15
Ntp869
Rp870
(dp871
g29
(lp872
F3.8000000000000003
aF38.32
asg31
(lp873
sg68
g13
(g69
g15
Ntp874
Rp875
(dp876
g73
S'L2'
p877
sg22
Nsg75
(F1.0
F9.0
tp878
sbsg22
g877
sg77
Nsg44
Nsg78
g866
sg79
g13
(g69
g15
Ntp879
Rp880
(dp881
g73
g877
sg22
Nsg75
(I1
I9
tp882
sbsg84
(lp883
sg86
g87
sg104
(ipowercad.general.data_struct.util
Rect
p884
(dp885
g107
F4.4
sg108
F37.72
sg109
F38.92
sg110
F1.2000000000000028
sg111
F1.2000000000000002
sg112
F3.2
sbsg113
I84
sg114
Nsbasg38
Nsg43
Nsg44
I8
sg45
(lp886
sg116
Nsg117
Nsg118
Nsg119
Nsg120
(dp887
sg122
(lp888
sg124
Nsg125
I00
sg68
g13
(g126
g15
Ntp889
Rp890
(dp891
g73
S'T2'
p892
sg131
I00
sg132
(F5.0
F9.0
tp893
sg134
(F0.0
F9.0
tp894
sbsg22
g892
sg136
(lp895
g13
(g33
g15
Ntp896
Rp897
(dp898
g37
Nsg38
g866
sg43
I2
sg44
Nsg45
(lp899
sg116
Nsg117
g27
sg118
(F10.827967512118564
F41.49842580057996
tp900
sg119
I2
sg120
(dp901
sg122
(lp902
sg124
Nsg125
I01
sg68
Nsg136
(lp903
sg155
Nsg156
Nsg77
Nsg157
(lp904
(F9.507967512118563
F41.49842580057996
tp905
asg79
Nsg86
(ipowercad.design.library_structures
BondWire
p906
(dp907
g162
F0.2
sg90
I1
sg163
I2
sg22
S'Aluminium Signal Bondwire 0.1mm'
p908
sg165
F0.125
sg91
(ipowercad.design.library_structures
MaterialProperties
p909
(dp910
g94
Nsg22
S'Aluminium'
p911
sg96
Nsg97
Nsg98
F3e-08
sg99
Nsg100
Nsbsg102
F0.1
sbsg169
I01
sg170
(lp912
(F9.507967512118563
F32.97503868753678
tp913
asg173
Nsg174
Nsg175
Nsg176
F0.1
sg177
(lp914
sbag863
ag13
(g33
g15
Ntp915
Rp916
(dp917
g37
Nsg38
g866
sg43
I2
sg44
Nsg45
(lp918
sg116
Nsg117
g13
(g25
g15
Ntp919
Rp920
(dp921
g29
(F16.2
F32.68
tp922
sg31
(lp923
g13
(g33
g15
Ntp924
Rp925
(dp926
g37
Nsg38
g40
sg43
I2
sg44
Nsg45
(lp927
sg116
Nsg117
g920
sg118
(F1.78
F23.12931450062867
tp928
sg119
I1
sg120
(dp929
sg122
(lp930
sg124
Nsg125
I01
sg68
Nsg136
(lp931
sg155
Nsg156
Nsg77
Nsg157
(lp932
(F1.96
F23.12931450062867
tp933
a(F2.96
F23.12931450062867
tp934
asg79
Nsg86
(ipowercad.design.library_structures
BondWire
p935
(dp936
g162
F0.4
sg90
I2
sg163
I1
sg22
S'Aluminium Power Bondwire 0.3x0.2mm'
p937
sg165
F0.25
sg91
(ipowercad.design.library_structures
MaterialProperties
p938
(dp939
g94
Nsg22
S'Aluminium'
p940
sg96
Nsg97
Nsg98
F3e-08
sg99
Nsg100
Nsbsg102
(F0.3
F0.2
tp941
sbsg169
I01
sg170
(lp942
(F1.96
F33.97503868753678
tp943
a(F2.96
F33.97503868753678
tp944
asg173
Nsg174
Nsg175
Nsg176
F0.1
sg177
(lp945
sbag916
ag13
(g33
g15
Ntp946
Rp947
(dp948
g43
I2
sg45
(lp949
sg119
I1
sg124
Nsg125
I01
sg68
Nsg136
(lp950
sg156
Nsg157
(lp951
(F16.38
F27.24
tp952
a(F17.38
F27.24
tp953
asg169
I01
sg175
Nsg176
F0.1
sg37
Nsg38
g40
sg173
Nsg44
Nsg116
Nsg117
g920
sg118
(F16.2
F27.24
tp954
sg120
(dp955
sg122
(lp956
sg77
Nsg155
Nsg170
(lp957
(F16.38
F32.64
tp958
a(F17.38
F32.64
tp959
asg79
Nsg86
(ipowercad.design.library_structures
BondWire
p960
(dp961
g162
F0.4
sg163
I1
sg22
g937
sg90
I2
sg165
F0.25
sg91
(ipowercad.design.library_structures
MaterialProperties
p962
(dp963
g22
g940
sg96
Nsg98
F3e-08
sg97
Nsg94
Nsg99
Nsg100
Nsbsg102
g941
sbsg177
(lp964
sg174
Nsbag13
(g33
g15
Ntp965
Rp966
(dp967
g43
I2
sg45
(lp968
sg119
I2
sg124
Nsg125
I01
sg68
Nsg136
(lp969
sg156
Nsg157
(lp970
(F14.879999999999999
F37.32
tp971
asg169
I01
sg175
Nsg176
F0.1
sg37
Nsg38
g866
sg173
Nsg44
Nsg116
Nsg117
g920
sg118
(F16.2
F37.32
tp972
sg120
(dp973
sg122
(lp974
sg77
Nsg155
Nsg170
(lp975
(F14.879999999999999
F31.639999999999997
tp976
asg79
Nsg86
(ipowercad.design.library_structures
BondWire
p977
(dp978
g162
F0.2
sg163
I2
sg22
S'Aluminium Signal Bondwire 0.1mm'
p979
sg90
I1
sg165
F0.125
sg91
(ipowercad.design.library_structures
MaterialProperties
p980
(dp981
g22
S'Aluminium'
p982
sg96
Nsg98
F3e-08
sg97
Nsg94
Nsg99
Nsg100
Nsbsg102
F0.1
sbsg177
(lp983
sg174
Nsbasg68
g13
(g69
g15
Ntp984
Rp985
(dp986
g73
S'M3'
p987
sg22
Nsg75
(F4.0
F8.0
tp988
sbsg22
g987
sg77
Nsg44
I2
sg78
g832
sg79
g13
(g69
g15
Ntp989
Rp990
(dp991
g73
g987
sg22
Nsg75
(I4
I8
tp992
sbsg84
(lp993
g319
(g323
S'\x00\x00\x00\x00\x00\x00\xf0?'
p994
tp995
Rp996
ag319
(g323
S'\x00\x00\x00\x00\x00\x00\x00\x00'
p997
tp998
Rp999
ag319
(g323
S'\x00\x00\x00\x00\x00\x00\xf0?'
p1000
tp1001
Rp1002
asg86
g335
sg104
(ipowercad.general.data_struct.util
Rect
p1003
(dp1004
g107
F17.88
sg108
F30.64
sg109
F33.74
sg110
F3.1000000000000014
sg111
F3.3599999999999994
sg112
F14.52
sbsg113
I23
sg114
I3
sbsg118
(F1.78
F41.49842580057996
tp1005
sg119
I2
sg120
(dp1006
sg122
(lp1007
sg124
Nsg125
I01
sg68
Nsg136
(lp1008
sg155
Nsg156
Nsg77
Nsg157
(lp1009
(F0.45999999999999996
F41.49842580057996
tp1010
asg79
Nsg86
(ipowercad.design.library_structures
BondWire
p1011
(dp1012
g162
F0.2
sg90
I1
sg163
I2
sg22
g979
sg165
F0.125
sg91
(ipowercad.design.library_structures
MaterialProperties
p1013
(dp1014
g94
Nsg22
g982
sg96
Nsg97
Nsg98
F3e-08
sg99
Nsg100
Nsbsg102
F0.1
sbsg169
I01
sg170
(lp1015
(F0.45999999999999996
F32.97503868753678
tp1016
asg173
Nsg174
Nsg175
Nsg176
F0.1
sg177
(lp1017
sbag13
(g33
g15
Ntp1018
Rp1019
(dp1020
g43
I2
sg45
(lp1021
sg119
I2
sg124
Nsg125
I01
sg68
Nsg136
(lp1022
sg156
Nsg157
(lp1023
(F5.76
F37.32
tp1024
asg169
I01
sg175
Nsg176
F0.1
sg37
Nsg38
g866
sg173
Nsg44
Nsg116
Nsg117
g27
sg118
(F7.08
F37.32
tp1025
sg120
(dp1026
sg122
(lp1027
sg77
Nsg155
Nsg170
(lp1028
(F5.76
F31.639999999999997
tp1029
asg79
Nsg86
(ipowercad.design.library_structures
BondWire
p1030
(dp1031
g162
F0.2
sg163
I2
sg22
g908
sg90
I1
sg165
F0.125
sg91
(ipowercad.design.library_structures
MaterialProperties
p1032
(dp1033
g22
g911
sg96
Nsg98
F3e-08
sg97
Nsg94
Nsg99
Nsg100
Nsbsg102
F0.1
sbsg177
(lp1034
sg174
Nsbag13
(g33
g15
Ntp1035
Rp1036
(dp1037
g43
I2
sg45
(lp1038
sg119
I2
sg124
Nsg125
I01
sg68
Nsg136
(lp1039
sg156
Nsg157
(lp1040
(F10.32
F37.32
tp1041
asg169
I01
sg175
Nsg176
F0.1
sg37
Nsg38
g866
sg173
Nsg44
Nsg116
Nsg117
g836
sg118
(F11.64
F37.32
tp1042
sg120
(dp1043
sg122
(lp1044
sg77
Nsg155
Nsg170
(lp1045
(F10.32
F31.639999999999997
tp1046
asg79
Nsg86
(ipowercad.design.library_structures
BondWire
p1047
(dp1048
g162
F0.2
sg163
I2
sg22
S'Aluminium Signal Bondwire 0.1mm'
p1049
sg90
I1
sg165
F0.125
sg91
(ipowercad.design.library_structures
MaterialProperties
p1050
(dp1051
g22
S'Aluminium'
p1052
sg96
Nsg98
F3e-08
sg97
Nsg94
Nsg99
Nsg100
Nsbsg102
F0.1
sbsg177
(lp1053
sg174
Nsbag966
asg155
Nsg156
Nsg77
Nsg157
Nsg79
g13
(g126
g15
Ntp1054
Rp1055
(dp1056
g73
g892
sg131
I00
sg132
(I5
I9
tp1057
sg134
(I0
I9
tp1058
sbsg86
Nsg169
I01
sg170
Nsg173
(ipowercad.corner_stitch.CornerStitch
Rectangle
p1059
(dp1060
g107
F24.56
sg22
Nsg569
Nsg570
Nsg109
F40.72
sg108
F37.12
sg571
Nsg110
F3.6000000000000014
sg111
F22.56
sg572
F37.12
sg573
F2.0
sg8
g574
sg112
F2.0
sbsg174
g13
(g126
g15
Ntp1061
Rp1062
(dp1063
g73
g892
sg134
(I0
I5
tp1064
sg132
(I1
I5
tp1065
sg131
I00
sbsg175
Nsg176
Nsg177
(lp1066
sbsg43
I2
sg44
Nsg45
(lp1067
sg116
Nsg117
g836
sg118
(F5.629421148513528
F41.49842580057996
tp1068
sg119
I2
sg120
(dp1069
sg122
(lp1070
sg124
Nsg125
I01
sg68
Nsg136
(lp1071
sg155
Nsg156
Nsg77
Nsg157
(lp1072
(F4.309421148513528
F41.49842580057996
tp1073
asg79
Nsg86
(ipowercad.design.library_structures
BondWire
p1074
(dp1075
g162
F0.2
sg90
I1
sg163
I2
sg22
g1049
sg165
F0.125
sg91
(ipowercad.design.library_structures
MaterialProperties
p1076
(dp1077
g94
Nsg22
g1052
sg96
Nsg97
Nsg98
F3e-08
sg99
Nsg100
Nsbsg102
F0.1
sbsg169
I01
sg170
(lp1078
(F4.309421148513528
F32.97503868753678
tp1079
asg173
Nsg174
Nsg175
Nsg176
F0.1
sg177
(lp1080
sbag13
(g33
g15
Ntp1081
Rp1082
(dp1083
g43
I2
sg45
(lp1084
sg119
I1
sg124
Nsg125
I01
sg68
Nsg136
(lp1085
sg156
Nsg157
(lp1086
(F11.82
F27.24
tp1087
a(F12.82
F27.24
tp1088
asg169
I01
sg175
Nsg176
F0.1
sg37
Nsg38
g40
sg173
Nsg44
Nsg116
Nsg117
g836
sg118
(F11.64
F27.24
tp1089
sg120
(dp1090
sg122
(lp1091
sg77
Nsg155
Nsg170
(lp1092
(F11.82
F32.64
tp1093
a(F12.82
F32.64
tp1094
asg79
Nsg86
(ipowercad.design.library_structures
BondWire
p1095
(dp1096
g162
F0.4
sg163
I1
sg22
g853
sg90
I2
sg165
F0.25
sg91
(ipowercad.design.library_structures
MaterialProperties
p1097
(dp1098
g22
g856
sg96
Nsg98
F3e-08
sg97
Nsg94
Nsg99
Nsg100
Nsbsg102
g857
sbsg177
(lp1099
sg174
Nsbag1036
asg68
g13
(g69
g15
Ntp1100
Rp1101
(dp1102
g73
S'M2'
p1103
sg22
Nsg75
(F3.0
F8.0
tp1104
sbsg22
g1103
sg77
Nsg44
I1
sg78
g832
sg79
g13
(g69
g15
Ntp1105
Rp1106
(dp1107
g73
g1103
sg22
Nsg75
(I3
I8
tp1108
sbsg84
(lp1109
g319
(g323
S'\x00\x00\x00\x00\x00\x00\xf0?'
p1110
tp1111
Rp1112
ag319
(g323
S'\x00\x00\x00\x00\x00\x00\x00\x00'
p1113
tp1114
Rp1115
ag319
(g323
S'\x00\x00\x00\x00\x00\x00\xf0?'
p1116
tp1117
Rp1118
asg86
g335
sg104
(ipowercad.general.data_struct.util
Rect
p1119
(dp1120
g107
F13.32
sg108
F30.64
sg109
F33.74
sg110
F3.1000000000000014
sg111
F3.3599999999999994
sg112
F9.96
sbsg113
I10
sg114
I3
sbag920
asg38
Nsg43
Nsg44
I6
sg45
(lp1121
g810
ag810
asg116
Nsg117
Nsg118
Nsg119
Nsg120
(dp1122
sg122
(lp1123
sg124
Nsg125
I00
sg68
g13
(g126
g15
Ntp1124
Rp1125
(dp1126
g73
S'T3'
p1127
sg131
I00
sg132
(F5.0
F8.0
tp1128
sg134
(F0.0
F8.0
tp1129
sbsg22
g1127
sg136
(lp1130
sg155
Nsg156
Nsg77
Nsg157
Nsg79
g13
(g126
g15
Ntp1131
Rp1132
(dp1133
g73
g1127
sg131
I00
sg132
(I5
I8
tp1134
sg134
(I0
I8
tp1135
sbsg86
Nsg169
I01
sg170
Nsg173
(ipowercad.corner_stitch.CornerStitch
Rectangle
p1136
(dp1137
g107
F19.08
sg22
Nsg569
Nsg570
Nsg109
F35.92
sg108
F29.44
sg571
Nsg110
F6.48
sg111
F17.08
sg572
F29.44
sg573
F2.0
sg8
g574
sg112
F2.0
sbsg174
g13
(g126
g15
Ntp1138
Rp1139
(dp1140
g73
g1127
sg134
(I0
I4
tp1141
sg132
(I1
I4
tp1142
sg131
I00
sbsg175
Nsg176
Nsg177
(lp1143
sbag630
ag832
asg116
Nsg117
Nsg118
Nsg119
Nsg120
(dp1144
sg122
(lp1145
sg124
Nsg125
I00
sg68
g13
(g126
g15
Ntp1146
Rp1147
(dp1148
g73
S'T10'
p1149
sg131
I00
sg132
(F7.0
F8.0
tp1150
sg134
(F5.0
F8.0
tp1151
sbsg22
g1149
sg136
(lp1152
sg155
Nsg156
Nsg77
Nsg157
Nsg79
g13
(g126
g15
Ntp1153
Rp1154
(dp1155
g73
g1149
sg131
I00
sg132
(I7
I8
tp1156
sg134
(I5
I8
tp1157
sbsg86
Nsg169
I01
sg170
Nsg173
(ipowercad.corner_stitch.CornerStitch
Rectangle
p1158
(dp1159
g107
F36.32
sg22
Nsg569
Nsg570
Nsg109
F35.92
sg108
F29.44
sg571
Nsg110
F6.48
sg111
F17.240000000000002
sg572
F29.44
sg573
F19.08
sg8
g574
sg112
F19.08
sbsg174
g13
(g126
g15
Ntp1160
Rp1161
(dp1162
g73
g1149
sg134
(I1
I4
tp1163
sg132
(I3
I4
tp1164
sg131
I00
sbsg175
Nsg176
Nsg177
(lp1165
sbag810
asg116
Nsg117
Nsg118
Nsg119
Nsg120
(dp1166
sg122
(lp1167
sg124
Nsg125
I00
sg68
g13
(g126
g15
Ntp1168
Rp1169
(dp1170
g73
S'T9'
p1171
sg131
I00
sg132
(F11.0
F8.0
tp1172
sg134
(F7.0
F8.0
tp1173
sbsg22
g1171
sg136
(lp1174
sg155
Nsg156
Nsg77
Nsg157
Nsg79
g13
(g126
g15
Ntp1175
Rp1176
(dp1177
g73
g1171
sg131
I00
sg132
(I11
I8
tp1178
sg134
(I7
I8
tp1179
sbsg86
Nsg169
I01
sg170
Nsg173
(ipowercad.corner_stitch.CornerStitch
Rectangle
p1180
(dp1181
g107
F58.96
sg22
Nsg569
Nsg570
Nsg109
F35.92
sg108
F29.44
sg571
Nsg110
F6.48
sg111
F22.64
sg572
F29.44
sg573
F36.32
sg8
g574
sg112
F36.32
sbsg174
g13
(g126
g15
Ntp1182
Rp1183
(dp1184
g73
g1171
sg134
(I3
I4
tp1185
sg132
(I6
I4
tp1186
sg131
I00
sbsg175
Nsg176
Nsg177
(lp1187
sbsg79
g13
(g69
g15
Ntp1188
Rp1189
(dp1190
g73
g627
sg22
Nsg75
(I8
I8
tp1191
sbsg84
(lp1192
g319
(g323
S'\x00\x00\x00\x00\x00\x00\x00\x00'
p1193
tp1194
Rp1195
asg86
g688
sg104
(ipowercad.general.data_struct.util
Rect
p1196
(dp1197
g107
F42.8
sg108
F30.64
sg109
F33.72
sg110
F3.0799999999999983
sg111
F3.0799999999999983
sg112
F39.72
sbsg113
I70
sg114
I3
sbsg118
(F22.66717143644056
F24.751651574493607
tp1198
sg119
I1
sg120
(dp1199
sg122
(lp1200
sg124
Nsg125
I01
sg68
Nsg136
(lp1201
sg155
Nsg156
Nsg77
Nsg157
(lp1202
(F23.267171436440563
F24.751651574493607
tp1203
asg79
Nsg86
(ipowercad.design.library_structures
BondWire
p1204
(dp1205
g162
F0.4
sg90
I2
sg163
I1
sg22
g618
sg165
F0.25
sg91
(ipowercad.design.library_structures
MaterialProperties
p1206
(dp1207
g94
Nsg22
g621
sg96
Nsg97
Nsg98
F3e-08
sg99
Nsg100
Nsbsg102
g622
sbsg169
I01
sg170
(lp1208
(F23.267171436440563
F32.825038687536775
tp1209
asg173
Nsg174
Nsg175
Nsg176
F0.1
sg177
(lp1210
sbag639
ag757
ag605
ag659
ag777
asg155
Nsg156
Nsg77
Nsg157
Nsg79
g13
(g126
g15
Ntp1211
Rp1212
(dp1213
g73
g591
sg131
I00
sg132
(I11
I7
tp1214
sg134
(I7
I7
tp1215
sbsg86
Nsg169
I01
sg170
Nsg173
(ipowercad.corner_stitch.CornerStitch
Rectangle
p1216
(dp1217
g107
F58.96
sg22
Nsg569
Nsg570
Nsg109
F28.24
sg108
F27.04
sg571
Nsg110
F1.1999999999999993
sg111
F28.400000000000002
sg572
F27.04
sg573
F30.56
sg8
g574
sg112
F30.56
sbsg174
g13
(g126
g15
Ntp1218
Rp1219
(dp1220
g73
g591
sg134
(I3
I3
tp1221
sg132
(I6
I3
tp1222
sg131
I00
sbsg175
Nsg176
Nsg177
(lp1223
sbag532
ag582
asg116
Nsg117
Nsg118
Nsg119
Nsg120
(dp1224
sg122
(lp1225
sg124
Nsg125
I00
sg68
g13
(g126
g15
Ntp1226
Rp1227
(dp1228
g73
S'T7'
p1229
sg131
I01
sg132
(F7.0
F7.0
tp1230
sg134
(F7.0
F0.0
tp1231
sbsg22
g1229
sg136
(lp1232
sg155
Nsg156
Nsg77
Nsg157
Nsg79
g13
(g126
g15
Ntp1233
Rp1234
(dp1235
g73
g1229
sg131
I01
sg132
(I7
I7
tp1236
sg134
(I7
I0
tp1237
sbsg86
Nsg169
I01
sg170
Nsg173
(ipowercad.corner_stitch.CornerStitch
Rectangle
p1238
(dp1239
g107
F36.32
sg22
Nsg569
Nsg570
Nsg109
F27.04
sg108
F5.6
sg571
Nsg110
F21.439999999999998
sg111
F5.760000000000002
sg572
F5.6
sg573
F30.56
sg8
g574
sg112
F30.56
sbsg174
g13
(g126
g15
Ntp1240
Rp1241
(dp1242
g73
g1229
sg134
(I3
I0
tp1243
sg132
(I3
I3
tp1244
sg131
I01
sbsg175
Nsg176
Nsg177
(lp1245
sbsg79
g13
(g69
g15
Ntp1246
Rp1247
(dp1248
g73
g221
sg22
Nsg75
(I7
I5
tp1249
sbsg84
(lp1250
g319
(g323
S'\x00\x00\x00\x00\x00\x00\x00\x00'
p1251
tp1252
Rp1253
ag319
(g323
S'\x00\x00\x00\x00\x00\x00\x00\x00'
p1254
tp1255
Rp1256
ag319
(g323
S'\x00\x00\x00\x00\x00\x00\x00\x00'
p1257
tp1258
Rp1259
asg86
g335
sg104
(ipowercad.general.data_struct.util
Rect
p1260
(dp1261
g107
F34.86
sg108
F20.76
sg109
F24.12
sg110
F3.3599999999999994
sg111
F3.099999999999998
sg112
F31.76
sbsg113
I43
sg114
I2
sbsg118
(F18.827171436440562
F11.420983468831514
tp1262
sg119
I1
sg120
(dp1263
sg122
(lp1264
sg124
Nsg125
I01
sg68
Nsg136
(lp1265
sg155
Nsg156
Nsg77
Nsg157
(lp1266
(F18.827171436440562
F11.600983468831513
tp1267
a(F18.827171436440562
F12.600983468831513
tp1268
asg79
Nsg86
(ipowercad.design.library_structures
BondWire
p1269
(dp1270
g162
F0.4
sg90
I2
sg163
I1
sg22
g195
sg165
F0.25
sg91
(ipowercad.design.library_structures
MaterialProperties
p1271
(dp1272
g94
Nsg22
g198
sg96
Nsg97
Nsg98
F3e-08
sg99
Nsg100
Nsbsg102
g199
sbsg169
I01
sg170
(lp1273
(F24.261181539839242
F11.600983468831513
tp1274
a(F24.261181539839242
F12.600983468831513
tp1275
asg173
Nsg174
Nsg175
Nsg176
F0.1
sg177
(lp1276
sbag233
ag433
ag148
ag255
ag455
ag57
ag13
(g33
g15
Ntp1277
Rp1278
(dp1279
g37
Nsg38
g60
sg43
I2
sg44
Nsg45
(lp1280
sg116
Nsg117
g13
(g25
g15
Ntp1281
Rp1282
(dp1283
g29
(F21.82
F17.02
tp1284
sg31
(lp1285
g1278
ag13
(g33
g15
Ntp1286
Rp1287
(dp1288
g43
I2
sg45
(lp1289
sg119
I1
sg124
Nsg125
I01
sg68
Nsg136
(lp1290
sg156
Nsg157
(lp1291
(F26.76
F16.42
tp1292
asg169
I01
sg175
Nsg176
F0.1
sg37
Nsg38
g60
sg173
Nsg44
Nsg116
Nsg117
g1282
sg118
(F26.76
F17.02
tp1293
sg120
(dp1294
sg122
(lp1295
sg77
Nsg155
Nsg170
(lp1296
(F21.12
F16.42
tp1297
asg79
Nsg86
(ipowercad.design.library_structures
BondWire
p1298
(dp1299
g162
F0.4
sg163
I1
sg22
S'Aluminium Power Bondwire 0.3x0.2mm'
p1300
sg90
I2
sg165
F0.25
sg91
(ipowercad.design.library_structures
MaterialProperties
p1301
(dp1302
g22
S'Aluminium'
p1303
sg96
Nsg98
F3e-08
sg97
Nsg94
Nsg99
Nsg100
Nsbsg102
(F0.3
F0.2
tp1304
sbsg177
(lp1305
sg174
Nsbasg68
g13
(g69
g15
Ntp1306
Rp1307
(dp1308
g73
S'D5'
p1309
sg22
Nsg75
(F5.0
F4.0
tp1310
sbsg22
g1309
sg77
Nsg44
I4
sg78
g48
sg79
g13
(g69
g15
Ntp1311
Rp1312
(dp1313
g73
g1309
sg22
Nsg75
(I5
I4
tp1314
sbsg84
(lp1315
g319
(g323
S'\x00\x00\x00\x00\x00\x00\xf0?'
p1316
tp1317
Rp1318
asg86
g688
sg104
(ipowercad.general.data_struct.util
Rect
p1319
(dp1320
g107
F23.36
sg108
F15.48
sg109
F18.560000000000002
sg110
F3.080000000000002
sg111
F3.0799999999999983
sg112
F20.28
sbsg113
I33
sg114
I1
sbsg118
(F18.6360453259194
F7.401838746561078
tp1321
sg119
I1
sg120
(dp1322
sg122
(lp1323
sg124
Nsg125
I01
sg68
Nsg136
(lp1324
sg155
Nsg156
Nsg77
Nsg157
(lp1325
(F18.6360453259194
F6.801838746561078
tp1326
asg79
Nsg86
(ipowercad.design.library_structures
BondWire
p1327
(dp1328
g162
F0.4
sg90
I2
sg163
I1
sg22
g1300
sg165
F0.25
sg91
(ipowercad.design.library_structures
MaterialProperties
p1329
(dp1330
g94
Nsg22
g1303
sg96
Nsg97
Nsg98
F3e-08
sg99
Nsg100
Nsbsg102
g1304
sbsg169
I01
sg170
(lp1331
(F13.822006419018983
F6.801838746561078
tp1332
asg173
Nsg174
Nsg175
Nsg176
F0.1
sg177
(lp1333
sbag13
(g33
g15
Ntp1334
Rp1335
(dp1336
g37
Nsg38
g60
sg43
I2
sg44
Nsg45
(lp1337
sg116
Nsg117
g13
(g25
g15
Ntp1338
Rp1339
(dp1340
g29
(F21.82
F22.3
tp1341
sg31
(lp1342
g1335
ag13
(g33
g15
Ntp1343
Rp1344
(dp1345
g43
I2
sg45
(lp1346
sg119
I1
sg124
Nsg125
I01
sg68
Nsg136
(lp1347
sg156
Nsg157
(lp1348
(F26.76
F21.700000000000003
tp1349
asg169
I01
sg175
Nsg176
F0.1
sg37
Nsg38
g60
sg173
Nsg44
Nsg116
Nsg117
g1339
sg118
(F26.76
F22.3
tp1350
sg120
(dp1351
sg122
(lp1352
sg77
Nsg155
Nsg170
(lp1353
(F21.12
F21.700000000000003
tp1354
asg79
Nsg86
(ipowercad.design.library_structures
BondWire
p1355
(dp1356
g162
F0.4
sg163
I1
sg22
S'Aluminium Power Bondwire 0.3x0.2mm'
p1357
sg90
I2
sg165
F0.25
sg91
(ipowercad.design.library_structures
MaterialProperties
p1358
(dp1359
g22
S'Aluminium'
p1360
sg96
Nsg98
F3e-08
sg97
Nsg94
Nsg99
Nsg100
Nsbsg102
(F0.3
F0.2
tp1361
sbsg177
(lp1362
sg174
Nsbasg68
g13
(g69
g15
Ntp1363
Rp1364
(dp1365
g73
S'D6'
p1366
sg22
Nsg75
(F5.0
F5.0
tp1367
sbsg22
g1366
sg77
Nsg44
I5
sg78
g48
sg79
g13
(g69
g15
Ntp1368
Rp1369
(dp1370
g73
g1366
sg22
Nsg75
(I5
I5
tp1371
sbsg84
(lp1372
g319
(g323
S'\x00\x00\x00\x00\x00\x00\xf0?'
p1373
tp1374
Rp1375
asg86
g688
sg104
(ipowercad.general.data_struct.util
Rect
p1376
(dp1377
g107
F23.36
sg108
F20.76
sg109
F23.840000000000003
sg110
F3.080000000000002
sg111
F3.0799999999999983
sg112
F20.28
sbsg113
I38
sg114
I1
sbsg118
(F18.6360453259194
F12.30061729793848
tp1378
sg119
I1
sg120
(dp1379
sg122
(lp1380
sg124
Nsg125
I01
sg68
Nsg136
(lp1381
sg155
Nsg156
Nsg77
Nsg157
(lp1382
(F18.6360453259194
F11.70061729793848
tp1383
asg79
Nsg86
(ipowercad.design.library_structures
BondWire
p1384
(dp1385
g162
F0.4
sg90
I2
sg163
I1
sg22
g1357
sg165
F0.25
sg91
(ipowercad.design.library_structures
MaterialProperties
p1386
(dp1387
g94
Nsg22
g1360
sg96
Nsg97
Nsg98
F3e-08
sg99
Nsg100
Nsbsg102
g1361
sbsg169
I01
sg170
(lp1388
(F13.822006419018983
F11.70061729793848
tp1389
asg173
Nsg174
Nsg175
Nsg176
F0.1
sg177
(lp1390
sbag180
ag274
ag474
ag202
ag293
ag493
ag13
(g33
g15
Ntp1391
Rp1392
(dp1393
g43
I2
sg45
(lp1394
sg119
I1
sg124
Nsg125
I01
sg68
Nsg136
(lp1395
sg156
Nsg157
(lp1396
(F26.76
F11.139999999999999
tp1397
asg169
I01
sg175
Nsg176
F0.1
sg37
Nsg38
g60
sg173
Nsg44
Nsg116
Nsg117
g52
sg118
(F26.76
F11.739999999999998
tp1398
sg120
(dp1399
sg122
(lp1400
sg77
Nsg155
Nsg170
(lp1401
(F21.12
F11.139999999999999
tp1402
asg79
Nsg86
(ipowercad.design.library_structures
BondWire
p1403
(dp1404
g162
F0.4
sg163
I1
sg22
S'Aluminium Power Bondwire 0.3x0.2mm'
p1405
sg90
I2
sg165
F0.25
sg91
(ipowercad.design.library_structures
MaterialProperties
p1406
(dp1407
g22
S'Aluminium'
p1408
sg96
Nsg98
F3e-08
sg97
Nsg94
Nsg99
Nsg100
Nsbsg102
(F0.3
F0.2
tp1409
sbsg177
(lp1410
sg174
Nsbag1287
ag1344
asg155
Nsg156
Nsg77
Nsg157
Nsg79
g13
(g126
g15
Ntp1411
Rp1412
(dp1413
g73
g130
sg131
I01
sg132
(I6
I7
tp1414
sg134
(I6
I1
tp1415
sbsg86
Nsg169
I01
sg170
Nsg173
(ipowercad.corner_stitch.CornerStitch
Rectangle
p1416
(dp1417
g107
F29.36
sg22
Nsg569
Nsg570
Nsg109
F27.04
sg108
F6.8
sg571
Nsg110
F20.24
sg111
F3.599999999999998
sg572
F6.8
sg573
F25.76
sg8
g574
sg112
F25.76
sbsg174
g13
(g126
g15
Ntp1418
Rp1419
(dp1420
g73
g130
sg134
(I2
I1
tp1421
sg132
(I2
I3
tp1422
sg131
I01
sbsg175
Nsg176
Nsg177
(lp1423
sbsg43
I2
sg44
Nsg45
(lp1424
sg116
Nsg117
g52
sg118
(F18.6360453259194
F19.458171802484603
tp1425
sg119
I1
sg120
(dp1426
sg122
(lp1427
sg124
Nsg125
I01
sg68
Nsg136
(lp1428
sg155
Nsg156
Nsg77
Nsg157
(lp1429
(F18.6360453259194
F18.858171802484602
tp1430
asg79
Nsg86
(ipowercad.design.library_structures
BondWire
p1431
(dp1432
g162
F0.4
sg90
I2
sg163
I1
sg22
g1405
sg165
F0.25
sg91
(ipowercad.design.library_structures
MaterialProperties
p1433
(dp1434
g94
Nsg22
g1408
sg96
Nsg97
Nsg98
F3e-08
sg99
Nsg100
Nsbsg102
g1409
sbsg169
I01
sg170
(lp1435
(F13.822006419018983
F18.858171802484602
tp1436
asg173
Nsg174
Nsg175
Nsg176
F0.1
sg177
(lp1437
sbag1392
asg68
g13
(g69
g15
Ntp1438
Rp1439
(dp1440
g73
S'D4'
p1441
sg22
Nsg75
(F5.0
F3.0
tp1442
sbsg22
g1441
sg77
Nsg44
I3
sg78
g48
sg79
g13
(g69
g15
Ntp1443
Rp1444
(dp1445
g73
g1441
sg22
Nsg75
(I5
I3
tp1446
sbsg84
(lp1447
g319
(g323
S'\x00\x00\x00\x00\x00\x00\xf0?'
p1448
tp1449
Rp1450
asg86
g688
sg104
(ipowercad.general.data_struct.util
Rect
p1451
(dp1452
g107
F23.36
sg108
F10.2
sg109
F13.28
sg110
F3.08
sg111
F3.0799999999999983
sg112
F20.28
sbsg113
I28
sg114
I1
sbag1282
ag1339
asg38
Nsg43
Nsg44
I1
sg45
(lp1453
g40
ag532
ag40
ag532
asg116
Nsg117
Nsg118
Nsg119
Nsg120
(dp1454
sg122
(lp1455
sg124
Nsg125
I00
sg68
g13
(g126
g15
Ntp1456
Rp1457
(dp1458
g73
S'T5'
p1459
sg131
I01
sg132
(F5.0
F7.0
tp1460
sg134
(F5.0
F0.0
tp1461
sbsg22
g1459
sg136
(lp1462
sg155
Nsg156
Nsg77
Nsg157
Nsg79
g13
(g126
g15
Ntp1463
Rp1464
(dp1465
g73
g1459
sg131
I01
sg132
(I5
I7
tp1466
sg134
(I5
I0
tp1467
sbsg86
Nsg169
I01
sg170
Nsg173
(ipowercad.corner_stitch.CornerStitch
Rectangle
p1468
(dp1469
g107
F24.56
sg22
Nsg569
Nsg570
Nsg109
F27.04
sg108
F5.6
sg571
Nsg110
F21.439999999999998
sg111
F5.48
sg572
F5.6
sg573
F19.08
sg8
g574
sg112
F19.08
sbsg174
g13
(g126
g15
Ntp1470
Rp1471
(dp1472
g73
g1459
sg134
(I1
I0
tp1473
sg132
(I1
I3
tp1474
sg131
I01
sbsg175
Nsg176
Nsg177
(lp1475
sbag48
asg116
Nsg117
Nsg118
Nsg119
Nsg120
(dp1476
sg122
(lp1477
sg124
Nsg125
I00
sg68
g13
(g126
g15
Ntp1478
Rp1479
(dp1480
g73
S'T4'
p1481
sg131
I00
sg132
(F5.0
F7.0
tp1482
sg134
(F0.0
F7.0
tp1483
sbsg22
g1481
sg136
(lp1484
g35
ag841
ag925
ag13
(g33
g15
Ntp1485
Rp1486
(dp1487
g43
I2
sg45
(lp1488
sg119
I1
sg124
Nsg125
I01
sg68
Nsg136
(lp1489
sg156
Nsg157
(lp1490
(F7.26
F27.24
tp1491
a(F8.26
F27.24
tp1492
asg169
I01
sg175
Nsg176
F0.1
sg37
Nsg38
g40
sg173
Nsg44
Nsg116
Nsg117
g27
sg118
(F7.08
F27.24
tp1493
sg120
(dp1494
sg122
(lp1495
sg77
Nsg155
Nsg170
(lp1496
(F7.26
F32.64
tp1497
a(F8.26
F32.64
tp1498
asg79
Nsg86
(ipowercad.design.library_structures
BondWire
p1499
(dp1500
g162
F0.4
sg163
I1
sg22
S'Aluminium Power Bondwire 0.3x0.2mm'
p1501
sg90
I2
sg165
F0.25
sg91
(ipowercad.design.library_structures
MaterialProperties
p1502
(dp1503
g22
S'Aluminium'
p1504
sg96
Nsg98
F3e-08
sg97
Nsg94
Nsg99
Nsg100
Nsbsg102
(F0.3
F0.2
tp1505
sbsg177
(lp1506
sg174
Nsbag1082
ag947
asg155
Nsg156
Nsg77
Nsg157
Nsg79
g13
(g126
g15
Ntp1507
Rp1508
(dp1509
g73
g1481
sg131
I00
sg132
(I5
I7
tp1510
sg134
(I0
I7
tp1511
sbsg86
Nsg169
I01
sg170
Nsg173
(ipowercad.corner_stitch.CornerStitch
Rectangle
p1512
(dp1513
g107
F24.56
sg22
Nsg569
Nsg570
Nsg109
F28.24
sg108
F27.04
sg571
Nsg110
F1.1999999999999993
sg111
F22.56
sg572
F27.04
sg573
F2.0
sg8
g574
sg112
F2.0
sbsg174
g13
(g126
g15
Ntp1514
Rp1515
(dp1516
g73
g1481
sg134
(I0
I3
tp1517
sg132
(I1
I3
tp1518
sg131
I00
sbsg175
Nsg176
Nsg177
(lp1519
sbsg43
I2
sg44
Nsg45
(lp1520
sg116
Nsg117
g27
sg118
(F10.827967512118564
F23.12931450062867
tp1521
sg119
I1
sg120
(dp1522
sg122
(lp1523
sg124
Nsg125
I01
sg68
Nsg136
(lp1524
sg155
Nsg156
Nsg77
Nsg157
(lp1525
(F11.007967512118563
F23.12931450062867
tp1526
a(F12.007967512118563
F23.12931450062867
tp1527
asg79
Nsg86
(ipowercad.design.library_structures
BondWire
p1528
(dp1529
g162
F0.4
sg90
I2
sg163
I1
sg22
g1501
sg165
F0.25
sg91
(ipowercad.design.library_structures
MaterialProperties
p1530
(dp1531
g94
Nsg22
g1504
sg96
Nsg97
Nsg98
F3e-08
sg99
Nsg100
Nsbsg102
g1505
sbsg169
I01
sg170
(lp1532
(F11.007967512118563
F33.97503868753678
tp1533
a(F12.007967512118563
F33.97503868753678
tp1534
asg173
Nsg174
Nsg175
Nsg176
F0.1
sg177
(lp1535
sbag897
ag1486
ag1019
asg68
g13
(g69
g15
Ntp1536
Rp1537
(dp1538
g73
S'M1'
p1539
sg22
Nsg75
(F2.0
F8.0
tp1540
sbsg22
g1539
sg77
Nsg44
I0
sg78
g832
sg79
g13
(g69
g15
Ntp1541
Rp1542
(dp1543
g73
g1539
sg22
Nsg75
(I2
I8
tp1544
sbsg84
(lp1545
g319
(g323
S'\x00\x00\x00\x00\x00\x00\xf0?'
p1546
tp1547
Rp1548
ag319
(g323
S'\x00\x00\x00\x00\x00\x00\x00\x00'
p1549
tp1550
Rp1551
ag319
(g323
S'\x00\x00\x00\x00\x00\x00\xf0?'
p1552
tp1553
Rp1554
asg86
g335
sg104
(ipowercad.general.data_struct.util
Rect
p1555
(dp1556
g107
F8.76
sg108
F30.64
sg109
F33.74
sg110
F3.1000000000000014
sg111
F3.3599999999999994
sg112
F5.4
sbsg113
I1
sg114
I3
sbag836
ag920
asS'mdl'
p1557
I2
sbssS' 1'
p1558
(dp1559
g8
S'Electrical'
p1560
sg10
S'Inductance'
p1561
sg12
g13
(cpowercad.sym_layout.symbolic_layout
ElectricalMeasure
p1562
g15
Ntp1563
Rp1564
(dp1565
S'sink_term'
p1566
Nsg22
g1558
sg1557
S'MS'
p1567
sS'src_term'
p1568
NsS'lines'
p1569
NsS'dev_state'
p1570
g13
(cpandas.core.frame
DataFrame
p1571
g15
Ntp1572
Rp1573
(dp1574
S'_metadata'
p1575
(lp1576
sS'_typ'
p1577
S'dataframe'
p1578
sS'_data'
p1579
g13
(cpandas.core.internals
BlockManager
p1580
g15
Ntp1581
Rp1582
((lp1583
cpandas.core.indexes.base
_new_Index
p1584
(cpandas.core.indexes.numeric
Int64Index
p1585
(dp1586
S'data'
p1587
cnumpy.core.multiarray
_reconstruct
p1588
(cnumpy
ndarray
p1589
(I0
tp1590
g165
tp1591
Rp1592
(I1
(I4
tp1593
g320
(S'i8'
p1594
I0
I1
tp1595
Rp1596
(I3
S'<'
p1597
NNNI-1
I-1
I0
tp1598
bI00
S'\x00\x00\x00\x00\x00\x00\x00\x00\x01\x00\x00\x00\x00\x00\x00\x00\x02\x00\x00\x00\x00\x00\x00\x00\x03\x00\x00\x00\x00\x00\x00\x00'
p1599
tp1600
bsg22
Nstp1601
Rp1602
ag1584
(g1585
(dp1603
g1587
g1588
(g1589
(I0
tp1604
g165
tp1605
Rp1606
(I1
(I12
tp1607
g1596
I00
S'\x00\x00\x00\x00\x00\x00\x00\x00\x01\x00\x00\x00\x00\x00\x00\x00\x02\x00\x00\x00\x00\x00\x00\x00\x03\x00\x00\x00\x00\x00\x00\x00\x04\x00\x00\x00\x00\x00\x00\x00\x05\x00\x00\x00\x00\x00\x00\x00\x06\x00\x00\x00\x00\x00\x00\x00\x07\x00\x00\x00\x00\x00\x00\x00\x08\x00\x00\x00\x00\x00\x00\x00\t\x00\x00\x00\x00\x00\x00\x00\n\x00\x00\x00\x00\x00\x00\x00\x0b\x00\x00\x00\x00\x00\x00\x00'
p1608
tp1609
bsg22
Nstp1610
Rp1611
a(lp1612
g1588
(g1589
(I0
tp1613
g165
tp1614
Rp1615
(I1
(I3
I12
tp1616
g323
I01
S'\x00\x00\x00\x00\x00\x00\xf0?\x00\x00\x00\x00\x00\x00\x00\x00\x00\x00\x00\x00\x00\x00\xf0?\x00\x00\x00\x00\x00\x00\xf0?\x00\x00\x00\x00\x00\x00\x00\x00\x00\x00\x00\x00\x00\x00\xf0?\x00\x00\x00\x00\x00\x00\xf0?\x00\x00\x00\x00\x00\x00\x00\x00\x00\x00\x00\x00\x00\x00\xf0?\x00\x00\x00\x00\x00\x00\x00\x00\x00\x00\x00\x00\x00\x00\x00\x00\x00\x00\x00\x00\x00\x00\x00\x00\x00\x00\x00\x00\x00\x00\x00\x00\x00\x00\x00\x00\x00\x00\x00\x00\x00\x00\x00\x00\x00\x00\x00\x00\x00\x00\x00\x00\x00\x00\x00\x00\x00\x00\x00\x00\x00\x00\x00\x00\x00\x00\x00\x00\x00\x00\x00\x00\x00\x00\x00\x00\x00\x00\x00\x00\x00\x00\x00\x00\x00\x00\xf8\x7f\x00\x00\x00\x00\x00\x00\xf8\x7f\x00\x00\x00\x00\x00\x00\x00\x00\x00\x00\x00\x00\x00\x00\xf8\x7f\x00\x00\x00\x00\x00\x00\xf8\x7f\x00\x00\x00\x00\x00\x00\x00\x00\x00\x00\x00\x00\x00\x00\xf8\x7f\x00\x00\x00\x00\x00\x00\xf8\x7f\x00\x00\x00\x00\x00\x00\xf0?\x00\x00\x00\x00\x00\x00\xf8\x7f\x00\x00\x00\x00\x00\x00\xf8\x7f\x00\x00\x00\x00\x00\x00\xf0?\x00\x00\x00\x00\x00\x00\xf8\x7f\x00\x00\x00\x00\x00\x00\xf8\x7f\x00\x00\x00\x00\x00\x00\xf0?\x00\x00\x00\x00\x00\x00\xf8\x7f\x00\x00\x00\x00\x00\x00\xf8\x7f'
p1617
tp1618
bag1588
(g1589
(I0
tp1619
g165
tp1620
Rp1621
(I1
(I1
I12
tp1622
g320
(S'O4'
p1623
I0
I1
tp1624
Rp1625
(I3
S'|'
p1626
NNNI-1
I-1
I63
tp1627
bI00
(lp1628
VM1
p1629
aVM2
p1630
aVM3
p1631
aVM4
p1632
aVM5
p1633
aVM6
p1634
aVD1
p1635
aVD2
p1636
aVD3
p1637
aVD4
p1638
aVD5
p1639
aVD6
p1640
atp1641
ba(lp1642
g1584
(g1585
(dp1643
g1587
g1588
(g1589
(I0
tp1644
g165
tp1645
Rp1646
(I1
(I3
tp1647
g1596
I00
S'\x01\x00\x00\x00\x00\x00\x00\x00\x02\x00\x00\x00\x00\x00\x00\x00\x03\x00\x00\x00\x00\x00\x00\x00'
p1648
tp1649
bsg22
Nstp1650
Rp1651
ag1584
(g1585
(dp1652
g1587
g1588
(g1589
(I0
tp1653
g165
tp1654
Rp1655
(I1
(I1
tp1656
g1596
I00
S'\x00\x00\x00\x00\x00\x00\x00\x00'
p1657
tp1658
bsg22
Nstp1659
Rp1660
a(dp1661
S'0.14.1'
p1662
(dp1663
S'axes'
p1664
g1583
sS'blocks'
p1665
(lp1666
(dp1667
S'mgr_locs'
p1668
c__builtin__
slice
p1669
(I1
I4
L1L
tp1670
Rp1671
sS'values'
p1672
g1615
sa(dp1673
g1668
g1669
(L0L
L1L
I1
tp1674
Rp1675
sg1672
g1621
sasstp1676
bsbsg12
I2
sg19
S'nH'
p1677
sg132
g64
sg134
g870
sbsssS'algorithm'
p1678
I0
sS'plot_pareto'
p1679
I00
sS'e_sink'
p1680
NsS'e_src'
p1681
NsS'rs_mdl'
p1682
NsS'electrical_mode'
p1683
I1
sS'electrical_dev_state'
p1684
g1573
sS'thermal_mode'
p1685
I0
sS'thermal_func'
p1686
I0
sb.