(ipowercad.corner_stitch.optimization_setup
OptSetup
p0
(dp1
S'electrical_func'
p2
I0
sS'thermal_dev_tbl'
p3
(lp4
ccopy_reg
_reconstructor
p5
(cpowercad.sym_layout.symbolic_layout
SymPoint
p6
c__builtin__
object
p7
Ntp8
Rp9
(dp10
S'center_position'
p11
(F24.294685933128893
F33.9054738952399
tp12
sS'sym_bondwires'
p13
(lp14
g5
(cpowercad.sym_layout.symbolic_layout
SymLine
p15
g7
Ntp16
Rp17
(dp18
S'child_pts'
p19
NsS'trace'
p20
g5
(g15
g7
Ntp21
Rp22
(dp23
g19
(lp24
sg20
NsS'num_wires'
p25
NsS'dv_index'
p26
I5
sS'trace_connections'
p27
(lp28
g5
(g15
g7
Ntp29
Rp30
(dp31
g19
(lp32
g5
(g6
g7
Ntp33
Rp34
(dp35
g11
(lp36
F34.95242641155483
aF29.37891049810647
asg13
(lp37
sS'raw_element'
p38
g5
(cpowercad.sym_layout.svg
LayoutPoint
p39
g7
Ntp40
Rp41
(dp42
S'path_id'
p43
S'L5'
p44
sS'name'
p45
NsS'pt'
p46
(F5.0
F3.0
tp47
sbsg45
g44
sS'constraint'
p48
Nsg26
NsS'parent_line'
p49
g30
sS'element'
p50
g5
(g39
g7
Ntp51
Rp52
(dp53
g43
g44
sg45
Nsg46
(I5
I3
tp54
sbsS'states'
p55
(lp56
sS'tech'
p57
(ipowercad.design.library_structures
Lead
p58
(dp59
S'lead_type'
p60
I2
sS'shape'
p61
I2
sS'dimensions'
p62
(F1.2
I10
tp63
sg45
S'Cylindrical Aluminium Lead 1.2mm Diam.'
p64
sS'properties'
p65
(ipowercad.design.library_structures
MaterialProperties
p66
(dp67
S'rel_permit'
p68
Nsg45
S'Aluminium'
p69
sS'density'
p70
NsS'rel_permeab'
p71
NsS'electrical_res'
p72
F3e-08
sS'thermal_cond'
p73
NsS'spec_heat_cap'
p74
NsbsbsS'footprint_rect'
p75
(ipowercad.general.data_struct.util
Rect
p76
(dp77
S'width'
p78
F1.2000000000000028
sS'right'
p79
F35.55242641155483
sS'bottom'
p80
F28.77891049810647
sS'top'
p81
F29.978910498106472
sS'left'
p82
F34.35242641155483
sS'height'
p83
F1.2000000000000028
sbsS'lumped_node'
p84
I22
sS'orientation'
p85
Nsbasg20
Nsg25
Nsg26
I2
sg27
(lp86
g5
(g15
g7
Ntp87
Rp88
(dp89
g19
(lp90
g5
(g6
g7
Ntp91
Rp92
(dp93
g11
(F10.193309431220198
F17.207501972133194
tp94
sg13
(lp95
g5
(g15
g7
Ntp96
Rp97
(dp98
g19
Nsg20
g5
(g15
g7
Ntp99
Rp100
(dp101
g19
(lp102
g5
(g6
g7
Ntp103
Rp104
(dp105
g11
(lp106
F0.6
aF6.323725503049246
asg13
(lp107
sg38
g5
(g39
g7
Ntp108
Rp109
(dp110
g43
S'L2'
p111
sg45
Nsg46
(F1.0
F0.0
tp112
sbsg45
g111
sg48
Nsg26
Nsg49
g100
sg50
g5
(g39
g7
Ntp113
Rp114
(dp115
g43
g111
sg45
Nsg46
(I1
I0
tp116
sbsg55
(lp117
sg57
g58
sg75
(ipowercad.general.data_struct.util
Rect
p118
(dp119
g78
F1.2
sg79
F1.2
sg80
F5.723725503049247
sg81
F6.923725503049246
sg82
F0.0
sg83
F1.1999999999999993
sbsg84
I19
sg85
Nsbasg20
Nsg25
Nsg26
I0
sg27
(lp120
sS'intersecting_trace'
p121
NsS'device'
p122
NsS'land_pt'
p123
NsS'dev_pt'
p124
NsS'long_contacts'
p125
(dp126
sS'super_connections'
p127
(lp128
sS'land_pt2'
p129
NsS'wire'
p130
I00
sg38
g5
(cpowercad.sym_layout.svg
LayoutLine
p131
g7
Ntp132
Rp133
(dp134
g43
S'T1'
p135
sS'vertical'
p136
I00
sS'pt2'
p137
(F5.0
F0.0
tp138
sS'pt1'
p139
(F0.0
F0.0
tp140
sbsg45
g135
sS'conn_bonds'
p141
(lp142
g5
(g15
g7
Ntp143
Rp144
(dp145
g19
Nsg20
g100
sg25
I2
sg26
Nsg27
(lp146
sg121
Nsg122
g5
(g6
g7
Ntp147
Rp148
(dp149
g11
(F33.095571027405384
F17.207501972133194
tp150
sg13
(lp151
g144
ag5
(g15
g7
Ntp152
Rp153
(dp154
g19
Nsg20
g5
(g15
g7
Ntp155
Rp156
(dp157
g19
(lp158
g5
(g6
g7
Ntp159
Rp160
(dp161
g11
(lp162
F0.6
aF23.572906345983583
asg13
(lp163
sg38
g5
(g39
g7
Ntp164
Rp165
(dp166
g43
S'L3'
p167
sg45
Nsg46
(F1.0
F2.0
tp168
sbsg45
g167
sg48
Nsg26
Nsg49
g156
sg50
g5
(g39
g7
Ntp169
Rp170
(dp171
g43
g167
sg45
Nsg46
(I1
I2
tp172
sbsg55
(lp173
sg57
g58
sg75
(ipowercad.general.data_struct.util
Rect
p174
(dp175
g78
F1.2
sg79
F1.2
sg80
F22.97290634598358
sg81
F24.172906345983584
sg82
F0.0
sg83
F1.2000000000000028
sbsg84
I21
sg85
Nsbasg20
Nsg25
Nsg26
I2
sg27
(lp176
sg121
Nsg122
Nsg123
Nsg124
Nsg125
(dp177
sg127
(lp178
sg129
Nsg130
I00
sg38
g5
(g131
g7
Ntp179
Rp180
(dp181
g43
S'T3'
p182
sg136
I00
sg137
(F4.0
F2.0
tp183
sg139
(F0.0
F2.0
tp184
sbsg45
g182
sg141
(lp185
g153
ag5
(g15
g7
Ntp186
Rp187
(dp188
g19
Nsg20
g156
sg25
I2
sg26
Nsg27
(lp189
sg121
Nsg122
g92
sg123
(F10.193309431220198
F21.967552938167895
tp190
sg124
I2
sg125
(dp191
sg127
(lp192
sg129
Nsg130
I01
sg38
Nsg141
(lp193
sS'end_pt_conn'
p194
NsS'start_pt_conn'
p195
Nsg48
NsS'end_pts'
p196
(lp197
(F8.873309431220198
F21.967552938167895
tp198
asg50
Nsg57
(ipowercad.design.library_structures
BondWire
p199
(dp200
S'a'
p201
F0.2
sg61
I1
sS'wire_type'
p202
I2
sg45
S'Aluminium Signal Bondwire 0.1mm'
p203
sS'b'
p204
F0.125
sg65
(ipowercad.design.library_structures
MaterialProperties
p205
(dp206
g68
Nsg45
S'Aluminium'
p207
sg70
Nsg71
Nsg72
F3e-08
sg73
Nsg74
Nsbsg62
F0.1
sbsS'has_rect'
p208
I01
sS'start_pts'
p209
(lp210
(F8.873309431220198
F16.657501972133193
tp211
asS'trace_rect'
p212
NsS'trace_line'
p213
NsS'trace2'
p214
NsS'wire_sep'
p215
F0.1
sS'normal_connections'
p216
(lp217
sbag5
(g15
g7
Ntp218
Rp219
(dp220
g25
I2
sg27
(lp221
sg124
I2
sg129
Nsg130
I01
sg38
Nsg141
(lp222
sg195
Nsg196
Nsg208
I01
sg214
Nsg215
F0.1
sg19
Nsg20
g156
sg212
Nsg26
Nsg121
Nsg122
g148
sg123
Nsg125
(dp223
sg127
(lp224
sg48
Nsg194
Nsg209
Nsg50
Nsg57
(ipowercad.design.library_structures
BondWire
p225
(dp226
g201
F0.2
sg202
I2
sg45
S'Aluminium Signal Bondwire 0.1mm'
p227
sg61
I1
sg204
F0.125
sg65
(ipowercad.design.library_structures
MaterialProperties
p228
(dp229
g45
S'Aluminium'
p230
sg70
Nsg72
F3e-08
sg71
Nsg68
Nsg73
Nsg74
Nsbsg62
F0.1
sbsg216
(lp231
sg213
Nsbag5
(g15
g7
Ntp232
Rp233
(dp234
g25
I2
sg27
(lp235
sg124
I2
sg129
Nsg130
I01
sg38
Nsg141
(lp236
sg195
Nsg196
Nsg208
I01
sg214
Nsg215
F0.1
sg19
Nsg20
g156
sg212
Nsg26
Nsg121
Nsg122
g92
sg123
Nsg125
(dp237
sg127
(lp238
sg48
Nsg194
Nsg209
Nsg50
Nsg57
(ipowercad.design.library_structures
BondWire
p239
(dp240
g201
F0.2
sg202
I2
sg45
g203
sg61
I1
sg204
F0.125
sg65
(ipowercad.design.library_structures
MaterialProperties
p241
(dp242
g45
g207
sg70
Nsg72
F3e-08
sg71
Nsg68
Nsg73
Nsg74
Nsbsg62
F0.1
sbsg216
(lp243
sg213
Nsbasg194
Nsg195
Nsg48
Nsg196
Nsg50
g5
(g131
g7
Ntp244
Rp245
(dp246
g43
g182
sg136
I00
sg137
(I4
I2
tp247
sg139
(I0
I2
tp248
sbsg57
Nsg208
I01
sg209
Nsg212
(ipowercad.general.data_struct.util
Rect
p249
(dp250
g79
F0.0
sg80
F0.0
sg81
F0.0
sg83
F0.0
sg78
F0.0
sg82
F0.0
sbsg213
g5
(g131
g7
Ntp251
Rp252
(dp253
g43
g182
sg139
(I0
I2
tp254
sg137
(I1
I2
tp255
sg136
I00
sbsg214
Nsg215
Nsg216
(lp256
sbsg25
I2
sg26
Nsg27
(lp257
sg121
Nsg122
g148
sg123
(F33.095571027405384
F21.967552938167895
tp258
sg124
I2
sg125
(dp259
sg127
(lp260
sg129
Nsg130
I01
sg38
Nsg141
(lp261
sg194
Nsg195
Nsg48
Nsg196
(lp262
(F31.775571027405384
F21.967552938167895
tp263
asg50
Nsg57
(ipowercad.design.library_structures
BondWire
p264
(dp265
g201
F0.2
sg61
I1
sg202
I2
sg45
g227
sg204
F0.125
sg65
(ipowercad.design.library_structures
MaterialProperties
p266
(dp267
g68
Nsg45
g230
sg70
Nsg71
Nsg72
F3e-08
sg73
Nsg74
Nsbsg62
F0.1
sbsg208
I01
sg209
(lp268
(F31.775571027405384
F16.657501972133193
tp269
asg212
Nsg213
Nsg214
Nsg215
F0.1
sg216
(lp270
sbag5
(g15
g7
Ntp271
Rp272
(dp273
g25
I2
sg27
(lp274
sg124
I1
sg129
Nsg130
I01
sg38
Nsg141
(lp275
sg195
Nsg196
Nsg208
I01
sg214
Nsg215
F0.1
sg19
Nsg20
g100
sg212
Nsg26
Nsg121
Nsg122
g148
sg123
Nsg125
(dp276
sg127
(lp277
sg48
Nsg194
Nsg209
Nsg50
Nsg57
(ipowercad.design.library_structures
BondWire
p278
(dp279
g201
F0.4
sg202
I1
sg45
S'Aluminium Power Bondwire 0.3x0.2mm'
p280
sg61
I2
sg204
F0.25
sg65
(ipowercad.design.library_structures
MaterialProperties
p281
(dp282
g45
S'Aluminium'
p283
sg70
Nsg72
F3e-08
sg71
Nsg68
Nsg73
Nsg74
Nsbsg62
(F0.3
F0.2
tp284
sbsg216
(lp285
sg213
Nsbag219
asg38
g5
(g39
g7
Ntp286
Rp287
(dp288
g43
S'M4'
p289
sg45
Nsg46
(F2.0
F1.0
tp290
sbsg45
g289
sg48
Nsg26
I1
sg49
g88
sg50
g5
(g39
g7
Ntp291
Rp292
(dp293
g43
g289
sg45
Nsg46
(I2
I1
tp294
sbsg55
(lp295
cnumpy.core.multiarray
scalar
p296
(cnumpy
dtype
p297
(S'f8'
p298
I0
I1
tp299
Rp300
(I3
S'<'
p301
NNNI-1
I-1
I0
tp302
bS'\x00\x00\x00\x00\x00\x00\xf0?'
p303
tp304
Rp305
ag296
(g300
S'\x00\x00\x00\x00\x00\x00\x00\x00'
p306
tp307
Rp308
ag296
(g300
S'\x00\x00\x00\x00\x00\x00\x00\x00'
p309
tp310
Rp311
asg57
(ipowercad.design.project_structures
DeviceInstance
p312
(dp313
S'attach_thickness'
p314
F0.01
sS'heat_flow'
p315
F3.0
sS'attach_tech'
p316
(ipowercad.design.library_structures
DieAttach
p317
(dp318
g65
(ipowercad.design.library_structures
MaterialProperties
p319
(dp320
g68
Nsg45
S'Pb-Sn Solder Alloy'
p321
sg70
F11020.0
sg71
Nsg72
Nsg73
F35.8
sg74
F130.0
sbsbsS'device_tech'
p322
(ipowercad.design.library_structures
Device
p323
(dp324
S'power_side'
p325
I1
sg45
S'CPM2-1200-0080B-MOS'
p326
sS'device_type'
p327
I1
sS'wire_landings'
p328
(lp329
(ipowercad.design.library_structures
BondwireLanding
p330
(dp331
S'position'
p332
(F1.0
F3.0
tp333
sS'bond_type'
p334
I2
sba(ipowercad.design.library_structures
BondwireLanding
p335
(dp336
g332
(F2.0
F1.5
tp337
sg334
I1
sba(ipowercad.design.library_structures
BondwireLanding
p338
(dp339
g332
(F2.0
F0.5
tp340
sg334
I1
sbasS'device_model'
p341
Nsg65
(ipowercad.design.library_structures
MaterialProperties
p342
(dp343
S'young_mdl'
p344
NsS'poi_rat'
p345
Nsg45
Nsg70
F3100.0
sS'expansion_coeff'
p346
Nsg72
Nsg71
Nsg68
Nsg73
F370.0
sS'id'
p347
Nsg74
F750.0
sbsg62
(F3.1
F3.36
F0.22
tp348
sbsS'thermal_features'
p349
(ipowercad.thermal.fast_thermal
DieThermalFeatures
p350
(dp351
S'eff_power'
p352
F2.815810317738009
sS'die_res'
p353
F0.08390209327315112
sS'die_power'
p354
F3.0
sS'iso_top_temps'
p355
(lp356
(ipowercad.thermal.fast_thermal
ContourRect
p357
(dp358
g78
F3.1
sS'avg_val'
p359
F7.122843879714676
sg83
F3.2032032032032034
sba(ipowercad.thermal.fast_thermal
ContourRect
p360
(dp361
g78
F7.199999999999999
sg359
F6.195886377251021
sg83
F7.257257257257257
sba(ipowercad.thermal.fast_thermal
ContourRect
p362
(dp363
g78
F11.299999999999999
sg359
F5.82479632383603
sg83
F11.361361361361363
sba(ipowercad.thermal.fast_thermal
ContourRect
p364
(dp365
g78
F15.399999999999999
sg359
F5.719809716328077
sg83
F15.365365365365367
sba(ipowercad.thermal.fast_thermal
ContourRect
p366
(dp367
g78
F19.5
sg359
F5.665395068731171
sg83
F19.46946946946947
sba(ipowercad.thermal.fast_thermal
ContourRect
p368
(dp369
g78
F23.6
sg359
F5.628904479651517
sg83
F23.523523523523526
sba(ipowercad.thermal.fast_thermal
ContourRect
p370
(dp371
g78
F27.7
sg359
F5.60182383903479
sg83
F27.57757757757758
sba(ipowercad.thermal.fast_thermal
ContourRect
p372
(dp373
g78
F31.799999999999997
sg359
F5.580976751553924
sg83
F31.481481481481485
sba(ipowercad.thermal.fast_thermal
ContourRect
p374
(dp375
g78
F35.9
sg359
F5.565404840807914
sg83
F34.88488488488489
sba(ipowercad.thermal.fast_thermal
ContourRect
p376
(dp377
g78
F40.0
sg359
F5.553110320150989
sg83
F38.38838838838839
sbasS'iso_top_avg_temp'
p378
F5.612647129999999
sS'self_temp'
p379
F7.0795867466334075
sS'iso_top_fluxes'
p380
(lp381
(ipowercad.thermal.fast_thermal
ContourRect
p382
(dp383
g78
F3.1
sg359
F0.1490142399808351
sg83
F2.752752752752753
sba(ipowercad.thermal.fast_thermal
ContourRect
p384
(dp385
g78
F4.253253253253254
sg359
F0.08143094757300282
sg83
F4.054054054054054
sba(ipowercad.thermal.fast_thermal
ContourRect
p386
(dp387
g78
F5.406506506506506
sg359
F0.03177977525900483
sg83
F5.405405405405406
sba(ipowercad.thermal.fast_thermal
ContourRect
p388
(dp389
g78
F6.5597597597597606
sg359
F0.011957215287250638
sg83
F6.406406406406407
sba(ipowercad.thermal.fast_thermal
ContourRect
p390
(dp391
g78
F7.713013013013013
sg359
F0.006323006347286486
sg83
F7.357357357357357
sba(ipowercad.thermal.fast_thermal
ContourRect
p392
(dp393
g78
F8.866266266266267
sg359
F0.004067180676208915
sg83
F7.807807807807809
sba(ipowercad.thermal.fast_thermal
ContourRect
p394
(dp395
g78
F10.01951951951952
sg359
F0.0030276207000371437
sg83
F8.358358358358359
sba(ipowercad.thermal.fast_thermal
ContourRect
p396
(dp397
g78
F11.172772772772772
sg359
F0.002137082119879503
sg83
F9.50950950950951
sba(ipowercad.thermal.fast_thermal
ContourRect
p398
(dp399
g78
F12.326026026026026
sg359
F0.001101283879651085
sg83
F11.211211211211213
sba(ipowercad.thermal.fast_thermal
ContourRect
p400
(dp401
g78
F13.479279279279279
sg359
F0.000394061760365258
sg83
F15.915915915915917
sbasbsbsg75
(ipowercad.general.data_struct.util
Rect
p402
(dp403
g78
F3.3599999999999994
sg79
F34.775571027405384
sg80
F15.657501972133193
sg81
F18.757501972133195
sg82
F31.415571027405385
sg83
F3.1000000000000014
sbsg84
I6
sg85
I3
sbsg123
(F33.095571027405384
F11.647451006098493
tp404
sg124
I1
sg125
(dp405
sg127
(lp406
sg129
Nsg130
I01
sg38
Nsg141
(lp407
sg194
Nsg195
Nsg48
Nsg196
(lp408
(F33.275571027405384
F11.647451006098493
tp409
a(F34.275571027405384
F11.647451006098493
tp410
asg50
Nsg57
(ipowercad.design.library_structures
BondWire
p411
(dp412
g201
F0.4
sg61
I2
sg202
I1
sg45
g280
sg204
F0.25
sg65
(ipowercad.design.library_structures
MaterialProperties
p413
(dp414
g68
Nsg45
g283
sg70
Nsg71
Nsg72
F3e-08
sg73
Nsg74
Nsbsg62
g284
sbsg208
I01
sg209
(lp415
(F33.275571027405384
F17.657501972133193
tp416
a(F34.275571027405384
F17.657501972133193
tp417
asg212
Nsg213
Nsg214
Nsg215
F0.1
sg216
(lp418
sbag97
ag272
ag5
(g15
g7
Ntp419
Rp420
(dp421
g25
I2
sg27
(lp422
sg124
I1
sg129
Nsg130
I01
sg38
Nsg141
(lp423
sg195
Nsg196
Nsg208
I01
sg214
Nsg215
F0.1
sg19
Nsg20
g100
sg212
Nsg26
Nsg121
Nsg122
g92
sg123
Nsg125
(dp424
sg127
(lp425
sg48
Nsg194
Nsg209
Nsg50
Nsg57
(ipowercad.design.library_structures
BondWire
p426
(dp427
g201
F0.4
sg202
I1
sg45
S'Aluminium Power Bondwire 0.3x0.2mm'
p428
sg61
I2
sg204
F0.25
sg65
(ipowercad.design.library_structures
MaterialProperties
p429
(dp430
g45
S'Aluminium'
p431
sg70
Nsg72
F3e-08
sg71
Nsg68
Nsg73
Nsg74
Nsbsg62
(F0.3
F0.2
tp432
sbsg216
(lp433
sg213
Nsbasg194
Nsg195
Nsg48
Nsg196
Nsg50
g5
(g131
g7
Ntp434
Rp435
(dp436
g43
g135
sg136
I00
sg137
(I5
I0
tp437
sg139
(I0
I0
tp438
sbsg57
Nsg208
I01
sg209
Nsg212
(ipowercad.general.data_struct.util
Rect
p439
(dp440
g79
F0.0
sg80
F0.0
sg81
F0.0
sg83
F0.0
sg78
F0.0
sg82
F0.0
sbsg213
g5
(g131
g7
Ntp441
Rp442
(dp443
g43
g135
sg139
(I0
I0
tp444
sg137
(I2
I0
tp445
sg136
I00
sbsg214
Nsg215
Nsg216
(lp446
sbsg25
I2
sg26
Nsg27
(lp447
sg121
Nsg122
g92
sg123
(F10.193309431220198
F11.647451006098493
tp448
sg124
I1
sg125
(dp449
sg127
(lp450
sg129
Nsg130
I01
sg38
Nsg141
(lp451
sg194
Nsg195
Nsg48
Nsg196
(lp452
(F10.373309431220198
F11.647451006098493
tp453
a(F11.373309431220198
F11.647451006098493
tp454
asg50
Nsg57
(ipowercad.design.library_structures
BondWire
p455
(dp456
g201
F0.4
sg61
I2
sg202
I1
sg45
g428
sg204
F0.25
sg65
(ipowercad.design.library_structures
MaterialProperties
p457
(dp458
g68
Nsg45
g431
sg70
Nsg71
Nsg72
F3e-08
sg73
Nsg74
Nsbsg62
g432
sbsg208
I01
sg209
(lp459
(F10.373309431220198
F17.657501972133193
tp460
a(F11.373309431220198
F17.657501972133193
tp461
asg212
Nsg213
Nsg214
Nsg215
F0.1
sg216
(lp462
sbag187
ag420
ag233
asg38
g5
(g39
g7
Ntp463
Rp464
(dp465
g43
S'M2'
p466
sg45
Nsg46
(F3.0
F1.0
tp467
sbsg45
g466
sg48
Nsg26
I0
sg49
g88
sg50
g5
(g39
g7
Ntp468
Rp469
(dp470
g43
g466
sg45
Nsg46
(I3
I1
tp471
sbsg55
(lp472
g296
(g300
S'\x00\x00\x00\x00\x00\x00\xf0?'
p473
tp474
Rp475
ag296
(g300
S'\x00\x00\x00\x00\x00\x00\x00\x00'
p476
tp477
Rp478
ag296
(g300
S'\x00\x00\x00\x00\x00\x00\x00\x00'
p479
tp480
Rp481
asg57
g312
sg75
(ipowercad.general.data_struct.util
Rect
p482
(dp483
g78
F3.3599999999999994
sg79
F11.873309431220198
sg80
F15.657501972133193
sg81
F18.757501972133195
sg82
F8.513309431220199
sg83
F3.1000000000000014
sbsg84
I1
sg85
I3
sbag148
asg20
Nsg25
Nsg26
I1
sg27
(lp484
g30
ag30
asg121
Nsg122
Nsg123
Nsg124
Nsg125
(dp485
sg127
(lp486
sg129
Nsg130
I00
sg38
g5
(g131
g7
Ntp487
Rp488
(dp489
g43
S'T2'
p490
sg136
I00
sg137
(F5.0
F1.0
tp491
sg139
(F0.0
F1.0
tp492
sbsg45
g490
sg141
(lp493
sg194
Nsg195
Nsg48
Nsg196
Nsg50
g5
(g131
g7
Ntp494
Rp495
(dp496
g43
g490
sg136
I00
sg137
(I5
I1
tp497
sg139
(I0
I1
tp498
sbsg57
Nsg208
I01
sg209
Nsg212
(ipowercad.general.data_struct.util
Rect
p499
(dp500
g79
F0.0
sg80
F0.0
sg81
F0.0
sg83
F0.0
sg78
F0.0
sg82
F0.0
sbsg213
g5
(g131
g7
Ntp501
Rp502
(dp503
g43
g490
sg139
(I0
I1
tp504
sg137
(I2
I1
tp505
sg136
I00
sbsg214
Nsg215
Nsg216
(lp506
sbag22
ag88
ag22
asg121
Nsg122
Nsg123
Nsg124
Nsg125
(dp507
sg127
(lp508
sg129
Nsg130
I00
sg38
g5
(g131
g7
Ntp509
Rp510
(dp511
g43
S'T4'
p512
sg136
I01
sg137
(F5.0
F5.0
tp513
sg139
(F5.0
F1.0
tp514
sbsg45
g512
sg141
(lp515
sg194
Nsg195
Nsg48
Nsg196
Nsg50
g5
(g131
g7
Ntp516
Rp517
(dp518
g43
g512
sg136
I01
sg137
(I5
I5
tp519
sg139
(I5
I1
tp520
sbsg57
Nsg208
I01
sg209
Nsg212
(ipowercad.general.data_struct.util
Rect
p521
(dp522
g79
F0.0
sg80
F0.0
sg81
F0.0
sg83
F0.0
sg78
F0.0
sg82
F0.0
sbsg213
g5
(g131
g7
Ntp523
Rp524
(dp525
g43
g512
sg139
(I2
I1
tp526
sg137
(I2
I5
tp527
sg136
I01
sbsg214
Nsg215
Nsg216
(lp528
sbag30
asg121
Nsg122
Nsg123
Nsg124
Nsg125
(dp529
sg127
(lp530
sg129
Nsg130
I00
sg38
g5
(g131
g7
Ntp531
Rp532
(dp533
g43
S'T7'
p534
sg136
I00
sg137
(F5.0
F5.0
tp535
sg139
(F0.0
F5.0
tp536
sbsg45
g534
sg141
(lp537
g17
ag5
(g15
g7
Ntp538
Rp539
(dp540
g19
Nsg20
g22
sg25
I2
sg26
Nsg27
(lp541
sg121
Nsg122
g5
(g6
g7
Ntp542
Rp543
(dp544
g11
(F30.18592736700343
F33.9054738952399
tp545
sg13
(lp546
g539
ag5
(g15
g7
Ntp547
Rp548
(dp549
g19
Nsg20
g5
(g15
g7
Ntp550
Rp551
(dp552
g19
(lp553
g5
(g6
g7
Ntp554
Rp555
(dp556
g11
(lp557
F0.6
aF28.099469743117012
asg13
(lp558
sg38
g5
(g39
g7
Ntp559
Rp560
(dp561
g43
S'L4'
p562
sg45
Nsg46
(F1.0
F3.0
tp563
sbsg45
g562
sg48
Nsg26
Nsg49
g551
sg50
g5
(g39
g7
Ntp564
Rp565
(dp566
g43
g562
sg45
Nsg46
(I1
I3
tp567
sbsg55
(lp568
sg57
g58
sg75
(ipowercad.general.data_struct.util
Rect
p569
(dp570
g78
F1.2
sg79
F1.2
sg80
F27.49946974311701
sg81
F28.699469743117014
sg82
F0.0
sg83
F1.2000000000000028
sbsg84
I23
sg85
Nsbasg20
Nsg25
Nsg26
I3
sg27
(lp571
sg121
Nsg122
Nsg123
Nsg124
Nsg125
(dp572
sg127
(lp573
sg129
Nsg130
I00
sg38
g5
(g131
g7
Ntp574
Rp575
(dp576
g43
S'T5'
p577
sg136
I00
sg137
(F4.0
F3.0
tp578
sg139
(F0.0
F3.0
tp579
sbsg45
g577
sg141
(lp580
g5
(g15
g7
Ntp581
Rp582
(dp583
g19
Nsg20
g551
sg25
I2
sg26
Nsg27
(lp584
sg121
Nsg122
g9
sg123
(F24.294685933128893
F29.420679732434753
tp585
sg124
I2
sg125
(dp586
sg127
(lp587
sg129
Nsg130
I01
sg38
Nsg141
(lp588
sg194
Nsg195
Nsg48
Nsg196
(lp589
(F25.614685933128893
F29.420679732434753
tp590
asg50
Nsg57
(ipowercad.design.library_structures
BondWire
p591
(dp592
g201
F0.2
sg61
I1
sg202
I2
sg45
S'Aluminium Signal Bondwire 0.1mm'
p593
sg204
F0.125
sg65
(ipowercad.design.library_structures
MaterialProperties
p594
(dp595
g68
Nsg45
S'Aluminium'
p596
sg70
Nsg71
Nsg72
F3e-08
sg73
Nsg74
Nsbsg62
F0.1
sbsg208
I01
sg209
(lp597
(F25.614685933128893
F34.4554738952399
tp598
asg212
Nsg213
Nsg214
Nsg215
F0.1
sg216
(lp599
sbag548
ag5
(g15
g7
Ntp600
Rp601
(dp602
g25
I2
sg27
(lp603
sg124
I2
sg129
Nsg130
I01
sg38
Nsg141
(lp604
sg195
Nsg196
Nsg208
I01
sg214
Nsg215
F0.1
sg19
Nsg20
g551
sg212
Nsg26
Nsg121
Nsg122
g9
sg123
Nsg125
(dp605
sg127
(lp606
sg48
Nsg194
Nsg209
Nsg50
Nsg57
(ipowercad.design.library_structures
BondWire
p607
(dp608
g201
F0.2
sg202
I2
sg45
g593
sg61
I1
sg204
F0.125
sg65
(ipowercad.design.library_structures
MaterialProperties
p609
(dp610
g45
g596
sg70
Nsg72
F3e-08
sg71
Nsg68
Nsg73
Nsg74
Nsbsg62
F0.1
sbsg216
(lp611
sg213
Nsbag5
(g15
g7
Ntp612
Rp613
(dp614
g25
I2
sg27
(lp615
sg124
I2
sg129
Nsg130
I01
sg38
Nsg141
(lp616
sg195
Nsg196
Nsg208
I01
sg214
Nsg215
F0.1
sg19
Nsg20
g551
sg212
Nsg26
Nsg121
Nsg122
g543
sg123
Nsg125
(dp617
sg127
(lp618
sg48
Nsg194
Nsg209
Nsg50
Nsg57
(ipowercad.design.library_structures
BondWire
p619
(dp620
g201
F0.2
sg202
I2
sg45
S'Aluminium Signal Bondwire 0.1mm'
p621
sg61
I1
sg204
F0.125
sg65
(ipowercad.design.library_structures
MaterialProperties
p622
(dp623
g45
S'Aluminium'
p624
sg70
Nsg72
F3e-08
sg71
Nsg68
Nsg73
Nsg74
Nsbsg62
F0.1
sbsg216
(lp625
sg213
Nsbasg194
Nsg195
Nsg48
Nsg196
Nsg50
g5
(g131
g7
Ntp626
Rp627
(dp628
g43
g577
sg136
I00
sg137
(I4
I3
tp629
sg139
(I0
I3
tp630
sbsg57
Nsg208
I01
sg209
Nsg212
(ipowercad.general.data_struct.util
Rect
p631
(dp632
g79
F0.0
sg80
F0.0
sg81
F0.0
sg83
F0.0
sg78
F0.0
sg82
F0.0
sbsg213
g5
(g131
g7
Ntp633
Rp634
(dp635
g43
g577
sg139
(I0
I3
tp636
sg137
(I1
I3
tp637
sg136
I00
sbsg214
Nsg215
Nsg216
(lp638
sbsg25
I2
sg26
Nsg27
(lp639
sg121
Nsg122
g543
sg123
(F30.18592736700343
F29.420679732434753
tp640
sg124
I2
sg125
(dp641
sg127
(lp642
sg129
Nsg130
I01
sg38
Nsg141
(lp643
sg194
Nsg195
Nsg48
Nsg196
(lp644
(F31.50592736700343
F29.420679732434753
tp645
asg50
Nsg57
(ipowercad.design.library_structures
BondWire
p646
(dp647
g201
F0.2
sg61
I1
sg202
I2
sg45
g621
sg204
F0.125
sg65
(ipowercad.design.library_structures
MaterialProperties
p648
(dp649
g68
Nsg45
g624
sg70
Nsg71
Nsg72
F3e-08
sg73
Nsg74
Nsbsg62
F0.1
sbsg208
I01
sg209
(lp650
(F31.50592736700343
F34.4554738952399
tp651
asg212
Nsg213
Nsg214
Nsg215
F0.1
sg216
(lp652
sbag5
(g15
g7
Ntp653
Rp654
(dp655
g25
I2
sg27
(lp656
sg124
I1
sg129
Nsg130
I01
sg38
Nsg141
(lp657
sg195
Nsg196
Nsg208
I01
sg214
Nsg215
F0.1
sg19
Nsg20
g22
sg212
Nsg26
Nsg121
Nsg122
g543
sg123
Nsg125
(dp658
sg127
(lp659
sg48
Nsg194
Nsg209
Nsg50
Nsg57
(ipowercad.design.library_structures
BondWire
p660
(dp661
g201
F0.4
sg202
I1
sg45
S'Aluminium Power Bondwire 0.3x0.2mm'
p662
sg61
I2
sg204
F0.25
sg65
(ipowercad.design.library_structures
MaterialProperties
p663
(dp664
g45
S'Aluminium'
p665
sg70
Nsg72
F3e-08
sg71
Nsg68
Nsg73
Nsg74
Nsbsg62
(F0.3
F0.2
tp666
sbsg216
(lp667
sg213
Nsbag613
asg38
g5
(g39
g7
Ntp668
Rp669
(dp670
g43
S'M3'
p671
sg45
Nsg46
(F3.0
F4.0
tp672
sbsg45
g671
sg48
Nsg26
I3
sg49
g5
(g15
g7
Ntp673
Rp674
(dp675
g19
(lp676
g5
(g6
g7
Ntp677
Rp678
(dp679
g11
(lp680
F0.6
aF33.9054738952399
asg13
(lp681
sg38
g5
(g39
g7
Ntp682
Rp683
(dp684
g43
S'L1'
p685
sg45
Nsg46
(F1.0
F4.0
tp686
sbsg45
g685
sg48
Nsg26
Nsg49
g674
sg50
g5
(g39
g7
Ntp687
Rp688
(dp689
g43
g685
sg45
Nsg46
(I1
I4
tp690
sbsg55
(lp691
sg57
g58
sg75
(ipowercad.general.data_struct.util
Rect
p692
(dp693
g78
F1.2
sg79
F1.2
sg80
F33.3054738952399
sg81
F34.5054738952399
sg82
F0.0
sg83
F1.2000000000000028
sbsg84
I24
sg85
Nsbag9
ag543
asg20
Nsg25
Nsg26
I4
sg27
(lp694
sg121
Nsg122
Nsg123
Nsg124
Nsg125
(dp695
sg127
(lp696
sg129
Nsg130
I00
sg38
g5
(g131
g7
Ntp697
Rp698
(dp699
g43
S'T6'
p700
sg136
I00
sg137
(F4.0
F4.0
tp701
sg139
(F0.0
F4.0
tp702
sbsg45
g700
sg141
(lp703
sg194
Nsg195
Nsg48
Nsg196
Nsg50
g5
(g131
g7
Ntp704
Rp705
(dp706
g43
g700
sg136
I00
sg137
(I4
I4
tp707
sg139
(I0
I4
tp708
sbsg57
Nsg208
I01
sg209
Nsg212
(ipowercad.general.data_struct.util
Rect
p709
(dp710
g79
F0.0
sg80
F0.0
sg81
F0.0
sg83
F0.0
sg78
F0.0
sg82
F0.0
sbsg213
g5
(g131
g7
Ntp711
Rp712
(dp713
g43
g700
sg139
(I0
I4
tp714
sg137
(I1
I4
tp715
sg136
I00
sbsg214
Nsg215
Nsg216
(lp716
sbsg50
g5
(g39
g7
Ntp717
Rp718
(dp719
g43
g671
sg45
Nsg46
(I3
I4
tp720
sbsg55
(lp721
g296
(g300
S'\x00\x00\x00\x00\x00\x00\xf0?'
p722
tp723
Rp724
ag296
(g300
S'\x00\x00\x00\x00\x00\x00\x00\x00'
p725
tp726
Rp727
ag296
(g300
S'\x00\x00\x00\x00\x00\x00\x00\x00'
p728
tp729
Rp730
asg57
g312
sg75
(ipowercad.general.data_struct.util
Rect
p731
(dp732
g78
F3.3599999999999994
sg79
F31.86592736700343
sg80
F32.3554738952399
sg81
F35.4554738952399
sg82
F28.50592736700343
sg83
F3.0999999999999943
sbsg84
I14
sg85
I4
sbsg123
(F30.18592736700343
F39.19026805804505
tp733
sg124
I1
sg125
(dp734
sg127
(lp735
sg129
Nsg130
I01
sg38
Nsg141
(lp736
sg194
Nsg195
Nsg48
Nsg196
(lp737
(F30.00592736700343
F39.19026805804505
tp738
a(F29.00592736700343
F39.19026805804505
tp739
asg50
Nsg57
(ipowercad.design.library_structures
BondWire
p740
(dp741
g201
F0.4
sg61
I2
sg202
I1
sg45
g662
sg204
F0.25
sg65
(ipowercad.design.library_structures
MaterialProperties
p742
(dp743
g68
Nsg45
g665
sg70
Nsg71
Nsg72
F3e-08
sg73
Nsg74
Nsbsg62
g666
sbsg208
I01
sg209
(lp744
(F30.00592736700343
F33.4554738952399
tp745
a(F29.00592736700343
F33.4554738952399
tp746
asg212
Nsg213
Nsg214
Nsg215
F0.1
sg216
(lp747
sbag5
(g15
g7
Ntp748
Rp749
(dp750
g25
I2
sg27
(lp751
sg124
I1
sg129
Nsg130
I01
sg38
Nsg141
(lp752
sg195
Nsg196
Nsg208
I01
sg214
Nsg215
F0.1
sg19
Nsg20
g22
sg212
Nsg26
Nsg121
Nsg122
g9
sg123
Nsg125
(dp753
sg127
(lp754
sg48
Nsg194
Nsg209
Nsg50
Nsg57
(ipowercad.design.library_structures
BondWire
p755
(dp756
g201
F0.4
sg202
I1
sg45
S'Aluminium Power Bondwire 0.3x0.2mm'
p757
sg61
I2
sg204
F0.25
sg65
(ipowercad.design.library_structures
MaterialProperties
p758
(dp759
g45
S'Aluminium'
p760
sg70
Nsg72
F3e-08
sg71
Nsg68
Nsg73
Nsg74
Nsbsg62
(F0.3
F0.2
tp761
sbsg216
(lp762
sg213
Nsbag654
asg194
Nsg195
Nsg48
Nsg196
Nsg50
g5
(g131
g7
Ntp763
Rp764
(dp765
g43
g534
sg136
I00
sg137
(I5
I5
tp766
sg139
(I0
I5
tp767
sbsg57
Nsg208
I01
sg209
Nsg212
(ipowercad.general.data_struct.util
Rect
p768
(dp769
g79
F0.0
sg80
F0.0
sg81
F0.0
sg83
F0.0
sg78
F0.0
sg82
F0.0
sbsg213
g5
(g131
g7
Ntp770
Rp771
(dp772
g43
g534
sg139
(I0
I5
tp773
sg137
(I2
I5
tp774
sg136
I00
sbsg214
Nsg215
Nsg216
(lp775
sbsg25
I2
sg26
Nsg27
(lp776
sg121
Nsg122
g9
sg123
(F24.294685933128893
F39.19026805804505
tp777
sg124
I1
sg125
(dp778
sg127
(lp779
sg129
Nsg130
I01
sg38
Nsg141
(lp780
sg194
Nsg195
Nsg48
Nsg196
(lp781
(F24.114685933128893
F39.19026805804505
tp782
a(F23.114685933128893
F39.19026805804505
tp783
asg50
Nsg57
(ipowercad.design.library_structures
BondWire
p784
(dp785
g201
F0.4
sg61
I2
sg202
I1
sg45
g757
sg204
F0.25
sg65
(ipowercad.design.library_structures
MaterialProperties
p786
(dp787
g68
Nsg45
g760
sg70
Nsg71
Nsg72
F3e-08
sg73
Nsg74
Nsbsg62
g761
sbsg208
I01
sg209
(lp788
(F24.114685933128893
F33.4554738952399
tp789
a(F23.114685933128893
F33.4554738952399
tp790
asg212
Nsg213
Nsg214
Nsg215
F0.1
sg216
(lp791
sbag582
ag749
ag601
asg38
g5
(g39
g7
Ntp792
Rp793
(dp794
g43
S'M1'
p795
sg45
Nsg46
(F2.0
F4.0
tp796
sbsg45
g795
sg48
Nsg26
I2
sg49
g674
sg50
g5
(g39
g7
Ntp797
Rp798
(dp799
g43
g795
sg45
Nsg46
(I2
I4
tp800
sbsg55
(lp801
g296
(g300
S'\x00\x00\x00\x00\x00\x00\xf0?'
p802
tp803
Rp804
ag296
(g300
S'\x00\x00\x00\x00\x00\x00\x00\x00'
p805
tp806
Rp807
ag296
(g300
S'\x00\x00\x00\x00\x00\x00\x00\x00'
p808
tp809
Rp810
asg57
g312
sg75
(ipowercad.general.data_struct.util
Rect
p811
(dp812
g78
F3.3599999999999994
sg79
F25.974685933128892
sg80
F32.3554738952399
sg81
F35.4554738952399
sg82
F22.614685933128893
sg83
F3.0999999999999943
sbsg84
I9
sg85
I4
sbag543
ag92
ag148
asS'perf_table'
p813
(dp814
S'1'
p815
(dp816
S'type'
p817
S'Electrical'
p818
sS'Eval'
p819
S'Inductance'
p820
sS'measure'
p821
g5
(cpowercad.sym_layout.symbolic_layout
ElectricalMeasure
p822
g7
Ntp823
Rp824
(dp825
S'sink_term'
p826
Nsg45
g815
sS'mdl'
p827
S'MS'
p828
sS'src_term'
p829
NsS'lines'
p830
NsS'dev_state'
p831
g5
(cpandas.core.frame
DataFrame
p832
g7
Ntp833
Rp834
(dp835
S'_metadata'
p836
(lp837
sS'_typ'
p838
S'dataframe'
p839
sS'_data'
p840
g5
(cpandas.core.internals
BlockManager
p841
g7
Ntp842
Rp843
((lp844
cpandas.core.indexes.base
_new_Index
p845
(cpandas.core.indexes.numeric
Int64Index
p846
(dp847
S'data'
p848
cnumpy.core.multiarray
_reconstruct
p849
(cnumpy
ndarray
p850
(I0
tp851
g204
tp852
Rp853
(I1
(I4
tp854
g297
(S'i8'
p855
I0
I1
tp856
Rp857
(I3
S'<'
p858
NNNI-1
I-1
I0
tp859
bI00
S'\x00\x00\x00\x00\x00\x00\x00\x00\x01\x00\x00\x00\x00\x00\x00\x00\x02\x00\x00\x00\x00\x00\x00\x00\x03\x00\x00\x00\x00\x00\x00\x00'
p860
tp861
bsg45
Nstp862
Rp863
ag845
(g846
(dp864
g848
g849
(g850
(I0
tp865
g204
tp866
Rp867
(I1
(I4
tp868
g857
I00
S'\x00\x00\x00\x00\x00\x00\x00\x00\x01\x00\x00\x00\x00\x00\x00\x00\x02\x00\x00\x00\x00\x00\x00\x00\x03\x00\x00\x00\x00\x00\x00\x00'
p869
tp870
bsg45
Nstp871
Rp872
a(lp873
g849
(g850
(I0
tp874
g204
tp875
Rp876
(I1
(I3
I4
tp877
g300
I01
S'\x00\x00\x00\x00\x00\x00\xf0?\x00\x00\x00\x00\x00\x00\x00\x00\x00\x00\x00\x00\x00\x00\x00\x00\x00\x00\x00\x00\x00\x00\xf0?\x00\x00\x00\x00\x00\x00\x00\x00\x00\x00\x00\x00\x00\x00\x00\x00\x00\x00\x00\x00\x00\x00\xf0?\x00\x00\x00\x00\x00\x00\x00\x00\x00\x00\x00\x00\x00\x00\x00\x00\x00\x00\x00\x00\x00\x00\xf0?\x00\x00\x00\x00\x00\x00\x00\x00\x00\x00\x00\x00\x00\x00\x00\x00'
p878
tp879
bag849
(g850
(I0
tp880
g204
tp881
Rp882
(I1
(I1
I4
tp883
g297
(S'O4'
p884
I0
I1
tp885
Rp886
(I3
S'|'
p887
NNNI-1
I-1
I63
tp888
bI00
(lp889
VM1
p890
aVM3
p891
aVM2
p892
aVM4
p893
atp894
ba(lp895
g845
(g846
(dp896
g848
g849
(g850
(I0
tp897
g204
tp898
Rp899
(I1
(I3
tp900
g857
I00
S'\x01\x00\x00\x00\x00\x00\x00\x00\x02\x00\x00\x00\x00\x00\x00\x00\x03\x00\x00\x00\x00\x00\x00\x00'
p901
tp902
bsg45
Nstp903
Rp904
ag845
(g846
(dp905
g848
g849
(g850
(I0
tp906
g204
tp907
Rp908
(I1
(I1
tp909
g857
I00
S'\x00\x00\x00\x00\x00\x00\x00\x00'
p910
tp911
bsg45
Nstp912
Rp913
a(dp914
S'0.14.1'
p915
(dp916
S'axes'
p917
g844
sS'blocks'
p918
(lp919
(dp920
S'mgr_locs'
p921
c__builtin__
slice
p922
(I1
I4
L1L
tp923
Rp924
sS'values'
p925
g876
sa(dp926
g921
g922
(L0L
L1L
I1
tp927
Rp928
sg925
g882
sasstp929
bsbsg821
I2
sS'units'
p930
S'nH'
p931
sg137
g104
sg139
g678
sbssS' 2'
p932
(dp933
g817
S'Thermal'
p934
sg819
S'Maximum'
p935
sg821
g5
(cpowercad.sym_layout.symbolic_layout
ThermalMeasure
p936
g7
Ntp937
Rp938
(dp939
g930
S'K'
p940
sS'stat_fn'
p941
I1
sg45
g932
sS'devices'
p942
g4
sg827
I2
sbsssS'algorithm'
p943
I0
sS'plot_pareto'
p944
I00
sS'e_sink'
p945
NsS'e_src'
p946
NsS'rs_mdl'
p947
NsS'electrical_mode'
p948
I1
sS'electrical_dev_state'
p949
g834
sS'thermal_mode'
p950
I1
sS'thermal_func'
p951
I0
sb.