(ipowercad.project_builder.project
Project
p0
(dp1
S'deviceTable'
p2
(lp3
(lp4
V  CPM2-1200-0080B-MOS.p
p5
a(ipowercad.design.project_structures
DeviceInstance
p6
(dp7
S'attach_thickness'
p8
F0.01
sS'heat_flow'
p9
F3.0
sS'attach_tech'
p10
(ipowercad.design.library_structures
DieAttach
p11
(dp12
S'properties'
p13
(ipowercad.design.library_structures
MaterialProperties
p14
(dp15
S'name'
p16
S'Pb-Sn Solder Alloy'
p17
sS'density'
p18
F11020.0
sS'electrical_res'
p19
NsS'rel_permeab'
p20
NsS'rel_permit'
p21
NsS'thermal_cond'
p22
F35.8
sS'spec_heat_cap'
p23
F130.0
sbsbsS'device_tech'
p24
(ipowercad.design.library_structures
Device
p25
(dp26
g16
S'CPM2-1200-0080B-MOS'
p27
sS'wire_landings'
p28
(lp29
(ipowercad.design.library_structures
BondwireLanding
p30
(dp31
S'position'
p32
(F1.0
F3.0
tp33
sS'bond_type'
p34
I2
sba(ipowercad.design.library_structures
BondwireLanding
p35
(dp36
g32
(F2.0
F1.5
tp37
sg34
I1
sba(ipowercad.design.library_structures
BondwireLanding
p38
(dp39
g32
(F2.0
F0.5
tp40
sg34
I1
sbasS'device_model'
p41
NsS'power_side'
p42
I1
sS'device_type'
p43
I1
sg13
(ipowercad.design.library_structures
MaterialProperties
p44
(dp45
S'young_mdl'
p46
NsS'poi_rat'
p47
Nsg16
Nsg18
F3100.0
sS'expansion_coeff'
p48
Nsg19
Nsg20
Nsg21
Nsg22
F370.0
sS'id'
p49
Nsg23
F750.0
sbsS'dimensions'
p50
(F3.1
F3.36
F0.22
tp51
sbsbaa(lp52
V  Cylindrical Aluminium Lead 1.2mm Diam..p
p53
a(ipowercad.design.library_structures
Lead
p54
(dp55
S'lead_type'
p56
I2
sS'shape'
p57
I2
sg50
(F1.2
I10
tp58
sg16
S'Cylindrical Aluminium Lead 1.2mm Diam.'
p59
sg13
(ipowercad.design.library_structures
MaterialProperties
p60
(dp61
g16
S'Aluminium'
p62
sg18
Nsg19
F3e-08
sg20
Nsg21
Nsg22
Nsg23
NsbsbaasS'sym_info'
p63
(dp64
sg16
VH-bridge
p65
sS'netlist'
p66
NsS'module_data'
p67
ccopy_reg
_reconstructor
p68
(cpowercad.design.module_data
ModuleData
p69
c__builtin__
object
p70
Ntp71
Rp72
(dp73
S'substrate'
p74
(ipowercad.design.project_structures
SubstrateInstance
p75
(dp76
S'ledge_width'
p77
F2.0
sg50
(F40.0
F50.0
tp78
sS'substrate_tech'
p79
(ipowercad.design.library_structures
Substrate
p80
(dp81
S'isolation_properties'
p82
(ipowercad.design.library_structures
MaterialProperties
p83
(dp84
g46
F305000000000.0
sg47
Nsg16
S'Al_N'
p85
sg18
F3250.0
sg48
F5.2e-06
sg19
Nsg20
Nsg21
F8.8
sg22
F120.0
sg49
S'Al_N'
p86
sg23
F734.3
sbsS'metal_properties'
p87
(ipowercad.design.library_structures
MaterialProperties
p88
(dp89
g46
F120000000000.0
sg47
F0.38
sg16
S'copper'
p90
sg18
F8933.0
sg48
F1.77e-05
sg19
F1.72e-08
sg20
F0.999991
sg21
Nsg22
F400.0
sg49
S'copper'
p91
sg23
F385.0
sbsS'isolation_thickness'
p92
F0.64
sg16
NsS'metal_thickness'
p93
F0.2
sbsbsS'ambient_temp'
p94
NsS'sublayers_thermal'
p95
NsS'substrate_attach'
p96
(ipowercad.design.project_structures
SubstrateAttachInstance
p97
(dp98
g10
(ipowercad.design.library_structures
SubstrateAttach
p99
(dp100
g13
(ipowercad.design.library_structures
MaterialProperties
p101
(dp102
g46
F69000000000.0
sg47
F0.4
sg16
S'solder'
p103
sg18
F8000.0
sg48
F1.59e-06
sg19
F1.43e-07
sg20
Nsg21
Nsg22
F48.0
sg49
S'solder'
p104
sg23
F167.0
sbsbsS'thickness'
p105
F0.08
sbsS'frequency'
p106
NsS'baseplate'
p107
NsS'design_rules'
p108
(ipowercad.design.project_structures
ProcessDesignRules
p109
(dp110
S'min_trace_trace_width'
p111
F1.2
sS'signal_wire_component_dist'
p112
F0.2
sS'min_die_trace_dist'
p113
F0.1
sS'power_wire_trace_dist'
p114
F1.0
sS'power_wire_component_dist'
p115
F0.2
sS'min_die_die_dist'
p116
F0.2
sS'min_trace_width'
p117
F1.2
sS'signal_wire_trace_dist'
p118
F0.2
sbsbsS'layout_engine'
p119
S'SL'
p120
sS'tech_lib_dir'
p121
S'C:\\Users\\ialrazi\\PowerSynth\\CornerStitch_Dev\\PowerCAD-full\\tech_lib'
p122
sS'module_stack_edit'
p123
(lp124
Vcopper-Al_N-copper
p125
aV40.0
p126
aV50.0
p127
aV2.0
p128
aVsolder
p129
aV0.08
p130
aVcopper
p131
aV60.0
p132
aV60.0
p133
aV6.0
p134
aV150
p135
aV50
p136
aV300
p137
asS'layer_stack_file'
p138
VD:\u005cUI_UPDATE\u005cSample_Projects\u005cH-bridge\u005clayer_stack.csv
p139
sS'num_gen'
p140
I100
sS'solutions'
p141
(lp142
sS'directory'
p143
VD:\u005cUI_UPDATE\u005cSample_Projects\u005cH-bridge
p144
sS'symb_layout'
p145
g68
(cpowercad.sym_layout.symbolic_layout
SymbolicLayout
p146
g70
Ntp147
Rp148
(dp149
S'SymLine'
p150
cpowercad.sym_layout.symbolic_layout
SymLine
p151
sS'all_super_traces'
p152
NsS'symmetries'
p153
(lp154
sS'v_overflow'
p155
NsS'opt_dv_list'
p156
NsS'trace_xlen'
p157
NsS'all_sym'
p158
(lp159
g68
(g151
g70
Ntp160
Rp161
(dp162
S'num_wires'
p163
NsS'trace_connections'
p164
(lp165
sS'dev_pt'
p166
NsS'land_pt2'
p167
NsS'wire'
p168
I00
sS'raw_element'
p169
g68
(cpowercad.sym_layout.svg
LayoutLine
p170
g70
Ntp171
Rp172
(dp173
S'path_id'
p174
S'T1'
p175
sS'vertical'
p176
I00
sS'pt2'
p177
(F5.0
F0.0
tp178
sS'pt1'
p179
(F0.0
F0.0
tp180
sbsS'conn_bonds'
p181
(lp182
sS'start_pt_conn'
p183
NsS'end_pts'
p184
NsS'has_rect'
p185
I01
sS'trace2'
p186
NsS'wire_sep'
p187
NsS'child_pts'
p188
NsS'trace'
p189
NsS'trace_rect'
p190
NsS'dv_index'
p191
NsS'intersecting_trace'
p192
NsS'device'
p193
NsS'land_pt'
p194
NsS'long_contacts'
p195
(dp196
sS'super_connections'
p197
(lp198
sg16
g175
sS'constraint'
p199
NsS'end_pt_conn'
p200
NsS'start_pts'
p201
NsS'element'
p202
g68
(g170
g70
Ntp203
Rp204
(dp205
g174
g175
sg176
I00
sg177
(I5
I0
tp206
sg179
(I0
I0
tp207
sbsS'tech'
p208
NsS'normal_connections'
p209
(lp210
sS'trace_line'
p211
Nsbag68
(g151
g70
Ntp212
Rp213
(dp214
g163
Nsg164
(lp215
sg166
Nsg167
Nsg168
I00
sg169
g68
(g170
g70
Ntp216
Rp217
(dp218
g174
S'T2'
p219
sg176
I00
sg177
(F5.0
F1.0
tp220
sg179
(F0.0
F1.0
tp221
sbsg181
(lp222
sg183
Nsg184
Nsg185
I01
sg186
Nsg187
Nsg188
Nsg189
Nsg190
Nsg191
Nsg192
Nsg193
Nsg194
Nsg195
(dp223
sg197
(lp224
sg16
g219
sg199
Nsg200
Nsg201
Nsg202
g68
(g170
g70
Ntp225
Rp226
(dp227
g174
g219
sg176
I00
sg177
(I5
I1
tp228
sg179
(I0
I1
tp229
sbsg208
Nsg209
(lp230
sg211
Nsbag68
(g151
g70
Ntp231
Rp232
(dp233
g163
Nsg164
(lp234
sg166
Nsg167
Nsg168
I00
sg169
g68
(g170
g70
Ntp235
Rp236
(dp237
g174
S'T3'
p238
sg176
I00
sg177
(F4.0
F2.0
tp239
sg179
(F0.0
F2.0
tp240
sbsg181
(lp241
sg183
Nsg184
Nsg185
I01
sg186
Nsg187
Nsg188
Nsg189
Nsg190
Nsg191
Nsg192
Nsg193
Nsg194
Nsg195
(dp242
sg197
(lp243
sg16
g238
sg199
Nsg200
Nsg201
Nsg202
g68
(g170
g70
Ntp244
Rp245
(dp246
g174
g238
sg176
I00
sg177
(I4
I2
tp247
sg179
(I0
I2
tp248
sbsg208
Nsg209
(lp249
sg211
Nsbag68
(g151
g70
Ntp250
Rp251
(dp252
g163
Nsg164
(lp253
sg166
Nsg167
Nsg168
I00
sg169
g68
(g170
g70
Ntp254
Rp255
(dp256
g174
S'T4'
p257
sg176
I01
sg177
(F5.0
F5.0
tp258
sg179
(F5.0
F1.0
tp259
sbsg181
(lp260
sg183
Nsg184
Nsg185
I01
sg186
Nsg187
Nsg188
Nsg189
Nsg190
Nsg191
Nsg192
Nsg193
Nsg194
Nsg195
(dp261
sg197
(lp262
sg16
g257
sg199
Nsg200
Nsg201
Nsg202
g68
(g170
g70
Ntp263
Rp264
(dp265
g174
g257
sg176
I01
sg177
(I5
I5
tp266
sg179
(I5
I1
tp267
sbsg208
Nsg209
(lp268
sg211
Nsbag68
(g151
g70
Ntp269
Rp270
(dp271
g163
Nsg164
(lp272
sg166
Nsg167
Nsg168
I00
sg169
g68
(g170
g70
Ntp273
Rp274
(dp275
g174
S'T5'
p276
sg176
I00
sg177
(F4.0
F3.0
tp277
sg179
(F0.0
F3.0
tp278
sbsg181
(lp279
sg183
Nsg184
Nsg185
I01
sg186
Nsg187
Nsg188
Nsg189
Nsg190
Nsg191
Nsg192
Nsg193
Nsg194
Nsg195
(dp280
sg197
(lp281
sg16
g276
sg199
Nsg200
Nsg201
Nsg202
g68
(g170
g70
Ntp282
Rp283
(dp284
g174
g276
sg176
I00
sg177
(I4
I3
tp285
sg179
(I0
I3
tp286
sbsg208
Nsg209
(lp287
sg211
Nsbag68
(g151
g70
Ntp288
Rp289
(dp290
g163
Nsg164
(lp291
sg166
Nsg167
Nsg168
I00
sg169
g68
(g170
g70
Ntp292
Rp293
(dp294
g174
S'T6'
p295
sg176
I00
sg177
(F4.0
F4.0
tp296
sg179
(F0.0
F4.0
tp297
sbsg181
(lp298
sg183
Nsg184
Nsg185
I01
sg186
Nsg187
Nsg188
Nsg189
Nsg190
Nsg191
Nsg192
Nsg193
Nsg194
Nsg195
(dp299
sg197
(lp300
sg16
g295
sg199
Nsg200
Nsg201
Nsg202
g68
(g170
g70
Ntp301
Rp302
(dp303
g174
g295
sg176
I00
sg177
(I4
I4
tp304
sg179
(I0
I4
tp305
sbsg208
Nsg209
(lp306
sg211
Nsbag68
(g151
g70
Ntp307
Rp308
(dp309
g163
Nsg164
(lp310
sg166
Nsg167
Nsg168
I00
sg169
g68
(g170
g70
Ntp311
Rp312
(dp313
g174
S'T7'
p314
sg176
I00
sg177
(F5.0
F5.0
tp315
sg179
(F0.0
F5.0
tp316
sbsg181
(lp317
sg183
Nsg184
Nsg185
I01
sg186
Nsg187
Nsg188
Nsg189
Nsg190
Nsg191
Nsg192
Nsg193
Nsg194
Nsg195
(dp318
sg197
(lp319
sg16
g314
sg199
Nsg200
Nsg201
Nsg202
g68
(g170
g70
Ntp320
Rp321
(dp322
g174
g314
sg176
I00
sg177
(I5
I5
tp323
sg179
(I0
I5
tp324
sbsg208
Nsg209
(lp325
sg211
Nsbag68
(cpowercad.sym_layout.symbolic_layout
SymPoint
p326
g70
Ntp327
Rp328
(dp329
S'center_position'
p330
NsS'sym_bondwires'
p331
(lp332
sg169
g68
(cpowercad.sym_layout.svg
LayoutPoint
p333
g70
Ntp334
Rp335
(dp336
g174
S'L2'
p337
sg16
NsS'pt'
p338
(F1.0
F0.0
tp339
sbsg16
g337
sg199
Nsg191
NsS'parent_line'
p340
Nsg202
g68
(g333
g70
Ntp341
Rp342
(dp343
g174
g337
sg16
Nsg338
(I1
I0
tp344
sbsS'states'
p345
(lp346
sg208
g54
sS'footprint_rect'
p347
NsS'lumped_node'
p348
NsS'orientation'
p349
Nsbag68
(g326
g70
Ntp350
Rp351
(dp352
g330
Nsg331
(lp353
sg169
g68
(g333
g70
Ntp354
Rp355
(dp356
g174
S'L1'
p357
sg16
Nsg338
(F1.0
F4.0
tp358
sbsg16
g357
sg199
Nsg191
Nsg340
Nsg202
g68
(g333
g70
Ntp359
Rp360
(dp361
g174
g357
sg16
Nsg338
(I1
I4
tp362
sbsg345
(lp363
sg208
g54
sg347
Nsg348
Nsg349
Nsbag68
(g326
g70
Ntp364
Rp365
(dp366
g330
Nsg331
(lp367
sg169
g68
(g333
g70
Ntp368
Rp369
(dp370
g174
S'L5'
p371
sg16
Nsg338
(F5.0
F3.0
tp372
sbsg16
g371
sg199
Nsg191
Nsg340
Nsg202
g68
(g333
g70
Ntp373
Rp374
(dp375
g174
g371
sg16
Nsg338
(I5
I3
tp376
sbsg345
(lp377
sg208
g54
sg347
Nsg348
Nsg349
Nsbag68
(g326
g70
Ntp378
Rp379
(dp380
g330
Nsg331
(lp381
sg169
g68
(g333
g70
Ntp382
Rp383
(dp384
g174
S'L3'
p385
sg16
Nsg338
(F1.0
F2.0
tp386
sbsg16
g385
sg199
Nsg191
Nsg340
Nsg202
g68
(g333
g70
Ntp387
Rp388
(dp389
g174
g385
sg16
Nsg338
(I1
I2
tp390
sbsg345
(lp391
sg208
g54
sg347
Nsg348
Nsg349
Nsbag68
(g326
g70
Ntp392
Rp393
(dp394
g330
Nsg331
(lp395
sg169
g68
(g333
g70
Ntp396
Rp397
(dp398
g174
S'L4'
p399
sg16
Nsg338
(F1.0
F3.0
tp400
sbsg16
g399
sg199
Nsg191
Nsg340
Nsg202
g68
(g333
g70
Ntp401
Rp402
(dp403
g174
g399
sg16
Nsg338
(I1
I3
tp404
sbsg345
(lp405
sg208
g54
sg347
Nsg348
Nsg349
Nsbag68
(g326
g70
Ntp406
Rp407
(dp408
g330
Nsg331
(lp409
sg169
g68
(g333
g70
Ntp410
Rp411
(dp412
g174
S'M1'
p413
sg16
Nsg338
(F2.0
F4.0
tp414
sbsg16
g413
sg199
Nsg191
Nsg340
Nsg202
g68
(g333
g70
Ntp415
Rp416
(dp417
g174
g413
sg16
Nsg338
(I2
I4
tp418
sbsg345
(lp419
sg208
g6
sg347
Nsg348
Nsg349
Nsbag68
(g326
g70
Ntp420
Rp421
(dp422
g330
Nsg331
(lp423
sg169
g68
(g333
g70
Ntp424
Rp425
(dp426
g174
S'M3'
p427
sg16
Nsg338
(F3.0
F4.0
tp428
sbsg16
g427
sg199
Nsg191
Nsg340
Nsg202
g68
(g333
g70
Ntp429
Rp430
(dp431
g174
g427
sg16
Nsg338
(I3
I4
tp432
sbsg345
(lp433
sg208
g6
sg347
Nsg348
Nsg349
Nsbag68
(g326
g70
Ntp434
Rp435
(dp436
g330
Nsg331
(lp437
sg169
g68
(g333
g70
Ntp438
Rp439
(dp440
g174
S'M2'
p441
sg16
Nsg338
(F3.0
F1.0
tp442
sbsg16
g441
sg199
Nsg191
Nsg340
Nsg202
g68
(g333
g70
Ntp443
Rp444
(dp445
g174
g441
sg16
Nsg338
(I3
I1
tp446
sbsg345
(lp447
sg208
g6
sg347
Nsg348
Nsg349
Nsbag68
(g326
g70
Ntp448
Rp449
(dp450
g330
Nsg331
(lp451
sg169
g68
(g333
g70
Ntp452
Rp453
(dp454
g174
S'M4'
p455
sg16
Nsg338
(F2.0
F1.0
tp456
sbsg16
g455
sg199
Nsg191
Nsg340
Nsg202
g68
(g333
g70
Ntp457
Rp458
(dp459
g174
g455
sg16
Nsg338
(I2
I1
tp460
sbsg345
(lp461
sg208
g6
sg347
Nsg348
Nsg349
NsbasS'v_dv_list'
p462
NsS'leads'
p463
NsS'xlen'
p464
I6
sS'seed'
p465
NsS'vg_matrix'
p466
NsS'v_rowcol_list'
p467
NsS'mdl_type'
p468
(dp469
S'E'
p470
NsS'T'
p471
NssS'h_min_max_overflow'
p472
NsS'perf_measures'
p473
(lp474
sS'E_graph'
p475
NsS'layout'
p476
(lp477
g204
ag226
ag245
ag264
ag283
ag302
ag321
ag342
ag360
ag374
ag388
ag402
ag416
ag430
ag444
ag458
asS'trace_nodes'
p478
(lp479
sS'raw_layout'
p480
(lp481
g172
ag217
ag236
ag255
ag274
ag293
ag312
ag335
ag355
ag369
ag383
ag397
ag411
ag425
ag439
ag453
asS'all_lines'
p482
(lp483
g204
ag226
ag245
ag264
ag283
ag302
ag321
asS'sub_dim'
p484
NsS'trace_trace_connections'
p485
NsS'h_dv_list'
p486
NsS'h_overflow'
p487
NsS'fixed_constraints'
p488
NsS'trace_rects'
p489
Nsg108
NsS'bondwire_dv_list'
p490
NsS'h_design_values'
p491
NsS'lumped_graph'
p492
NsS'dev_design_values'
p493
NsS'removed_horiz_dv_index'
p494
NsS'v_min_max_overflow'
p495
NsS'corner_info'
p496
(lp497
sS'cost_funcs'
p498
(lp499
sS'gap'
p500
NsS'all_trace_lines'
p501
NsS'v_design_values'
p502
NsS'opt_to_sym_index'
p503
NsS'trace_graph'
p504
NsS'trace_layout'
p505
NsS'layout_ready'
p506
I00
sS'removed_vert_dv_index'
p507
NsS'boundary_connections'
p508
NsS'ylen'
p509
I6
sS'trace_graph_components'
p510
NsS'bondwire_design_values'
p511
NsS'h_rowcol_list'
p512
NsS'h_design_var_dict'
p513
NsS'trace_info'
p514
(lp515
sS'algorithm'
p516
NsS'symbol_graph'
p517
NsS'corner_nodes'
p518
(lp519
sS'devices'
p520
NsS'SymPoint'
p521
g326
sS'trace_ylen'
p522
NsS'points'
p523
(lp524
g328
ag351
ag365
ag379
ag393
ag407
ag421
ag435
ag449
asS'mode'
p525
I7
sS'all_points'
p526
(lp527
g342
ag360
ag374
ag388
ag402
ag416
ag430
ag444
ag458
asS'dev_dv_list'
p528
NsS'tol_constraints'
p529
NsS'bondwires'
p530
NsS'v_design_var_dict'
p531
NsbsS'tbl_bondwire_connect'
p532
g68
(cpandas.core.frame
DataFrame
p533
g70
Ntp534
Rp535
(dp536
S'_metadata'
p537
(lp538
sS'_typ'
p539
S'dataframe'
p540
sS'_data'
p541
g68
(cpandas.core.internals
BlockManager
p542
g70
Ntp543
Rp544
((lp545
cpandas.core.indexes.base
_new_Index
p546
(cpandas.core.indexes.base
Index
p547
(dp548
S'data'
p549
cnumpy.core.multiarray
_reconstruct
p550
(cnumpy
ndarray
p551
(I0
tp552
S'b'
p553
tp554
Rp555
(I1
(I9
tp556
cnumpy
dtype
p557
(S'O4'
p558
I0
I1
tp559
Rp560
(I3
S'|'
p561
NNNI-1
I-1
I63
tp562
bI00
(lp563
S'bw_type'
p564
aS'start'
p565
aS'stop'
p566
aS'obj'
p567
aI0
aI1
aI2
aI3
aI4
atp568
bsg16
Nstp569
Rp570
ag546
(cpandas.core.indexes.numeric
Int64Index
p571
(dp572
g549
g550
(g551
(I0
tp573
g553
tp574
Rp575
(I1
(I8
tp576
g557
(S'i8'
p577
I0
I1
tp578
Rp579
(I3
S'<'
p580
NNNI-1
I-1
I0
tp581
bI00
S'\x00\x00\x00\x00\x00\x00\x00\x00\x01\x00\x00\x00\x00\x00\x00\x00\x02\x00\x00\x00\x00\x00\x00\x00\x03\x00\x00\x00\x00\x00\x00\x00\x04\x00\x00\x00\x00\x00\x00\x00\x05\x00\x00\x00\x00\x00\x00\x00\x06\x00\x00\x00\x00\x00\x00\x00\x07\x00\x00\x00\x00\x00\x00\x00'
p582
tp583
bsg16
Nstp584
Rp585
a(lp586
g550
(g551
(I0
tp587
g553
tp588
Rp589
(I1
(I9
I8
tp590
g560
I01
(lp591
Fnan
aFnan
aFnan
aFnan
aFnan
aFnan
aFnan
aFnan
aFnan
aFnan
aFnan
aFnan
aFnan
aFnan
aFnan
aFnan
aFnan
aFnan
aFnan
aFnan
aFnan
aFnan
aFnan
aFnan
aFnan
aFnan
aFnan
aFnan
aFnan
aFnan
aFnan
aFnan
aVPOWER
p592
aVPOWER
p593
aVPOWER
p594
aVPOWER
p595
aVSIGNAL
p596
aVSIGNAL
p597
aVSIGNAL
p598
aVSIGNAL
p599
aVM1
p600
aVM3
p601
aVM4
p602
aVM2
p603
aVM4
p604
aVM2
p605
aVM1
p606
aVM3
p607
aVT7
p608
aVT7
p609
aVT1
p610
aVT1
p611
aVT3
p612
aVT3
p613
aVT5
p614
aVT5
p615
aV Aluminium Power Bondwire 0.3x0.2mm.p
p616
aV Aluminium Power Bondwire 0.3x0.2mm.p
p617
aV Aluminium Power Bondwire 0.3x0.2mm.p
p618
aV Aluminium Power Bondwire 0.3x0.2mm.p
p619
aV Aluminium Signal Bondwire 0.1mm.p
p620
aV Aluminium Signal Bondwire 0.1mm.p
p621
aV Aluminium Signal Bondwire 0.1mm.p
p622
aV Aluminium Signal Bondwire 0.1mm.p
p623
a(ipowercad.design.library_structures
BondWire
p624
(dp625
S'a'
p626
F0.4
sS'wire_type'
p627
I1
sg16
S'Aluminium Power Bondwire 0.3x0.2mm'
p628
sg57
I2
sg553
F0.25
sg13
(ipowercad.design.library_structures
MaterialProperties
p629
(dp630
g16
S'Aluminium'
p631
sg18
Nsg19
F3e-08
sg20
Nsg21
Nsg22
Nsg23
Nsbsg50
(F0.3
F0.2
tp632
sba(ipowercad.design.library_structures
BondWire
p633
(dp634
g626
F0.4
sg627
I1
sg16
S'Aluminium Power Bondwire 0.3x0.2mm'
p635
sg57
I2
sg553
F0.25
sg13
(ipowercad.design.library_structures
MaterialProperties
p636
(dp637
g16
S'Aluminium'
p638
sg18
Nsg19
F3e-08
sg20
Nsg21
Nsg22
Nsg23
Nsbsg50
(F0.3
F0.2
tp639
sba(ipowercad.design.library_structures
BondWire
p640
(dp641
g626
F0.4
sg627
I1
sg16
S'Aluminium Power Bondwire 0.3x0.2mm'
p642
sg57
I2
sg553
F0.25
sg13
(ipowercad.design.library_structures
MaterialProperties
p643
(dp644
g16
S'Aluminium'
p645
sg18
Nsg19
F3e-08
sg20
Nsg21
Nsg22
Nsg23
Nsbsg50
(F0.3
F0.2
tp646
sba(ipowercad.design.library_structures
BondWire
p647
(dp648
g626
F0.4
sg627
I1
sg16
S'Aluminium Power Bondwire 0.3x0.2mm'
p649
sg57
I2
sg553
F0.25
sg13
(ipowercad.design.library_structures
MaterialProperties
p650
(dp651
g16
S'Aluminium'
p652
sg18
Nsg19
F3e-08
sg20
Nsg21
Nsg22
Nsg23
Nsbsg50
(F0.3
F0.2
tp653
sba(ipowercad.design.library_structures
BondWire
p654
(dp655
g626
F0.2
sg627
I2
sg16
S'Aluminium Signal Bondwire 0.1mm'
p656
sg57
I1
sg553
F0.125
sg13
(ipowercad.design.library_structures
MaterialProperties
p657
(dp658
g16
S'Aluminium'
p659
sg18
Nsg19
F3e-08
sg20
Nsg21
Nsg22
Nsg23
Nsbsg50
F0.1
sba(ipowercad.design.library_structures
BondWire
p660
(dp661
g626
F0.2
sg627
I2
sg16
S'Aluminium Signal Bondwire 0.1mm'
p662
sg57
I1
sg553
F0.125
sg13
(ipowercad.design.library_structures
MaterialProperties
p663
(dp664
g16
S'Aluminium'
p665
sg18
Nsg19
F3e-08
sg20
Nsg21
Nsg22
Nsg23
Nsbsg50
F0.1
sba(ipowercad.design.library_structures
BondWire
p666
(dp667
g626
F0.2
sg627
I2
sg16
S'Aluminium Signal Bondwire 0.1mm'
p668
sg57
I1
sg553
F0.125
sg13
(ipowercad.design.library_structures
MaterialProperties
p669
(dp670
g16
S'Aluminium'
p671
sg18
Nsg19
F3e-08
sg20
Nsg21
Nsg22
Nsg23
Nsbsg50
F0.1
sba(ipowercad.design.library_structures
BondWire
p672
(dp673
g626
F0.2
sg627
I2
sg16
S'Aluminium Signal Bondwire 0.1mm'
p674
sg57
I1
sg553
F0.125
sg13
(ipowercad.design.library_structures
MaterialProperties
p675
(dp676
g16
S'Aluminium'
p677
sg18
Nsg19
F3e-08
sg20
Nsg21
Nsg22
Nsg23
Nsbsg50
F0.1
sbatp678
ba(lp679
g546
(g547
(dp680
g549
g550
(g551
(I0
tp681
g553
tp682
Rp683
(I1
(I9
tp684
g560
I00
(lp685
g564
ag565
ag566
ag567
aI0
aI1
aI2
aI3
aI4
atp686
bsg16
Nstp687
Rp688
a(dp689
S'0.14.1'
p690
(dp691
S'axes'
p692
g545
sS'blocks'
p693
(lp694
(dp695
S'mgr_locs'
p696
c__builtin__
slice
p697
(I0
I9
L1L
tp698
Rp699
sS'values'
p700
g589
sasstp701
bsbsb.