(ipowercad.corner_stitch.optimization_setup
OptSetup
p0
(dp1
S'electrical_func'
p2
I0
sS'thermal_dev_tbl'
p3
(lp4
ccopy_reg
_reconstructor
p5
(cpowercad.sym_layout.symbolic_layout
SymPoint
p6
c__builtin__
object
p7
Ntp8
Rp9
(dp10
S'center_position'
p11
(F12.96214463502139
F24.059393381258364
tp12
sS'sym_bondwires'
p13
(lp14
g5
(cpowercad.sym_layout.symbolic_layout
SymLine
p15
g7
Ntp16
Rp17
(dp18
S'child_pts'
p19
NsS'trace'
p20
g5
(g15
g7
Ntp21
Rp22
(dp23
g19
(lp24
sg20
NsS'num_wires'
p25
NsS'dv_index'
p26
I0
sS'trace_connections'
p27
(lp28
g5
(g15
g7
Ntp29
Rp30
(dp31
g19
(lp32
g5
(g6
g7
Ntp33
Rp34
(dp35
g11
(lp36
F19.0
aF10.539696690629182
asg13
(lp37
sS'raw_element'
p38
g5
(cpowercad.sym_layout.svg
LayoutPoint
p39
g7
Ntp40
Rp41
(dp42
S'path_id'
p43
S'L1'
p44
sS'name'
p45
NsS'pt'
p46
(F2.0
F0.0
tp47
sbsg45
g44
sS'constraint'
p48
Nsg26
NsS'parent_line'
p49
g30
sS'element'
p50
g5
(g39
g7
Ntp51
Rp52
(dp53
g43
g44
sg45
Nsg46
(I2
I0
tp54
sbsS'states'
p55
(lp56
sS'tech'
p57
(ipowercad.design.library_structures
Lead
p58
(dp59
S'lead_type'
p60
I2
sS'shape'
p61
I2
sS'dimensions'
p62
(F1.2
I10
tp63
sg45
S'Cylindrical Aluminium Lead 1.2mm Diam.'
p64
sS'properties'
p65
(ipowercad.design.library_structures
MaterialProperties
p66
(dp67
S'rel_permit'
p68
Nsg45
S'Aluminium'
p69
sS'density'
p70
NsS'rel_permeab'
p71
NsS'electrical_res'
p72
F3e-08
sS'thermal_cond'
p73
NsS'spec_heat_cap'
p74
NsbsbsS'footprint_rect'
p75
(ipowercad.general.data_struct.util
Rect
p76
(dp77
S'width'
p78
F1.2000000000000028
sS'right'
p79
F19.6
sS'bottom'
p80
F9.939696690629182
sS'top'
p81
F11.139696690629181
sS'left'
p82
F18.4
sS'height'
p83
F1.1999999999999993
sbsS'lumped_node'
p84
I12
sS'orientation'
p85
Nsbasg20
Nsg25
Nsg26
I0
sg27
(lp86
g5
(g15
g7
Ntp87
Rp88
(dp89
g19
(lp90
sg20
Nsg25
Nsg26
I4
sg27
(lp91
g30
ag30
asS'intersecting_trace'
p92
NsS'device'
p93
NsS'land_pt'
p94
NsS'dev_pt'
p95
NsS'long_contacts'
p96
(dp97
sS'super_connections'
p98
(lp99
sS'land_pt2'
p100
NsS'wire'
p101
I00
sg38
g5
(cpowercad.sym_layout.svg
LayoutLine
p102
g7
Ntp103
Rp104
(dp105
g43
S'T2'
p106
sS'vertical'
p107
I01
sS'pt2'
p108
(F4.0
F5.0
tp109
sS'pt1'
p110
(F4.0
F0.0
tp111
sbsg45
g106
sS'conn_bonds'
p112
(lp113
g5
(g15
g7
Ntp114
Rp115
(dp116
g19
Nsg20
g88
sg25
I2
sg26
Nsg27
(lp117
sg92
Nsg93
g5
(g6
g7
Ntp118
Rp119
(dp120
g11
(F29.50204705079537
F24.059393381258364
tp121
sg13
(lp122
g115
ag5
(g15
g7
Ntp123
Rp124
(dp125
g19
Nsg20
g5
(g15
g7
Ntp126
Rp127
(dp128
g19
(lp129
g5
(g6
g7
Ntp130
Rp131
(dp132
g11
(lp133
F21.600589984016132
aF24.292768172208433
asg13
(lp134
sg38
g5
(g39
g7
Ntp135
Rp136
(dp137
g43
S'L2'
p138
sg45
Nsg46
(F2.0
F2.0
tp139
sbsg45
g138
sg48
Nsg26
Nsg49
g127
sg50
g5
(g39
g7
Ntp140
Rp141
(dp142
g43
g138
sg45
Nsg46
(I2
I2
tp143
sbsg55
(lp144
sg57
g58
sg75
(ipowercad.general.data_struct.util
Rect
p145
(dp146
g78
F1.2000000000000028
sg79
F22.200589984016133
sg80
F23.69276817220843
sg81
F24.892768172208434
sg82
F21.00058998401613
sg83
F1.2000000000000028
sbsg84
I13
sg85
Nsbasg20
Nsg25
Nsg26
I2
sg27
(lp147
sg92
Nsg93
Nsg94
Nsg95
Nsg96
(dp148
sg98
(lp149
sg100
Nsg101
I00
sg38
g5
(g102
g7
Ntp150
Rp151
(dp152
g43
S'T5'
p153
sg107
I01
sg108
(F2.0
F4.0
tp154
sg110
(F2.0
F1.0
tp155
sbsg45
g153
sg112
(lp156
g5
(g15
g7
Ntp157
Rp158
(dp159
g19
Nsg20
g127
sg25
I2
sg26
Nsg27
(lp160
sg92
Nsg93
g9
sg94
(F17.595505438820947
F24.059393381258364
tp161
sg95
I2
sg96
(dp162
sg98
(lp163
sg100
Nsg101
I01
sg38
Nsg112
(lp164
sS'end_pt_conn'
p165
NsS'start_pt_conn'
p166
Nsg48
NsS'end_pts'
p167
(lp168
(F17.595505438820947
F22.739393381258363
tp169
asg50
Nsg57
(ipowercad.design.library_structures
BondWire
p170
(dp171
S'a'
p172
F0.2
sg61
I1
sS'wire_type'
p173
I2
sg45
S'Aluminium Signal Bondwire 0.1mm'
p174
sS'b'
p175
F0.125
sg65
(ipowercad.design.library_structures
MaterialProperties
p176
(dp177
g68
Nsg45
S'Aluminium'
p178
sg70
Nsg71
Nsg72
F3e-08
sg73
Nsg74
Nsbsg62
F0.1
sbsS'has_rect'
p179
I01
sS'start_pts'
p180
(lp181
(F13.512144635021391
F22.739393381258363
tp182
asS'trace_rect'
p183
NsS'trace_line'
p184
NsS'trace2'
p185
NsS'wire_sep'
p186
F0.1
sS'normal_connections'
p187
(lp188
sbag124
ag5
(g15
g7
Ntp189
Rp190
(dp191
g25
I2
sg27
(lp192
sg95
I2
sg100
Nsg101
I01
sg38
Nsg112
(lp193
sg166
Nsg167
Nsg179
I01
sg185
Nsg186
F0.1
sg19
Nsg20
g127
sg183
Nsg26
Nsg92
Nsg93
g9
sg94
Nsg96
(dp194
sg98
(lp195
sg48
Nsg165
Nsg180
Nsg50
Nsg57
(ipowercad.design.library_structures
BondWire
p196
(dp197
g172
F0.2
sg173
I2
sg45
g174
sg61
I1
sg175
F0.125
sg65
(ipowercad.design.library_structures
MaterialProperties
p198
(dp199
g45
g178
sg70
Nsg72
F3e-08
sg71
Nsg68
Nsg73
Nsg74
Nsbsg62
F0.1
sbsg187
(lp200
sg184
Nsbag5
(g15
g7
Ntp201
Rp202
(dp203
g25
I2
sg27
(lp204
sg95
I2
sg100
Nsg101
I01
sg38
Nsg112
(lp205
sg166
Nsg167
Nsg179
I01
sg185
Nsg186
F0.1
sg19
Nsg20
g127
sg183
Nsg26
Nsg92
Nsg93
g119
sg94
Nsg96
(dp206
sg98
(lp207
sg48
Nsg165
Nsg180
Nsg50
Nsg57
(ipowercad.design.library_structures
BondWire
p208
(dp209
g172
F0.2
sg173
I2
sg45
S'Aluminium Signal Bondwire 0.1mm'
p210
sg61
I1
sg175
F0.125
sg65
(ipowercad.design.library_structures
MaterialProperties
p211
(dp212
g45
S'Aluminium'
p213
sg70
Nsg72
F3e-08
sg71
Nsg68
Nsg73
Nsg74
Nsbsg62
F0.1
sbsg187
(lp214
sg184
Nsbasg165
Nsg166
Nsg48
Nsg167
Nsg50
g5
(g102
g7
Ntp215
Rp216
(dp217
g43
g153
sg107
I01
sg108
(I2
I4
tp218
sg110
(I2
I1
tp219
sbsg57
Nsg179
I01
sg180
Nsg183
(ipowercad.general.data_struct.util
Rect
p220
(dp221
g79
F0.0
sg80
F0.0
sg81
F0.0
sg83
F0.0
sg78
F0.0
sg82
F0.0
sbsg184
g5
(g102
g7
Ntp222
Rp223
(dp224
g43
g153
sg110
(I2
I1
tp225
sg108
(I2
I2
tp226
sg107
I01
sbsg185
Nsg186
Nsg187
(lp227
sbsg25
I2
sg26
Nsg27
(lp228
sg92
Nsg93
g119
sg94
(F25.605674529211313
F24.059393381258364
tp229
sg95
I2
sg96
(dp230
sg98
(lp231
sg100
Nsg101
I01
sg38
Nsg112
(lp232
sg165
Nsg166
Nsg48
Nsg167
(lp233
(F25.605674529211313
F25.379393381258364
tp234
asg50
Nsg57
(ipowercad.design.library_structures
BondWire
p235
(dp236
g172
F0.2
sg61
I1
sg173
I2
sg45
g210
sg175
F0.125
sg65
(ipowercad.design.library_structures
MaterialProperties
p237
(dp238
g68
Nsg45
g213
sg70
Nsg71
Nsg72
F3e-08
sg73
Nsg74
Nsbsg62
F0.1
sbsg179
I01
sg180
(lp239
(F28.952047050795368
F25.379393381258364
tp240
asg183
Nsg184
Nsg185
Nsg186
F0.1
sg187
(lp241
sbag5
(g15
g7
Ntp242
Rp243
(dp244
g25
I2
sg27
(lp245
sg95
I1
sg100
Nsg101
I01
sg38
Nsg112
(lp246
sg166
Nsg167
Nsg179
I01
sg185
Nsg186
F0.1
sg19
Nsg20
g88
sg183
Nsg26
Nsg92
Nsg93
g119
sg94
Nsg96
(dp247
sg98
(lp248
sg48
Nsg165
Nsg180
Nsg50
Nsg57
(ipowercad.design.library_structures
BondWire
p249
(dp250
g172
F0.4
sg173
I1
sg45
S'Aluminium Power Bondwire 0.3x0.2mm'
p251
sg61
I2
sg175
F0.25
sg65
(ipowercad.design.library_structures
MaterialProperties
p252
(dp253
g45
S'Aluminium'
p254
sg70
Nsg72
F3e-08
sg71
Nsg68
Nsg73
Nsg74
Nsbsg62
(F0.3
F0.2
tp255
sbsg187
(lp256
sg184
Nsbag202
asg38
g5
(g39
g7
Ntp257
Rp258
(dp259
g43
S'M2'
p260
sg45
Nsg46
(F3.0
F3.0
tp261
sbsg45
g260
sg48
Nsg26
I0
sg49
g5
(g15
g7
Ntp262
Rp263
(dp264
g19
(lp265
g119
asg20
Nsg25
Nsg26
I3
sg27
(lp266
g5
(g15
g7
Ntp267
Rp268
(dp269
g19
(lp270
g5
(g6
g7
Ntp271
Rp272
(dp273
g11
(lp274
F20.863601701800626
aF32.753071481579255
asg13
(lp275
sg38
g5
(g39
g7
Ntp276
Rp277
(dp278
g43
S'L3'
p279
sg45
Nsg46
(F2.0
F6.0
tp280
sbsg45
g279
sg48
Nsg26
Nsg49
g268
sg50
g5
(g39
g7
Ntp281
Rp282
(dp283
g43
g279
sg45
Nsg46
(I2
I6
tp284
sbsg55
(lp285
sg57
g58
sg75
(ipowercad.general.data_struct.util
Rect
p286
(dp287
g78
F1.2000000000000028
sg79
F21.463601701800627
sg80
F32.15307148157925
sg81
F33.353071481579256
sg82
F20.263601701800624
sg83
F1.2000000000000028
sbsg84
I11
sg85
Nsbasg20
Nsg25
Nsg26
I4
sg27
(lp288
g263
ag5
(g15
g7
Ntp289
Rp290
(dp291
g19
(lp292
g9
asg20
Nsg25
Nsg26
I1
sg27
(lp293
g268
ag268
asg92
Nsg93
Nsg94
Nsg95
Nsg96
(dp294
sg98
(lp295
sg100
Nsg101
I00
sg38
g5
(g102
g7
Ntp296
Rp297
(dp298
g43
S'T6'
p299
sg107
I01
sg108
(F1.0
F6.0
tp300
sg110
(F1.0
F1.0
tp301
sbsg45
g299
sg112
(lp302
sg165
Nsg166
Nsg48
Nsg167
Nsg50
g5
(g102
g7
Ntp303
Rp304
(dp305
g43
g299
sg107
I01
sg108
(I1
I6
tp306
sg110
(I1
I1
tp307
sbsg57
Nsg179
I01
sg180
Nsg183
(ipowercad.general.data_struct.util
Rect
p308
(dp309
g79
F0.0
sg80
F0.0
sg81
F0.0
sg83
F0.0
sg78
F0.0
sg82
F0.0
sbsg184
g5
(g102
g7
Ntp310
Rp311
(dp312
g43
g299
sg110
(I1
I1
tp313
sg108
(I1
I4
tp314
sg107
I01
sbsg185
Nsg186
Nsg187
(lp315
sbag263
ag290
asg92
Nsg93
Nsg94
Nsg95
Nsg96
(dp316
sg98
(lp317
sg100
Nsg101
I00
sg38
g5
(g102
g7
Ntp318
Rp319
(dp320
g43
S'T1'
p321
sg107
I00
sg108
(F3.0
F6.0
tp322
sg110
(F1.0
F6.0
tp323
sbsg45
g321
sg112
(lp324
sg165
Nsg166
Nsg48
Nsg167
Nsg50
g5
(g102
g7
Ntp325
Rp326
(dp327
g43
g321
sg107
I00
sg108
(I3
I6
tp328
sg110
(I1
I6
tp329
sbsg57
Nsg179
I01
sg180
Nsg183
(ipowercad.general.data_struct.util
Rect
p330
(dp331
g79
F0.0
sg80
F0.0
sg81
F0.0
sg83
F0.0
sg78
F0.0
sg82
F0.0
sbsg184
g5
(g102
g7
Ntp332
Rp333
(dp334
g43
g321
sg110
(I1
I4
tp335
sg108
(I3
I4
tp336
sg107
I00
sbsg185
Nsg186
Nsg187
(lp337
sbag268
asg92
Nsg93
Nsg94
Nsg95
Nsg96
(dp338
sg98
(lp339
sg100
Nsg101
I00
sg38
g5
(g102
g7
Ntp340
Rp341
(dp342
g43
S'T4'
p343
sg107
I01
sg108
(F3.0
F6.0
tp344
sg110
(F3.0
F1.0
tp345
sbsg45
g343
sg112
(lp346
sg165
Nsg166
Nsg48
Nsg167
Nsg50
g5
(g102
g7
Ntp347
Rp348
(dp349
g43
g343
sg107
I01
sg108
(I3
I6
tp350
sg110
(I3
I1
tp351
sbsg57
Nsg179
I01
sg180
Nsg183
(ipowercad.general.data_struct.util
Rect
p352
(dp353
g79
F0.0
sg80
F0.0
sg81
F0.0
sg83
F0.0
sg78
F0.0
sg82
F0.0
sbsg184
g5
(g102
g7
Ntp354
Rp355
(dp356
g43
g343
sg110
(I3
I1
tp357
sg108
(I3
I4
tp358
sg107
I01
sbsg185
Nsg186
Nsg187
(lp359
sbsg50
g5
(g39
g7
Ntp360
Rp361
(dp362
g43
g260
sg45
Nsg46
(I3
I3
tp363
sbsg55
(lp364
cnumpy.core.multiarray
scalar
p365
(cnumpy
dtype
p366
(S'f8'
p367
I0
I1
tp368
Rp369
(I3
S'<'
p370
NNNI-1
I-1
I0
tp371
bS'\x00\x00\x00\x00\x00\x00\xf0?'
p372
tp373
Rp374
ag365
(g369
S'\x00\x00\x00\x00\x00\x00\x00\x00'
p375
tp376
Rp377
ag365
(g369
S'\x00\x00\x00\x00\x00\x00\x00\x00'
p378
tp379
Rp380
asg57
(ipowercad.design.project_structures
DeviceInstance
p381
(dp382
S'attach_thickness'
p383
F0.01
sS'heat_flow'
p384
F3.0
sS'attach_tech'
p385
(ipowercad.design.library_structures
DieAttach
p386
(dp387
g65
(ipowercad.design.library_structures
MaterialProperties
p388
(dp389
g68
Nsg45
S'Pb-Sn Solder Alloy'
p390
sg70
F11020.0
sg71
Nsg72
Nsg73
F35.8
sg74
F130.0
sbsbsS'device_tech'
p391
(ipowercad.design.library_structures
Device
p392
(dp393
S'power_side'
p394
I1
sg45
S'CPM2-1200-0080B-MOS'
p395
sS'device_type'
p396
I1
sS'wire_landings'
p397
(lp398
(ipowercad.design.library_structures
BondwireLanding
p399
(dp400
S'position'
p401
(F1.0
F3.0
tp402
sS'bond_type'
p403
I2
sba(ipowercad.design.library_structures
BondwireLanding
p404
(dp405
g401
(F2.0
F1.5
tp406
sg403
I1
sba(ipowercad.design.library_structures
BondwireLanding
p407
(dp408
g401
(F2.0
F0.5
tp409
sg403
I1
sbasS'device_model'
p410
Nsg65
(ipowercad.design.library_structures
MaterialProperties
p411
(dp412
S'young_mdl'
p413
NsS'poi_rat'
p414
Nsg45
Nsg70
F3100.0
sS'expansion_coeff'
p415
Nsg72
Nsg71
Nsg68
Nsg73
F370.0
sS'id'
p416
Nsg74
F750.0
sbsg62
(F3.1
F3.36
F0.22
tp417
sbsS'thermal_features'
p418
(ipowercad.thermal.fast_thermal
DieThermalFeatures
p419
(dp420
S'eff_power'
p421
F2.8803567721092507
sS'die_res'
p422
F0.08390209327315112
sS'die_power'
p423
F3.0
sS'iso_top_temps'
p424
(lp425
(ipowercad.thermal.fast_thermal
ContourRect
p426
(dp427
g78
F3.1
sS'avg_val'
p428
F11.135927995011654
sg83
F3.203203203203203
sba(ipowercad.thermal.fast_thermal
ContourRect
p429
(dp430
g78
F7.199999999999999
sg428
F10.424856151001638
sg83
F7.4474474474474475
sba(ipowercad.thermal.fast_thermal
ContourRect
p431
(dp432
g78
F11.299999999999999
sg428
F10.104329798572278
sg83
F11.33133133133133
sba(ipowercad.thermal.fast_thermal
ContourRect
p433
(dp434
g78
F15.399999999999999
sg428
F10.000832993075269
sg83
F15.455455455455455
sba(ipowercad.thermal.fast_thermal
ContourRect
p435
(dp436
g78
F19.5
sg428
F9.948322259000724
sg83
F19.53953953953954
sba(ipowercad.thermal.fast_thermal
ContourRect
p437
(dp438
g78
F23.6
sg428
F9.915540716433187
sg83
F23.663663663663662
sba(ipowercad.thermal.fast_thermal
ContourRect
p439
(dp440
g78
F27.7
sg428
F9.89289302278341
sg83
F27.78778778778779
sba(ipowercad.thermal.fast_thermal
ContourRect
p441
(dp442
g78
F31.799999999999997
sg428
F9.876780427319675
sg83
F31.95195195195195
sba(ipowercad.thermal.fast_thermal
ContourRect
p443
(dp444
g78
F35.9
sg428
F9.865558924783212
sg83
F36.23623623623624
sba(ipowercad.thermal.fast_thermal
ContourRect
p445
(dp446
g78
F40.0
sg428
F9.85868328597557
sg83
F40.0
sbasS'iso_top_avg_temp'
p447
F9.92140265787432
sS'self_temp'
p448
F11.102745320180356
sS'iso_top_fluxes'
p449
(lp450
(ipowercad.thermal.fast_thermal
ContourRect
p451
(dp452
g78
F3.1
sg428
F0.1324559693432667
sg83
F3.4034034034034035
sba(ipowercad.thermal.fast_thermal
ContourRect
p453
(dp454
g78
F4.827827827827828
sg428
F0.05639492358982629
sg83
F4.804804804804805
sba(ipowercad.thermal.fast_thermal
ContourRect
p455
(dp456
g78
F6.555655655655656
sg428
F0.010874169659527989
sg83
F8.72872872872873
sba(ipowercad.thermal.fast_thermal
ContourRect
p457
(dp458
g78
F8.283483483483483
sg428
F0.005381174749530869
sg83
F9.28928928928929
sba(ipowercad.thermal.fast_thermal
ContourRect
p459
(dp460
g78
F10.011311311311312
sg428
F0.0033777281465741933
sg83
F10.41041041041041
sba(ipowercad.thermal.fast_thermal
ContourRect
p461
(dp462
g78
F11.739139139139139
sg428
F0.0015598835927015276
sg83
F11.651651651651651
sba(ipowercad.thermal.fast_thermal
ContourRect
p463
(dp464
g78
F13.466966966966966
sg428
F0.0008803587277833781
sg83
F13.333333333333334
sba(ipowercad.thermal.fast_thermal
ContourRect
p465
(dp466
g78
F15.194794794794795
sg428
F0.0005446953774129279
sg83
F15.415415415415415
sba(ipowercad.thermal.fast_thermal
ContourRect
p467
(dp468
g78
F16.922622622622622
sg428
F0.0003540113466964481
sg83
F16.896896896896898
sba(ipowercad.thermal.fast_thermal
ContourRect
p469
(dp470
g78
F18.65045045045045
sg428
F0.00014926956415240117
sg83
F38.63863863863864
sbasbsbsg75
(ipowercad.general.data_struct.util
Rect
p471
(dp472
g78
F3.1000000000000014
sg79
F31.05204705079537
sg80
F22.379393381258364
sg81
F25.739393381258363
sg82
F27.952047050795368
sg83
F3.3599999999999994
sbsg84
I1
sg85
I1
sbsg94
(F34.19841957237942
F24.059393381258364
tp473
sg95
I1
sg96
(dp474
sg98
(lp475
sg100
Nsg101
I01
sg38
Nsg112
(lp476
sg165
Nsg166
Nsg48
Nsg167
(lp477
(F34.19841957237942
F23.879393381258364
tp478
a(F34.19841957237942
F22.879393381258364
tp479
asg50
Nsg57
(ipowercad.design.library_structures
BondWire
p480
(dp481
g172
F0.4
sg61
I2
sg173
I1
sg45
g251
sg175
F0.25
sg65
(ipowercad.design.library_structures
MaterialProperties
p482
(dp483
g68
Nsg45
g254
sg70
Nsg71
Nsg72
F3e-08
sg73
Nsg74
Nsbsg62
g255
sbsg179
I01
sg180
(lp484
(F29.952047050795368
F23.879393381258364
tp485
a(F29.952047050795368
F22.879393381258364
tp486
asg183
Nsg184
Nsg185
Nsg186
F0.1
sg187
(lp487
sbag243
asg165
Nsg166
Nsg48
Nsg167
Nsg50
g5
(g102
g7
Ntp488
Rp489
(dp490
g43
g106
sg107
I01
sg108
(I4
I5
tp491
sg110
(I4
I0
tp492
sbsg57
Nsg179
I01
sg180
Nsg183
(ipowercad.general.data_struct.util
Rect
p493
(dp494
g79
F0.0
sg80
F0.0
sg81
F0.0
sg83
F0.0
sg78
F0.0
sg82
F0.0
sbsg184
g5
(g102
g7
Ntp495
Rp496
(dp497
g43
g106
sg110
(I4
I0
tp498
sg108
(I4
I3
tp499
sg107
I01
sbsg185
Nsg186
Nsg187
(lp500
sbag22
ag88
ag22
asg92
Nsg93
Nsg94
Nsg95
Nsg96
(dp501
sg98
(lp502
sg100
Nsg101
I00
sg38
g5
(g102
g7
Ntp503
Rp504
(dp505
g43
S'T3'
p506
sg107
I00
sg108
(F4.0
F0.0
tp507
sg110
(F0.0
F0.0
tp508
sbsg45
g506
sg112
(lp509
sg165
Nsg166
Nsg48
Nsg167
Nsg50
g5
(g102
g7
Ntp510
Rp511
(dp512
g43
g506
sg107
I00
sg108
(I4
I0
tp513
sg110
(I0
I0
tp514
sbsg57
Nsg179
I01
sg180
Nsg183
(ipowercad.general.data_struct.util
Rect
p515
(dp516
g79
F0.0
sg80
F0.0
sg81
F0.0
sg83
F0.0
sg78
F0.0
sg82
F0.0
sbsg184
g5
(g102
g7
Ntp517
Rp518
(dp519
g43
g506
sg110
(I0
I0
tp520
sg108
(I4
I0
tp521
sg107
I00
sbsg185
Nsg186
Nsg187
(lp522
sbag30
asg92
Nsg93
Nsg94
Nsg95
Nsg96
(dp523
sg98
(lp524
sg100
Nsg101
I00
sg38
g5
(g102
g7
Ntp525
Rp526
(dp527
g43
S'T7'
p528
sg107
I01
sg108
(F0.0
F5.0
tp529
sg110
(F0.0
F0.0
tp530
sbsg45
g528
sg112
(lp531
g17
ag5
(g15
g7
Ntp532
Rp533
(dp534
g25
I2
sg27
(lp535
sg95
I1
sg100
Nsg101
I01
sg38
Nsg112
(lp536
sg166
Nsg167
Nsg179
I01
sg185
Nsg186
F0.1
sg19
Nsg20
g22
sg183
Nsg26
Nsg92
Nsg93
g9
sg94
Nsg96
(dp537
sg98
(lp538
sg48
Nsg165
Nsg180
Nsg50
Nsg57
(ipowercad.design.library_structures
BondWire
p539
(dp540
g172
F0.4
sg173
I1
sg45
S'Aluminium Power Bondwire 0.3x0.2mm'
p541
sg61
I2
sg175
F0.25
sg65
(ipowercad.design.library_structures
MaterialProperties
p542
(dp543
g45
S'Aluminium'
p544
sg70
Nsg72
F3e-08
sg71
Nsg68
Nsg73
Nsg74
Nsbsg62
(F0.3
F0.2
tp545
sbsg187
(lp546
sg184
Nsbasg165
Nsg166
Nsg48
Nsg167
Nsg50
g5
(g102
g7
Ntp547
Rp548
(dp549
g43
g528
sg107
I01
sg108
(I0
I5
tp550
sg110
(I0
I0
tp551
sbsg57
Nsg179
I01
sg180
Nsg183
(ipowercad.general.data_struct.util
Rect
p552
(dp553
g79
F0.0
sg80
F0.0
sg81
F0.0
sg83
F0.0
sg78
F0.0
sg82
F0.0
sbsg184
g5
(g102
g7
Ntp554
Rp555
(dp556
g43
g528
sg110
(I0
I0
tp557
sg108
(I0
I3
tp558
sg107
I01
sbsg185
Nsg186
Nsg187
(lp559
sbsg25
I2
sg26
Nsg27
(lp560
sg92
Nsg93
g9
sg94
(F7.528783831221833
F24.059393381258364
tp561
sg95
I1
sg96
(dp562
sg98
(lp563
sg100
Nsg101
I01
sg38
Nsg112
(lp564
sg165
Nsg166
Nsg48
Nsg167
(lp565
(F7.528783831221833
F24.239393381258363
tp566
a(F7.528783831221833
F25.239393381258363
tp567
asg50
Nsg57
(ipowercad.design.library_structures
BondWire
p568
(dp569
g172
F0.4
sg61
I2
sg173
I1
sg45
g541
sg175
F0.25
sg65
(ipowercad.design.library_structures
MaterialProperties
p570
(dp571
g68
Nsg45
g544
sg70
Nsg71
Nsg72
F3e-08
sg73
Nsg74
Nsbsg62
g545
sbsg179
I01
sg180
(lp572
(F12.512144635021391
F24.239393381258363
tp573
a(F12.512144635021391
F25.239393381258363
tp574
asg183
Nsg184
Nsg185
Nsg186
F0.1
sg187
(lp575
sbag158
ag533
ag190
asg38
g5
(g39
g7
Ntp576
Rp577
(dp578
g43
S'M1'
p579
sg45
Nsg46
(F1.0
F3.0
tp580
sbsg45
g579
sg48
Nsg26
I1
sg49
g290
sg50
g5
(g39
g7
Ntp581
Rp582
(dp583
g43
g579
sg45
Nsg46
(I1
I3
tp584
sbsg55
(lp585
g365
(g369
S'\x00\x00\x00\x00\x00\x00\xf0?'
p586
tp587
Rp588
ag365
(g369
S'\x00\x00\x00\x00\x00\x00\x00\x00'
p589
tp590
Rp591
ag365
(g369
S'\x00\x00\x00\x00\x00\x00\x00\x00'
p592
tp593
Rp594
asg57
g381
sg75
(ipowercad.general.data_struct.util
Rect
p595
(dp596
g78
F3.1000000000000014
sg79
F14.512144635021391
sg80
F22.379393381258364
sg81
F25.739393381258363
sg82
F11.41214463502139
sg83
F3.3599999999999994
sbsg84
I6
sg85
I2
sbag119
asS'perf_table'
p597
(dp598
S'1'
p599
(dp600
S'type'
p601
S'Electrical'
p602
sS'Eval'
p603
S'Inductance'
p604
sS'measure'
p605
g5
(cpowercad.sym_layout.symbolic_layout
ElectricalMeasure
p606
g7
Ntp607
Rp608
(dp609
S'sink_term'
p610
Nsg45
g599
sS'mdl'
p611
S'MS'
p612
sS'src_term'
p613
NsS'lines'
p614
NsS'dev_state'
p615
g5
(cpandas.core.frame
DataFrame
p616
g7
Ntp617
Rp618
(dp619
S'_metadata'
p620
(lp621
sS'_typ'
p622
S'dataframe'
p623
sS'_data'
p624
g5
(cpandas.core.internals
BlockManager
p625
g7
Ntp626
Rp627
((lp628
cpandas.core.indexes.base
_new_Index
p629
(cpandas.core.indexes.numeric
Int64Index
p630
(dp631
S'data'
p632
cnumpy.core.multiarray
_reconstruct
p633
(cnumpy
ndarray
p634
(I0
tp635
g175
tp636
Rp637
(I1
(I4
tp638
g366
(S'i8'
p639
I0
I1
tp640
Rp641
(I3
S'<'
p642
NNNI-1
I-1
I0
tp643
bI00
S'\x00\x00\x00\x00\x00\x00\x00\x00\x01\x00\x00\x00\x00\x00\x00\x00\x02\x00\x00\x00\x00\x00\x00\x00\x03\x00\x00\x00\x00\x00\x00\x00'
p644
tp645
bsg45
Nstp646
Rp647
ag629
(g630
(dp648
g632
g633
(g634
(I0
tp649
g175
tp650
Rp651
(I1
(I2
tp652
g641
I00
S'\x00\x00\x00\x00\x00\x00\x00\x00\x01\x00\x00\x00\x00\x00\x00\x00'
p653
tp654
bsg45
Nstp655
Rp656
a(lp657
g633
(g634
(I0
tp658
g175
tp659
Rp660
(I1
(I3
I2
tp661
g369
I01
S'\x00\x00\x00\x00\x00\x00\xf0?\x00\x00\x00\x00\x00\x00\x00\x00\x00\x00\x00\x00\x00\x00\x00\x00\x00\x00\x00\x00\x00\x00\xf0?\x00\x00\x00\x00\x00\x00\x00\x00\x00\x00\x00\x00\x00\x00\x00\x00'
p662
tp663
bag633
(g634
(I0
tp664
g175
tp665
Rp666
(I1
(I1
I2
tp667
g366
(S'O4'
p668
I0
I1
tp669
Rp670
(I3
S'|'
p671
NNNI-1
I-1
I63
tp672
bI00
(lp673
VM1
p674
aVM2
p675
atp676
ba(lp677
g629
(g630
(dp678
g632
g633
(g634
(I0
tp679
g175
tp680
Rp681
(I1
(I3
tp682
g641
I00
S'\x01\x00\x00\x00\x00\x00\x00\x00\x02\x00\x00\x00\x00\x00\x00\x00\x03\x00\x00\x00\x00\x00\x00\x00'
p683
tp684
bsg45
Nstp685
Rp686
ag629
(g630
(dp687
g632
g633
(g634
(I0
tp688
g175
tp689
Rp690
(I1
(I1
tp691
g641
I00
S'\x00\x00\x00\x00\x00\x00\x00\x00'
p692
tp693
bsg45
Nstp694
Rp695
a(dp696
S'0.14.1'
p697
(dp698
S'axes'
p699
g628
sS'blocks'
p700
(lp701
(dp702
S'mgr_locs'
p703
c__builtin__
slice
p704
(I1
I4
L1L
tp705
Rp706
sS'values'
p707
g660
sa(dp708
g703
g704
(L0L
L1L
I1
tp709
Rp710
sg707
g666
sasstp711
bsbsg605
I2
sS'units'
p712
S'nH'
p713
sg108
g272
sg110
g34
sbssS' 2'
p714
(dp715
g601
S'Thermal'
p716
sg603
S'Maximum'
p717
sg605
g5
(cpowercad.sym_layout.symbolic_layout
ThermalMeasure
p718
g7
Ntp719
Rp720
(dp721
g712
S'K'
p722
sS'stat_fn'
p723
I1
sg45
g714
sS'devices'
p724
g4
sg611
I2
sbsssS'algorithm'
p725
I0
sS'plot_pareto'
p726
I00
sS'e_sink'
p727
NsS'e_src'
p728
NsS'rs_mdl'
p729
NsS'electrical_mode'
p730
I1
sS'electrical_dev_state'
p731
g618
sS'thermal_mode'
p732
I1
sS'thermal_func'
p733
I0
sb.