(ipowercad.corner_stitch.optimization_setup
OptSetup
p0
(dp1
S'electrical_func'
p2
I0
sS'thermal_dev_tbl'
p3
(lp4
ccopy_reg
_reconstructor
p5
(cpowercad.sym_layout.symbolic_layout
SymPoint
p6
c__builtin__
object
p7
Ntp8
Rp9
(dp10
S'center_position'
p11
(F17.742412611693965
F13.442549327836687
tp12
sS'sym_bondwires'
p13
(lp14
g5
(cpowercad.sym_layout.symbolic_layout
SymLine
p15
g7
Ntp16
Rp17
(dp18
S'child_pts'
p19
NsS'trace'
p20
g5
(g15
g7
Ntp21
Rp22
(dp23
g19
(lp24
sg20
NsS'num_wires'
p25
NsS'dv_index'
p26
I3
sS'trace_connections'
p27
(lp28
g5
(g15
g7
Ntp29
Rp30
(dp31
g19
(lp32
g5
(g6
g7
Ntp33
Rp34
(dp35
g11
(lp36
F7.381206305846984
aF9.444043306039932
asg13
(lp37
sS'raw_element'
p38
g5
(cpowercad.sym_layout.svg
LayoutPoint
p39
g7
Ntp40
Rp41
(dp42
S'path_id'
p43
S'L1'
p44
sS'name'
p45
NsS'pt'
p46
(F0.0
F2.0
tp47
sbsg45
g44
sS'constraint'
p48
Nsg26
NsS'parent_line'
p49
g30
sS'element'
p50
g5
(g39
g7
Ntp51
Rp52
(dp53
g43
g44
sg45
Nsg46
(I0
I2
tp54
sbsS'states'
p55
(lp56
sS'tech'
p57
(ipowercad.design.library_structures
Lead
p58
(dp59
S'lead_type'
p60
I2
sS'shape'
p61
I2
sS'properties'
p62
(ipowercad.design.library_structures
MaterialProperties
p63
(dp64
S'rel_permit'
p65
Nsg45
S'Aluminium'
p66
sS'density'
p67
NsS'rel_permeab'
p68
NsS'electrical_res'
p69
F3e-08
sS'thermal_cond'
p70
NsS'spec_heat_cap'
p71
Nsbsg45
S'Cylindrical Aluminium Lead 1.2mm Diam.'
p72
sS'dimensions'
p73
(F1.2
I10
tp74
sbsS'footprint_rect'
p75
(ipowercad.general.data_struct.util
Rect
p76
(dp77
S'width'
p78
F1.1999999999999993
sS'right'
p79
F7.9812063058469835
sS'bottom'
p80
F8.844043306039932
sS'top'
p81
F10.044043306039931
sS'left'
p82
F6.781206305846984
sS'height'
p83
F1.1999999999999993
sbsS'lumped_node'
p84
I23
sS'orientation'
p85
Nsbasg20
Nsg25
Nsg26
I1
sg27
(lp86
g22
ag22
asS'intersecting_trace'
p87
NsS'device'
p88
NsS'land_pt'
p89
NsS'dev_pt'
p90
NsS'long_contacts'
p91
(dp92
sS'super_connections'
p93
(lp94
sS'land_pt2'
p95
NsS'wire'
p96
I00
sg38
g5
(cpowercad.sym_layout.svg
LayoutLine
p97
g7
Ntp98
Rp99
(dp100
g43
S'T9'
p101
sS'vertical'
p102
I01
sS'pt2'
p103
(F0.0
F3.0
tp104
sS'pt1'
p105
(F0.0
F0.0
tp106
sbsg45
g101
sS'conn_bonds'
p107
(lp108
sS'end_pt_conn'
p109
NsS'start_pt_conn'
p110
Nsg48
NsS'end_pts'
p111
Nsg50
g5
(g97
g7
Ntp112
Rp113
(dp114
g43
g101
sg102
I01
sg103
(I0
I3
tp115
sg105
(I0
I0
tp116
sbsg57
NsS'has_rect'
p117
I01
sS'start_pts'
p118
NsS'trace_rect'
p119
(ipowercad.general.data_struct.util
Rect
p120
(dp121
g79
F0.0
sg80
F0.0
sg81
F0.0
sg83
F0.0
sg78
F0.0
sg82
F0.0
sbsS'trace_line'
p122
g5
(g97
g7
Ntp123
Rp124
(dp125
g43
g101
sg105
(I0
I0
tp126
sg103
(I0
I3
tp127
sg102
I01
sbsS'trace2'
p128
NsS'wire_sep'
p129
NsS'normal_connections'
p130
(lp131
sbag30
asg87
Nsg88
Nsg89
Nsg90
Nsg91
(dp132
sg93
(lp133
sg95
Nsg96
I00
sg38
g5
(g97
g7
Ntp134
Rp135
(dp136
g43
S'T4'
p137
sg102
I00
sg103
(F5.0
F3.0
tp138
sg105
(F0.0
F3.0
tp139
sbsg45
g137
sg107
(lp140
g17
ag5
(g15
g7
Ntp141
Rp142
(dp143
g19
Nsg20
g22
sg25
I2
sg26
Nsg27
(lp144
sg87
Nsg88
g5
(g6
g7
Ntp145
Rp146
(dp147
g11
(F32.871774746501934
F13.442549327836687
tp148
sg13
(lp149
g142
ag5
(g15
g7
Ntp150
Rp151
(dp152
g19
Nsg20
g5
(g15
g7
Ntp153
Rp154
(dp155
g19
(lp156
g5
(g6
g7
Ntp157
Rp158
(dp159
g11
(lp160
F30.981206305846978
aF7.397012043593509
asg13
(lp161
sg38
g5
(g39
g7
Ntp162
Rp163
(dp164
g43
S'L4'
p165
sg45
Nsg46
(F4.0
F1.0
tp166
sbsg45
g165
sg48
Nsg26
Nsg49
g154
sg50
g5
(g39
g7
Ntp167
Rp168
(dp169
g43
g165
sg45
Nsg46
(I4
I1
tp170
sbsg55
(lp171
sg57
g58
sg75
(ipowercad.general.data_struct.util
Rect
p172
(dp173
g78
F1.2000000000000028
sg79
F31.58120630584698
sg80
F6.79701204359351
sg81
F7.997012043593509
sg82
F30.381206305846977
sg83
F1.1999999999999993
sbsg84
I21
sg85
Nsbasg20
Nsg25
Nsg26
I1
sg27
(lp174
sg87
Nsg88
Nsg89
Nsg90
Nsg91
(dp175
sg93
(lp176
sg95
Nsg96
I00
sg38
g5
(g97
g7
Ntp177
Rp178
(dp179
g43
S'T2'
p180
sg102
I00
sg103
(F6.0
F1.0
tp181
sg105
(F1.0
F1.0
tp182
sbsg45
g180
sg107
(lp183
g5
(g15
g7
Ntp184
Rp185
(dp186
g19
Nsg20
g154
sg25
I2
sg26
Nsg27
(lp187
sg87
Nsg88
g9
sg89
(F17.742412611693965
F7.79701204359351
tp188
sg90
I2
sg91
(dp189
sg93
(lp190
sg95
Nsg96
I01
sg38
Nsg107
(lp191
sg109
Nsg110
Nsg48
Nsg111
(lp192
(F19.062412611693965
F7.79701204359351
tp193
asg50
Nsg57
(ipowercad.design.library_structures
BondWire
p194
(dp195
S'a'
p196
F0.2
sg61
I1
sS'wire_type'
p197
I2
sg45
S'Aluminium Signal Bondwire 0.1mm'
p198
sS'b'
p199
F0.125
sg62
(ipowercad.design.library_structures
MaterialProperties
p200
(dp201
g65
Nsg45
S'Aluminium'
p202
sg67
Nsg68
Nsg69
F3e-08
sg70
Nsg71
Nsbsg73
F0.1
sbsg117
I01
sg118
(lp203
(F19.062412611693965
F13.992549327836688
tp204
asg119
Nsg122
Nsg128
Nsg129
F0.1
sg130
(lp205
sbag151
ag5
(g15
g7
Ntp206
Rp207
(dp208
g25
I2
sg27
(lp209
sg90
I2
sg95
Nsg96
I01
sg38
Nsg107
(lp210
sg110
Nsg111
Nsg117
I01
sg128
Nsg129
F0.1
sg19
Nsg20
g154
sg119
Nsg26
Nsg87
Nsg88
g9
sg89
Nsg91
(dp211
sg93
(lp212
sg48
Nsg109
Nsg118
Nsg50
Nsg57
(ipowercad.design.library_structures
BondWire
p213
(dp214
g196
F0.2
sg197
I2
sg45
g198
sg61
I1
sg199
F0.125
sg62
(ipowercad.design.library_structures
MaterialProperties
p215
(dp216
g45
g202
sg67
Nsg69
F3e-08
sg68
Nsg65
Nsg70
Nsg71
Nsbsg73
F0.1
sbsg130
(lp217
sg122
Nsbag5
(g15
g7
Ntp218
Rp219
(dp220
g25
I2
sg27
(lp221
sg90
I2
sg95
Nsg96
I01
sg38
Nsg107
(lp222
sg110
Nsg111
Nsg117
I01
sg128
Nsg129
F0.1
sg19
Nsg20
g154
sg119
Nsg26
Nsg87
Nsg88
g146
sg89
Nsg91
(dp223
sg93
(lp224
sg48
Nsg109
Nsg118
Nsg50
Nsg57
(ipowercad.design.library_structures
BondWire
p225
(dp226
g196
F0.2
sg197
I2
sg45
S'Aluminium Signal Bondwire 0.1mm'
p227
sg61
I1
sg199
F0.125
sg62
(ipowercad.design.library_structures
MaterialProperties
p228
(dp229
g45
S'Aluminium'
p230
sg67
Nsg69
F3e-08
sg68
Nsg65
Nsg70
Nsg71
Nsbsg73
F0.1
sbsg130
(lp231
sg122
Nsbasg109
Nsg110
Nsg48
Nsg111
Nsg50
g5
(g97
g7
Ntp232
Rp233
(dp234
g43
g180
sg102
I00
sg103
(I6
I1
tp235
sg105
(I1
I1
tp236
sbsg57
Nsg117
I01
sg118
Nsg119
(ipowercad.general.data_struct.util
Rect
p237
(dp238
g79
F0.0
sg80
F0.0
sg81
F0.0
sg83
F0.0
sg78
F0.0
sg82
F0.0
sbsg122
g5
(g97
g7
Ntp239
Rp240
(dp241
g43
g180
sg105
(I1
I1
tp242
sg103
(I3
I1
tp243
sg102
I00
sbsg128
Nsg129
Nsg130
(lp244
sbsg25
I2
sg26
Nsg27
(lp245
sg87
Nsg88
g146
sg89
(F32.871774746501934
F7.79701204359351
tp246
sg90
I2
sg91
(dp247
sg93
(lp248
sg95
Nsg96
I01
sg38
Nsg107
(lp249
sg109
Nsg110
Nsg48
Nsg111
(lp250
(F34.191774746501935
F7.79701204359351
tp251
asg50
Nsg57
(ipowercad.design.library_structures
BondWire
p252
(dp253
g196
F0.2
sg61
I1
sg197
I2
sg45
g227
sg199
F0.125
sg62
(ipowercad.design.library_structures
MaterialProperties
p254
(dp255
g65
Nsg45
g230
sg67
Nsg68
Nsg69
F3e-08
sg70
Nsg71
Nsbsg73
F0.1
sbsg117
I01
sg118
(lp256
(F34.191774746501935
F13.992549327836688
tp257
asg119
Nsg122
Nsg128
Nsg129
F0.1
sg130
(lp258
sbag5
(g15
g7
Ntp259
Rp260
(dp261
g25
I2
sg27
(lp262
sg90
I1
sg95
Nsg96
I01
sg38
Nsg107
(lp263
sg110
Nsg111
Nsg117
I01
sg128
Nsg129
F0.1
sg19
Nsg20
g22
sg119
Nsg26
Nsg87
Nsg88
g146
sg89
Nsg91
(dp264
sg93
(lp265
sg48
Nsg109
Nsg118
Nsg50
Nsg57
(ipowercad.design.library_structures
BondWire
p266
(dp267
g196
F0.4
sg197
I1
sg45
S'Aluminium Power Bondwire 0.3x0.2mm'
p268
sg61
I2
sg199
F0.25
sg62
(ipowercad.design.library_structures
MaterialProperties
p269
(dp270
g45
S'Aluminium'
p271
sg67
Nsg69
F3e-08
sg68
Nsg65
Nsg70
Nsg71
Nsbsg73
(F0.3
F0.2
tp272
sbsg130
(lp273
sg122
Nsbag219
asg38
g5
(g39
g7
Ntp274
Rp275
(dp276
g43
S'M4'
p277
sg45
Nsg46
(F3.0
F2.0
tp278
sbsg45
g277
sg48
Nsg26
I1
sg49
g5
(g15
g7
Ntp279
Rp280
(dp281
g19
(lp282
g9
ag146
asg20
Nsg25
Nsg26
I2
sg27
(lp283
g5
(g15
g7
Ntp284
Rp285
(dp286
g19
(lp287
g5
(g6
g7
Ntp288
Rp289
(dp290
g11
(lp291
F41.031193720109016
aF26.844043306039936
asg13
(lp292
sg38
g5
(g39
g7
Ntp293
Rp294
(dp295
g43
S'L3'
p296
sg45
Nsg46
(F6.0
F5.0
tp297
sbsg45
g296
sg48
Nsg26
Nsg49
g285
sg50
g5
(g39
g7
Ntp298
Rp299
(dp300
g43
g296
sg45
Nsg46
(I6
I5
tp301
sbsg55
(lp302
sg57
g58
sg75
(ipowercad.general.data_struct.util
Rect
p303
(dp304
g78
F1.2000000000000028
sg79
F41.63119372010902
sg80
F26.244043306039934
sg81
F27.444043306039937
sg82
F40.431193720109015
sg83
F1.2000000000000028
sbsg84
I25
sg85
Nsbasg20
Nsg25
Nsg26
I4
sg27
(lp305
g280
ag5
(g15
g7
Ntp306
Rp307
(dp308
g19
(lp309
sg20
Nsg25
Nsg26
I4
sg27
(lp310
g285
ag285
asg87
Nsg88
Nsg89
Nsg90
Nsg91
(dp311
sg93
(lp312
sg95
Nsg96
I00
sg38
g5
(g97
g7
Ntp313
Rp314
(dp315
g43
S'T5'
p316
sg102
I00
sg103
(F6.0
F4.0
tp317
sg105
(F1.0
F4.0
tp318
sbsg45
g316
sg107
(lp319
g5
(g15
g7
Ntp320
Rp321
(dp322
g19
Nsg20
g307
sg25
I2
sg26
Nsg27
(lp323
sg87
Nsg88
g5
(g6
g7
Ntp324
Rp325
(dp326
g11
(F27.840961507512898
F29.471412600852567
tp327
sg13
(lp328
g321
ag5
(g15
g7
Ntp329
Rp330
(dp331
g19
Nsg20
g5
(g15
g7
Ntp332
Rp333
(dp334
g19
(lp335
g5
(g6
g7
Ntp336
Rp337
(dp338
g11
(lp339
F34.26238744021804
aF33.0
asg13
(lp340
sg38
g5
(g39
g7
Ntp341
Rp342
(dp343
g43
S'L5'
p344
sg45
Nsg46
(F4.0
F7.0
tp345
sbsg45
g344
sg48
Nsg26
Nsg49
g333
sg50
g5
(g39
g7
Ntp346
Rp347
(dp348
g43
g344
sg45
Nsg46
(I4
I7
tp349
sbsg55
(lp350
sg57
g58
sg75
(ipowercad.general.data_struct.util
Rect
p351
(dp352
g78
F1.2000000000000028
sg79
F34.86238744021804
sg80
F32.4
sg81
F33.6
sg82
F33.66238744021804
sg83
F1.2000000000000028
sbsg84
I22
sg85
Nsbasg20
Nsg25
Nsg26
I6
sg27
(lp353
sg87
Nsg88
Nsg89
Nsg90
Nsg91
(dp354
sg93
(lp355
sg95
Nsg96
I00
sg38
g5
(g97
g7
Ntp356
Rp357
(dp358
g43
S'T7'
p359
sg102
I00
sg103
(F5.0
F7.0
tp360
sg105
(F0.0
F7.0
tp361
sbsg45
g359
sg107
(lp362
g330
ag5
(g15
g7
Ntp363
Rp364
(dp365
g19
Nsg20
g333
sg25
I2
sg26
Nsg27
(lp366
sg87
Nsg88
g5
(g6
g7
Ntp367
Rp368
(dp369
g11
(F33.08238744021804
F29.471412600852567
tp370
sg13
(lp371
g5
(g15
g7
Ntp372
Rp373
(dp374
g19
Nsg20
g307
sg25
I2
sg26
Nsg27
(lp375
sg87
Nsg88
g368
sg89
(F33.08238744021804
F25.542825201705142
tp376
sg90
I1
sg91
(dp377
sg93
(lp378
sg95
Nsg96
I01
sg38
Nsg107
(lp379
sg109
Nsg110
Nsg48
Nsg111
(lp380
(F33.26238744021804
F25.542825201705142
tp381
a(F34.26238744021804
F25.542825201705142
tp382
asg50
Nsg57
(ipowercad.design.library_structures
BondWire
p383
(dp384
g196
F0.4
sg61
I2
sg197
I1
sg45
S'Aluminium Power Bondwire 0.3x0.2mm'
p385
sg199
F0.25
sg62
(ipowercad.design.library_structures
MaterialProperties
p386
(dp387
g65
Nsg45
S'Aluminium'
p388
sg67
Nsg68
Nsg69
F3e-08
sg70
Nsg71
Nsbsg73
(F0.3
F0.2
tp389
sbsg117
I01
sg118
(lp390
(F33.26238744021804
F29.921412600852566
tp391
a(F34.26238744021804
F29.921412600852566
tp392
asg119
Nsg122
Nsg128
Nsg129
F0.1
sg130
(lp393
sbag364
ag5
(g15
g7
Ntp394
Rp395
(dp396
g25
I2
sg27
(lp397
sg90
I1
sg95
Nsg96
I01
sg38
Nsg107
(lp398
sg110
Nsg111
Nsg117
I01
sg128
Nsg129
F0.1
sg19
Nsg20
g307
sg119
Nsg26
Nsg87
Nsg88
g368
sg89
Nsg91
(dp399
sg93
(lp400
sg48
Nsg109
Nsg118
Nsg50
Nsg57
(ipowercad.design.library_structures
BondWire
p401
(dp402
g196
F0.4
sg197
I1
sg45
g385
sg61
I2
sg199
F0.25
sg62
(ipowercad.design.library_structures
MaterialProperties
p403
(dp404
g45
g388
sg67
Nsg69
F3e-08
sg68
Nsg65
Nsg70
Nsg71
Nsbsg73
g389
sbsg130
(lp405
sg122
Nsbag5
(g15
g7
Ntp406
Rp407
(dp408
g25
I2
sg27
(lp409
sg90
I2
sg95
Nsg96
I01
sg38
Nsg107
(lp410
sg110
Nsg111
Nsg117
I01
sg128
Nsg129
F0.1
sg19
Nsg20
g333
sg119
Nsg26
Nsg87
Nsg88
g368
sg89
Nsg91
(dp411
sg93
(lp412
sg48
Nsg109
Nsg118
Nsg50
Nsg57
(ipowercad.design.library_structures
BondWire
p413
(dp414
g196
F0.2
sg197
I2
sg45
S'Aluminium Signal Bondwire 0.1mm'
p415
sg61
I1
sg199
F0.125
sg62
(ipowercad.design.library_structures
MaterialProperties
p416
(dp417
g45
S'Aluminium'
p418
sg67
Nsg69
F3e-08
sg68
Nsg65
Nsg70
Nsg71
Nsbsg73
F0.1
sbsg130
(lp419
sg122
Nsbasg38
g5
(g39
g7
Ntp420
Rp421
(dp422
g43
S'M2'
p423
sg45
Nsg46
(F3.0
F6.0
tp424
sbsg45
g423
sg48
Nsg26
I3
sg49
g5
(g15
g7
Ntp425
Rp426
(dp427
g19
(lp428
g325
ag368
asg20
Nsg25
Nsg26
I5
sg27
(lp429
g5
(g15
g7
Ntp430
Rp431
(dp432
g19
(lp433
g5
(g6
g7
Ntp434
Rp435
(dp436
g11
(lp437
F7.381206305846983
aF24.936749647408757
asg13
(lp438
sg38
g5
(g39
g7
Ntp439
Rp440
(dp441
g43
S'L2'
p442
sg45
Nsg46
(F0.0
F5.0
tp443
sbsg45
g442
sg48
Nsg26
Nsg49
g431
sg50
g5
(g39
g7
Ntp444
Rp445
(dp446
g43
g442
sg45
Nsg46
(I0
I5
tp447
sbsg55
(lp448
sg57
g58
sg75
(ipowercad.general.data_struct.util
Rect
p449
(dp450
g78
F1.1999999999999993
sg79
F7.981206305846983
sg80
F24.336749647408755
sg81
F25.536749647408758
sg82
F6.781206305846983
sg83
F1.2000000000000028
sbsg84
I24
sg85
Nsbasg20
Nsg25
Nsg26
I0
sg27
(lp451
g426
ag426
asg87
Nsg88
Nsg89
Nsg90
Nsg91
(dp452
sg93
(lp453
sg95
Nsg96
I00
sg38
g5
(g97
g7
Ntp454
Rp455
(dp456
g43
S'T10'
p457
sg102
I01
sg103
(F0.0
F6.0
tp458
sg105
(F0.0
F4.0
tp459
sbsg45
g457
sg107
(lp460
sg109
Nsg110
Nsg48
Nsg111
Nsg50
g5
(g97
g7
Ntp461
Rp462
(dp463
g43
g457
sg102
I01
sg103
(I0
I6
tp464
sg105
(I0
I4
tp465
sbsg57
Nsg117
I01
sg118
Nsg119
(ipowercad.general.data_struct.util
Rect
p466
(dp467
g79
F0.0
sg80
F0.0
sg81
F0.0
sg83
F0.0
sg78
F0.0
sg82
F0.0
sbsg122
g5
(g97
g7
Ntp468
Rp469
(dp470
g43
g457
sg105
(I0
I4
tp471
sg103
(I0
I5
tp472
sg102
I01
sbsg128
Nsg129
Nsg130
(lp473
sbag431
asg87
Nsg88
Nsg89
Nsg90
Nsg91
(dp474
sg93
(lp475
sg95
Nsg96
I00
sg38
g5
(g97
g7
Ntp476
Rp477
(dp478
g43
S'T6'
p479
sg102
I00
sg103
(F5.0
F6.0
tp480
sg105
(F0.0
F6.0
tp481
sbsg45
g479
sg107
(lp482
sg109
Nsg110
Nsg48
Nsg111
Nsg50
g5
(g97
g7
Ntp483
Rp484
(dp485
g43
g479
sg102
I00
sg103
(I5
I6
tp486
sg105
(I0
I6
tp487
sbsg57
Nsg117
I01
sg118
Nsg119
(ipowercad.general.data_struct.util
Rect
p488
(dp489
g79
F0.0
sg80
F0.0
sg81
F0.0
sg83
F0.0
sg78
F0.0
sg82
F0.0
sbsg122
g5
(g97
g7
Ntp490
Rp491
(dp492
g43
g479
sg105
(I0
I5
tp493
sg103
(I2
I5
tp494
sg102
I00
sbsg128
Nsg129
Nsg130
(lp495
sbsg50
g5
(g39
g7
Ntp496
Rp497
(dp498
g43
g423
sg45
Nsg46
(I3
I6
tp499
sbsg55
(lp500
cnumpy.core.multiarray
scalar
p501
(cnumpy
dtype
p502
(S'f8'
p503
I0
I1
tp504
Rp505
(I3
S'<'
p506
NNNI-1
I-1
I0
tp507
bS'\x00\x00\x00\x00\x00\x00\xf0?'
p508
tp509
Rp510
ag501
(g505
S'\x00\x00\x00\x00\x00\x00\x00\x00'
p511
tp512
Rp513
ag501
(g505
S'\x00\x00\x00\x00\x00\x00\xf0?'
p514
tp515
Rp516
asg57
(ipowercad.design.project_structures
DeviceInstance
p517
(dp518
S'attach_thickness'
p519
F0.01
sS'heat_flow'
p520
F3.0
sS'attach_tech'
p521
(ipowercad.design.library_structures
DieAttach
p522
(dp523
g62
(ipowercad.design.library_structures
MaterialProperties
p524
(dp525
g65
Nsg45
S'Pb-Sn Solder Alloy'
p526
sg67
F11020.0
sg68
Nsg69
Nsg70
F35.8
sg71
F130.0
sbsbsS'device_tech'
p527
(ipowercad.design.library_structures
Device
p528
(dp529
S'power_side'
p530
I1
sg45
S'CPM2-1200-0080B-MOS'
p531
sS'device_type'
p532
I1
sS'wire_landings'
p533
(lp534
(ipowercad.design.library_structures
BondwireLanding
p535
(dp536
S'position'
p537
(F1.0
F3.0
tp538
sS'bond_type'
p539
I2
sba(ipowercad.design.library_structures
BondwireLanding
p540
(dp541
g537
(F2.0
F1.5
tp542
sg539
I1
sba(ipowercad.design.library_structures
BondwireLanding
p543
(dp544
g537
(F2.0
F0.5
tp545
sg539
I1
sbasS'device_model'
p546
Nsg62
(ipowercad.design.library_structures
MaterialProperties
p547
(dp548
S'young_mdl'
p549
NsS'poi_rat'
p550
Nsg45
Nsg67
F3100.0
sS'expansion_coeff'
p551
Nsg69
Nsg68
Nsg65
Nsg70
F370.0
sS'id'
p552
Nsg71
F750.0
sbsg73
(F3.1
F3.36
F0.22
tp553
sbsS'thermal_features'
p554
(ipowercad.thermal.fast_thermal
DieThermalFeatures
p555
(dp556
S'eff_power'
p557
F2.8723833567843617
sS'die_res'
p558
F0.08390209327315112
sS'die_power'
p559
F3.0
sS'iso_top_temps'
p560
(lp561
(ipowercad.thermal.fast_thermal
ContourRect
p562
(dp563
g78
F3.1531531531531534
sS'avg_val'
p564
F7.1082713958394645
sg83
F3.36
sba(ipowercad.thermal.fast_thermal
ContourRect
p565
(dp566
g78
F7.307307307307307
sg564
F6.172919248433019
sg83
F7.431111111111111
sba(ipowercad.thermal.fast_thermal
ContourRect
p567
(dp568
g78
F11.461461461461463
sg564
F5.819153196998098
sg83
F11.502222222222223
sba(ipowercad.thermal.fast_thermal
ContourRect
p569
(dp570
g78
F15.415415415415417
sg564
F5.717543303462209
sg83
F15.573333333333334
sba(ipowercad.thermal.fast_thermal
ContourRect
p571
(dp572
g78
F19.51951951951952
sg564
F5.664334424705008
sg83
F19.644444444444446
sba(ipowercad.thermal.fast_thermal
ContourRect
p573
(dp574
g78
F23.573573573573576
sg564
F5.628255013494388
sg83
F23.715555555555557
sba(ipowercad.thermal.fast_thermal
ContourRect
p575
(dp576
g78
F27.57757757757758
sg564
F5.601510707778266
sg83
F27.78666666666667
sba(ipowercad.thermal.fast_thermal
ContourRect
p577
(dp578
g78
F31.431431431431434
sg564
F5.580912414818867
sg83
F31.85777777777778
sba(ipowercad.thermal.fast_thermal
ContourRect
p579
(dp580
g78
F34.78478478478479
sg564
F5.565505689925308
sg83
F35.92888888888889
sba(ipowercad.thermal.fast_thermal
ContourRect
p581
(dp582
g78
F38.23823823823824
sg564
F5.553313141163747
sg83
F40.0
sbasS'iso_top_avg_temp'
p583
F5.612569172284645
sS'self_temp'
p584
F7.1082713958394645
sS'iso_top_fluxes'
p585
(lp586
(ipowercad.thermal.fast_thermal
ContourRect
p587
(dp588
g78
F3.3033033033033035
sg564
F0.14284399415239682
sg83
F3.36
sba(ipowercad.thermal.fast_thermal
ContourRect
p589
(dp590
g78
F4.954954954954955
sg564
F0.054547628693094194
sg83
F4.782240017795573
sba(ipowercad.thermal.fast_thermal
ContourRect
p591
(dp592
g78
F6.306306306306307
sg564
F0.015722867331146743
sg83
F6.204480035591146
sba(ipowercad.thermal.fast_thermal
ContourRect
p593
(dp594
g78
F7.307307307307307
sg564
F0.006972567552389767
sg83
F7.62672005338672
sba(ipowercad.thermal.fast_thermal
ContourRect
p595
(dp596
g78
F8.95895895895896
sg564
F0.0037914531442975407
sg83
F9.048960071182293
sba(ipowercad.thermal.fast_thermal
ContourRect
p597
(dp598
g78
F9.80980980980981
sg564
F0.0019770538150936886
sg83
F10.471200088977866
sba(ipowercad.thermal.fast_thermal
ContourRect
p599
(dp600
g78
F11.161161161161163
sg564
F0.001067108207094652
sg83
F11.89344010677344
sba(ipowercad.thermal.fast_thermal
ContourRect
p601
(dp602
g78
F14.514514514514515
sg564
F0.00045852106665634064
sg83
F13.315680124569013
sba(ipowercad.thermal.fast_thermal
ContourRect
p603
(dp604
g78
F50.0
sg564
F7.02853151071056e-05
sg83
F14.737920142364587
sba(ipowercad.thermal.fast_thermal
ContourRect
p605
(dp606
g78
F50.0
sg564
F6.40084122467408e-05
sg83
F16.16016016016016
sbasbsbsg75
(ipowercad.general.data_struct.util
Rect
p607
(dp608
g78
F3.3599999999999994
sg79
F34.76238744021804
sg80
F27.921412600852566
sg81
F31.021412600852567
sg82
F31.402387440218043
sg83
F3.1000000000000014
sbsg84
I16
sg85
I3
sbsg89
(F33.08238744021804
F32.6
tp609
sg90
I2
sg91
(dp610
sg93
(lp611
sg95
Nsg96
I01
sg38
Nsg107
(lp612
sg109
Nsg110
Nsg48
Nsg111
(lp613
(F31.762387440218042
F32.6
tp614
asg50
Nsg57
(ipowercad.design.library_structures
BondWire
p615
(dp616
g196
F0.2
sg61
I1
sg197
I2
sg45
g415
sg199
F0.125
sg62
(ipowercad.design.library_structures
MaterialProperties
p617
(dp618
g65
Nsg45
g418
sg67
Nsg68
Nsg69
F3e-08
sg70
Nsg71
Nsbsg73
F0.1
sbsg117
I01
sg118
(lp619
(F31.762387440218042
F28.921412600852566
tp620
asg119
Nsg122
Nsg128
Nsg129
F0.1
sg130
(lp621
sbag5
(g15
g7
Ntp622
Rp623
(dp624
g25
I2
sg27
(lp625
sg90
I2
sg95
Nsg96
I01
sg38
Nsg107
(lp626
sg110
Nsg111
Nsg117
I01
sg128
Nsg129
F0.1
sg19
Nsg20
g333
sg119
Nsg26
Nsg87
Nsg88
g325
sg89
Nsg91
(dp627
sg93
(lp628
sg48
Nsg109
Nsg118
Nsg50
Nsg57
(ipowercad.design.library_structures
BondWire
p629
(dp630
g196
F0.2
sg197
I2
sg45
S'Aluminium Signal Bondwire 0.1mm'
p631
sg61
I1
sg199
F0.125
sg62
(ipowercad.design.library_structures
MaterialProperties
p632
(dp633
g45
S'Aluminium'
p634
sg67
Nsg69
F3e-08
sg68
Nsg65
Nsg70
Nsg71
Nsbsg73
F0.1
sbsg130
(lp635
sg122
Nsbag407
asg109
Nsg110
Nsg48
Nsg111
Nsg50
g5
(g97
g7
Ntp636
Rp637
(dp638
g43
g359
sg102
I00
sg103
(I5
I7
tp639
sg105
(I0
I7
tp640
sbsg57
Nsg117
I01
sg118
Nsg119
(ipowercad.general.data_struct.util
Rect
p641
(dp642
g79
F0.0
sg80
F0.0
sg81
F0.0
sg83
F0.0
sg78
F0.0
sg82
F0.0
sbsg122
g5
(g97
g7
Ntp643
Rp644
(dp645
g43
g359
sg105
(I0
I6
tp646
sg103
(I2
I6
tp647
sg102
I00
sbsg128
Nsg129
Nsg130
(lp648
sbsg25
I2
sg26
Nsg27
(lp649
sg87
Nsg88
g325
sg89
(F27.840961507512898
F32.6
tp650
sg90
I2
sg91
(dp651
sg93
(lp652
sg95
Nsg96
I01
sg38
Nsg107
(lp653
sg109
Nsg110
Nsg48
Nsg111
(lp654
(F26.520961507512897
F32.6
tp655
asg50
Nsg57
(ipowercad.design.library_structures
BondWire
p656
(dp657
g196
F0.2
sg61
I1
sg197
I2
sg45
g631
sg199
F0.125
sg62
(ipowercad.design.library_structures
MaterialProperties
p658
(dp659
g65
Nsg45
g634
sg67
Nsg68
Nsg69
F3e-08
sg70
Nsg71
Nsbsg73
F0.1
sbsg117
I01
sg118
(lp660
(F26.520961507512897
F28.921412600852566
tp661
asg119
Nsg122
Nsg128
Nsg129
F0.1
sg130
(lp662
sbag5
(g15
g7
Ntp663
Rp664
(dp665
g25
I2
sg27
(lp666
sg90
I1
sg95
Nsg96
I01
sg38
Nsg107
(lp667
sg110
Nsg111
Nsg117
I01
sg128
Nsg129
F0.1
sg19
Nsg20
g307
sg119
Nsg26
Nsg87
Nsg88
g325
sg89
Nsg91
(dp668
sg93
(lp669
sg48
Nsg109
Nsg118
Nsg50
Nsg57
(ipowercad.design.library_structures
BondWire
p670
(dp671
g196
F0.4
sg197
I1
sg45
S'Aluminium Power Bondwire 0.3x0.2mm'
p672
sg61
I2
sg199
F0.25
sg62
(ipowercad.design.library_structures
MaterialProperties
p673
(dp674
g45
S'Aluminium'
p675
sg67
Nsg69
F3e-08
sg68
Nsg65
Nsg70
Nsg71
Nsbsg73
(F0.3
F0.2
tp676
sbsg130
(lp677
sg122
Nsbag623
asg38
g5
(g39
g7
Ntp678
Rp679
(dp680
g43
S'M1'
p681
sg45
Nsg46
(F2.0
F6.0
tp682
sbsg45
g681
sg48
Nsg26
I2
sg49
g426
sg50
g5
(g39
g7
Ntp683
Rp684
(dp685
g43
g681
sg45
Nsg46
(I2
I6
tp686
sbsg55
(lp687
g501
(g505
S'\x00\x00\x00\x00\x00\x00\xf0?'
p688
tp689
Rp690
ag501
(g505
S'\x00\x00\x00\x00\x00\x00\x00\x00'
p691
tp692
Rp693
ag501
(g505
S'\x00\x00\x00\x00\x00\x00\xf0?'
p694
tp695
Rp696
asg57
g517
sg75
(ipowercad.general.data_struct.util
Rect
p697
(dp698
g78
F3.3599999999999994
sg79
F29.520961507512897
sg80
F27.921412600852566
sg81
F31.021412600852567
sg82
F26.160961507512898
sg83
F3.1000000000000014
sbsg84
I11
sg85
I3
sbsg89
(F27.840961507512898
F25.542825201705142
tp699
sg90
I1
sg91
(dp700
sg93
(lp701
sg95
Nsg96
I01
sg38
Nsg107
(lp702
sg109
Nsg110
Nsg48
Nsg111
(lp703
(F28.020961507512897
F25.542825201705142
tp704
a(F29.020961507512897
F25.542825201705142
tp705
asg50
Nsg57
(ipowercad.design.library_structures
BondWire
p706
(dp707
g196
F0.4
sg61
I2
sg197
I1
sg45
g672
sg199
F0.25
sg62
(ipowercad.design.library_structures
MaterialProperties
p708
(dp709
g65
Nsg45
g675
sg67
Nsg68
Nsg69
F3e-08
sg70
Nsg71
Nsbsg73
g676
sbsg117
I01
sg118
(lp710
(F28.020961507512897
F29.921412600852566
tp711
a(F29.020961507512897
F29.921412600852566
tp712
asg119
Nsg122
Nsg128
Nsg129
F0.1
sg130
(lp713
sbag373
ag664
ag395
asg109
Nsg110
Nsg48
Nsg111
Nsg50
g5
(g97
g7
Ntp714
Rp715
(dp716
g43
g316
sg102
I00
sg103
(I6
I4
tp717
sg105
(I1
I4
tp718
sbsg57
Nsg117
I01
sg118
Nsg119
(ipowercad.general.data_struct.util
Rect
p719
(dp720
g79
F0.0
sg80
F0.0
sg81
F0.0
sg83
F0.0
sg78
F0.0
sg82
F0.0
sbsg122
g5
(g97
g7
Ntp721
Rp722
(dp723
g43
g316
sg105
(I1
I4
tp724
sg103
(I3
I4
tp725
sg102
I00
sbsg128
Nsg129
Nsg130
(lp726
sbag280
ag307
asg87
Nsg88
Nsg89
Nsg90
Nsg91
(dp727
sg93
(lp728
sg95
Nsg96
I00
sg38
g5
(g97
g7
Ntp729
Rp730
(dp731
g43
S'T11'
p732
sg102
I01
sg103
(F6.0
F8.0
tp733
sg105
(F6.0
F2.0
tp734
sbsg45
g732
sg107
(lp735
sg109
Nsg110
Nsg48
Nsg111
Nsg50
g5
(g97
g7
Ntp736
Rp737
(dp738
g43
g732
sg102
I01
sg103
(I6
I8
tp739
sg105
(I6
I2
tp740
sbsg57
Nsg117
I01
sg118
Nsg119
(ipowercad.general.data_struct.util
Rect
p741
(dp742
g79
F0.0
sg80
F0.0
sg81
F0.0
sg83
F0.0
sg78
F0.0
sg82
F0.0
sbsg122
g5
(g97
g7
Ntp743
Rp744
(dp745
g43
g732
sg105
(I3
I2
tp746
sg103
(I3
I7
tp747
sg102
I01
sbsg128
Nsg129
Nsg130
(lp748
sbag285
asg87
Nsg88
Nsg89
Nsg90
Nsg91
(dp749
sg93
(lp750
sg95
Nsg96
I00
sg38
g5
(g97
g7
Ntp751
Rp752
(dp753
g43
S'T3'
p754
sg102
I00
sg103
(F6.0
F2.0
tp755
sg105
(F1.0
F2.0
tp756
sbsg45
g754
sg107
(lp757
sg109
Nsg110
Nsg48
Nsg111
Nsg50
g5
(g97
g7
Ntp758
Rp759
(dp760
g43
g754
sg102
I00
sg103
(I6
I2
tp761
sg105
(I1
I2
tp762
sbsg57
Nsg117
I01
sg118
Nsg119
(ipowercad.general.data_struct.util
Rect
p763
(dp764
g79
F0.0
sg80
F0.0
sg81
F0.0
sg83
F0.0
sg78
F0.0
sg82
F0.0
sbsg122
g5
(g97
g7
Ntp765
Rp766
(dp767
g43
g754
sg105
(I1
I2
tp768
sg103
(I3
I2
tp769
sg102
I00
sbsg128
Nsg129
Nsg130
(lp770
sbsg50
g5
(g39
g7
Ntp771
Rp772
(dp773
g43
g277
sg45
Nsg46
(I3
I2
tp774
sbsg55
(lp775
g501
(g505
S'\x00\x00\x00\x00\x00\x00\xf0?'
p776
tp777
Rp778
ag501
(g505
S'\x00\x00\x00\x00\x00\x00\x00\x00'
p779
tp780
Rp781
ag501
(g505
S'\x00\x00\x00\x00\x00\x00\xf0?'
p782
tp783
Rp784
asg57
g517
sg75
(ipowercad.general.data_struct.util
Rect
p785
(dp786
g78
F3.3599999999999994
sg79
F34.551774746501934
sg80
F11.892549327836687
sg81
F14.992549327836688
sg82
F31.191774746501935
sg83
F3.1000000000000014
sbsg84
I6
sg85
I4
sbsg89
(F32.871774746501934
F19.888086612079864
tp787
sg90
I1
sg91
(dp788
sg93
(lp789
sg95
Nsg96
I01
sg38
Nsg107
(lp790
sg109
Nsg110
Nsg48
Nsg111
(lp791
(F32.691774746501935
F19.888086612079864
tp792
a(F31.691774746501935
F19.888086612079864
tp793
asg50
Nsg57
(ipowercad.design.library_structures
BondWire
p794
(dp795
g196
F0.4
sg61
I2
sg197
I1
sg45
g268
sg199
F0.25
sg62
(ipowercad.design.library_structures
MaterialProperties
p796
(dp797
g65
Nsg45
g271
sg67
Nsg68
Nsg69
F3e-08
sg70
Nsg71
Nsbsg73
g272
sbsg117
I01
sg118
(lp798
(F32.691774746501935
F12.992549327836688
tp799
a(F31.691774746501935
F12.992549327836688
tp800
asg119
Nsg122
Nsg128
Nsg129
F0.1
sg130
(lp801
sbag5
(g15
g7
Ntp802
Rp803
(dp804
g25
I2
sg27
(lp805
sg90
I1
sg95
Nsg96
I01
sg38
Nsg107
(lp806
sg110
Nsg111
Nsg117
I01
sg128
Nsg129
F0.1
sg19
Nsg20
g22
sg119
Nsg26
Nsg87
Nsg88
g9
sg89
Nsg91
(dp807
sg93
(lp808
sg48
Nsg109
Nsg118
Nsg50
Nsg57
(ipowercad.design.library_structures
BondWire
p809
(dp810
g196
F0.4
sg197
I1
sg45
S'Aluminium Power Bondwire 0.3x0.2mm'
p811
sg61
I2
sg199
F0.25
sg62
(ipowercad.design.library_structures
MaterialProperties
p812
(dp813
g45
S'Aluminium'
p814
sg67
Nsg69
F3e-08
sg68
Nsg65
Nsg70
Nsg71
Nsbsg73
(F0.3
F0.2
tp815
sbsg130
(lp816
sg122
Nsbag260
asg109
Nsg110
Nsg48
Nsg111
Nsg50
g5
(g97
g7
Ntp817
Rp818
(dp819
g43
g137
sg102
I00
sg103
(I5
I3
tp820
sg105
(I0
I3
tp821
sbsg57
Nsg117
I01
sg118
Nsg119
(ipowercad.general.data_struct.util
Rect
p822
(dp823
g79
F0.0
sg80
F0.0
sg81
F0.0
sg83
F0.0
sg78
F0.0
sg82
F0.0
sbsg122
g5
(g97
g7
Ntp824
Rp825
(dp826
g43
g137
sg105
(I0
I3
tp827
sg103
(I2
I3
tp828
sg102
I00
sbsg128
Nsg129
Nsg130
(lp829
sbsg25
I2
sg26
Nsg27
(lp830
sg87
Nsg88
g9
sg89
(F17.742412611693965
F19.888086612079864
tp831
sg90
I1
sg91
(dp832
sg93
(lp833
sg95
Nsg96
I01
sg38
Nsg107
(lp834
sg109
Nsg110
Nsg48
Nsg111
(lp835
(F17.562412611693965
F19.888086612079864
tp836
a(F16.562412611693965
F19.888086612079864
tp837
asg50
Nsg57
(ipowercad.design.library_structures
BondWire
p838
(dp839
g196
F0.4
sg61
I2
sg197
I1
sg45
g811
sg199
F0.25
sg62
(ipowercad.design.library_structures
MaterialProperties
p840
(dp841
g65
Nsg45
g814
sg67
Nsg68
Nsg69
F3e-08
sg70
Nsg71
Nsbsg73
g815
sbsg117
I01
sg118
(lp842
(F17.562412611693965
F12.992549327836688
tp843
a(F16.562412611693965
F12.992549327836688
tp844
asg119
Nsg122
Nsg128
Nsg129
F0.1
sg130
(lp845
sbag185
ag803
ag207
asg38
g5
(g39
g7
Ntp846
Rp847
(dp848
g43
S'M3'
p849
sg45
Nsg46
(F2.0
F2.0
tp850
sbsg45
g849
sg48
Nsg26
I0
sg49
g280
sg50
g5
(g39
g7
Ntp851
Rp852
(dp853
g43
g849
sg45
Nsg46
(I2
I2
tp854
sbsg55
(lp855
g501
(g505
S'\x00\x00\x00\x00\x00\x00\xf0?'
p856
tp857
Rp858
ag501
(g505
S'\x00\x00\x00\x00\x00\x00\x00\x00'
p859
tp860
Rp861
ag501
(g505
S'\x00\x00\x00\x00\x00\x00\xf0?'
p862
tp863
Rp864
asg57
g517
sg75
(ipowercad.general.data_struct.util
Rect
p865
(dp866
g78
F3.3599999999999994
sg79
F19.422412611693964
sg80
F11.892549327836687
sg81
F14.992549327836688
sg82
F16.062412611693965
sg83
F3.1000000000000014
sbsg84
I1
sg85
I4
sbag146
ag325
ag368
asS'perf_table'
p867
(dp868
S'1'
p869
(dp870
S'type'
p871
S'Electrical'
p872
sS'Eval'
p873
S'Inductance'
p874
sS'measure'
p875
g5
(cpowercad.sym_layout.symbolic_layout
ElectricalMeasure
p876
g7
Ntp877
Rp878
(dp879
S'sink_term'
p880
Nsg45
g869
sS'mdl'
p881
S'MS'
p882
sS'src_term'
p883
NsS'lines'
p884
NsS'dev_state'
p885
g5
(cpandas.core.frame
DataFrame
p886
g7
Ntp887
Rp888
(dp889
S'_metadata'
p890
(lp891
sS'_typ'
p892
S'dataframe'
p893
sS'_data'
p894
g5
(cpandas.core.internals
BlockManager
p895
g7
Ntp896
Rp897
((lp898
cpandas.core.indexes.base
_new_Index
p899
(cpandas.core.indexes.numeric
Int64Index
p900
(dp901
S'data'
p902
cnumpy.core.multiarray
_reconstruct
p903
(cnumpy
ndarray
p904
(I0
tp905
g199
tp906
Rp907
(I1
(I4
tp908
g502
(S'i8'
p909
I0
I1
tp910
Rp911
(I3
S'<'
p912
NNNI-1
I-1
I0
tp913
bI00
S'\x00\x00\x00\x00\x00\x00\x00\x00\x01\x00\x00\x00\x00\x00\x00\x00\x02\x00\x00\x00\x00\x00\x00\x00\x03\x00\x00\x00\x00\x00\x00\x00'
p914
tp915
bsg45
Nstp916
Rp917
ag899
(g900
(dp918
g902
g903
(g904
(I0
tp919
g199
tp920
Rp921
(I1
(I4
tp922
g911
I00
S'\x00\x00\x00\x00\x00\x00\x00\x00\x01\x00\x00\x00\x00\x00\x00\x00\x02\x00\x00\x00\x00\x00\x00\x00\x03\x00\x00\x00\x00\x00\x00\x00'
p923
tp924
bsg45
Nstp925
Rp926
a(lp927
g903
(g904
(I0
tp928
g199
tp929
Rp930
(I1
(I3
I4
tp931
g505
I01
S'\x00\x00\x00\x00\x00\x00\xf0?\x00\x00\x00\x00\x00\x00\x00\x00\x00\x00\x00\x00\x00\x00\xf0?\x00\x00\x00\x00\x00\x00\xf0?\x00\x00\x00\x00\x00\x00\x00\x00\x00\x00\x00\x00\x00\x00\xf0?\x00\x00\x00\x00\x00\x00\xf0?\x00\x00\x00\x00\x00\x00\x00\x00\x00\x00\x00\x00\x00\x00\xf0?\x00\x00\x00\x00\x00\x00\xf0?\x00\x00\x00\x00\x00\x00\x00\x00\x00\x00\x00\x00\x00\x00\xf0?'
p932
tp933
bag903
(g904
(I0
tp934
g199
tp935
Rp936
(I1
(I1
I4
tp937
g502
(S'O4'
p938
I0
I1
tp939
Rp940
(I3
S'|'
p941
NNNI-1
I-1
I63
tp942
bI00
(lp943
VM3
p944
aVM4
p945
aVM1
p946
aVM2
p947
atp948
ba(lp949
g899
(g900
(dp950
g902
g903
(g904
(I0
tp951
g199
tp952
Rp953
(I1
(I3
tp954
g911
I00
S'\x01\x00\x00\x00\x00\x00\x00\x00\x02\x00\x00\x00\x00\x00\x00\x00\x03\x00\x00\x00\x00\x00\x00\x00'
p955
tp956
bsg45
Nstp957
Rp958
ag899
(g900
(dp959
g902
g903
(g904
(I0
tp960
g199
tp961
Rp962
(I1
(I1
tp963
g911
I00
S'\x00\x00\x00\x00\x00\x00\x00\x00'
p964
tp965
bsg45
Nstp966
Rp967
a(dp968
S'0.14.1'
p969
(dp970
S'axes'
p971
g898
sS'blocks'
p972
(lp973
(dp974
S'mgr_locs'
p975
c__builtin__
slice
p976
(I1
I4
L1L
tp977
Rp978
sS'values'
p979
g930
sa(dp980
g975
g976
(L0L
L1L
I1
tp981
Rp982
sg979
g936
sasstp983
bsbsg875
I2
sS'units'
p984
S'nH'
p985
sg103
g158
sg105
g337
sbssS' 2'
p986
(dp987
g871
S'Thermal'
p988
sg873
S'Maximum'
p989
sg875
g5
(cpowercad.sym_layout.symbolic_layout
ThermalMeasure
p990
g7
Ntp991
Rp992
(dp993
g984
S'K'
p994
sS'stat_fn'
p995
I1
sg45
g986
sS'devices'
p996
g4
sg881
I2
sbsssS'algorithm'
p997
I0
sS'plot_pareto'
p998
I00
sS'e_sink'
p999
NsS'e_src'
p1000
NsS'rs_mdl'
p1001
NsS'electrical_mode'
p1002
I1
sS'electrical_dev_state'
p1003
g888
sS'thermal_mode'
p1004
I1
sS'thermal_func'
p1005
I0
sb.