(ipowercad.project_builder.project
Project
p0
(dp1
S'deviceTable'
p2
(lp3
(lp4
V  CPM2-1200-0080B-MOS.p
p5
a(ipowercad.design.project_structures
DeviceInstance
p6
(dp7
S'attach_thickness'
p8
F0.01
sS'heat_flow'
p9
F3.0
sS'attach_tech'
p10
(ipowercad.design.library_structures
DieAttach
p11
(dp12
S'properties'
p13
(ipowercad.design.library_structures
MaterialProperties
p14
(dp15
S'name'
p16
S'Pb-Sn Solder Alloy'
p17
sS'density'
p18
F11020.0
sS'electrical_res'
p19
NsS'rel_permeab'
p20
NsS'rel_permit'
p21
NsS'thermal_cond'
p22
F35.8
sS'spec_heat_cap'
p23
F130.0
sbsbsS'device_tech'
p24
(ipowercad.design.library_structures
Device
p25
(dp26
g16
S'CPM2-1200-0080B-MOS'
p27
sS'wire_landings'
p28
(lp29
(ipowercad.design.library_structures
BondwireLanding
p30
(dp31
S'position'
p32
(F1.0
F3.0
tp33
sS'bond_type'
p34
I2
sba(ipowercad.design.library_structures
BondwireLanding
p35
(dp36
g32
(F2.0
F1.5
tp37
sg34
I1
sba(ipowercad.design.library_structures
BondwireLanding
p38
(dp39
g32
(F2.0
F0.5
tp40
sg34
I1
sbasS'device_model'
p41
NsS'power_side'
p42
I1
sS'device_type'
p43
I1
sg13
(ipowercad.design.library_structures
MaterialProperties
p44
(dp45
S'young_mdl'
p46
NsS'poi_rat'
p47
Nsg16
Nsg18
F3100.0
sS'expansion_coeff'
p48
Nsg19
Nsg20
Nsg21
Nsg22
F370.0
sS'id'
p49
Nsg23
F750.0
sbsS'dimensions'
p50
(F3.1
F3.36
F0.22
tp51
sbsS'thermal_features'
p52
(ipowercad.thermal.fast_thermal
DieThermalFeatures
p53
(dp54
S'eff_power'
p55
F2.8723833567843617
sS'iso_top_temps'
p56
(lp57
(ipowercad.thermal.fast_thermal
ContourRect
p58
(dp59
S'width'
p60
F3.1531531531531534
sS'avg_val'
p61
F7.1082713958394645
sS'height'
p62
F3.36
sba(ipowercad.thermal.fast_thermal
ContourRect
p63
(dp64
g60
F7.307307307307307
sg61
F6.172919248433019
sg62
F7.431111111111111
sba(ipowercad.thermal.fast_thermal
ContourRect
p65
(dp66
g60
F11.461461461461463
sg61
F5.819153196998098
sg62
F11.502222222222223
sba(ipowercad.thermal.fast_thermal
ContourRect
p67
(dp68
g60
F15.415415415415417
sg61
F5.717543303462209
sg62
F15.573333333333334
sba(ipowercad.thermal.fast_thermal
ContourRect
p69
(dp70
g60
F19.51951951951952
sg61
F5.664334424705008
sg62
F19.644444444444446
sba(ipowercad.thermal.fast_thermal
ContourRect
p71
(dp72
g60
F23.573573573573576
sg61
F5.628255013494388
sg62
F23.715555555555557
sba(ipowercad.thermal.fast_thermal
ContourRect
p73
(dp74
g60
F27.57757757757758
sg61
F5.601510707778266
sg62
F27.78666666666667
sba(ipowercad.thermal.fast_thermal
ContourRect
p75
(dp76
g60
F31.431431431431434
sg61
F5.580912414818867
sg62
F31.85777777777778
sba(ipowercad.thermal.fast_thermal
ContourRect
p77
(dp78
g60
F34.78478478478479
sg61
F5.565505689925308
sg62
F35.92888888888889
sba(ipowercad.thermal.fast_thermal
ContourRect
p79
(dp80
g60
F38.23823823823824
sg61
F5.553313141163747
sg62
F40.0
sbasS'iso_top_avg_temp'
p81
F5.612569172284645
sS'die_power'
p82
F3.0
sS'die_res'
p83
F0.08390209327315112
sS'self_temp'
p84
F7.1082713958394645
sS'iso_top_fluxes'
p85
(lp86
(ipowercad.thermal.fast_thermal
ContourRect
p87
(dp88
g60
F3.3033033033033035
sg61
F0.14284399415239682
sg62
F3.36
sba(ipowercad.thermal.fast_thermal
ContourRect
p89
(dp90
g60
F4.954954954954955
sg61
F0.054547628693094194
sg62
F4.782240017795573
sba(ipowercad.thermal.fast_thermal
ContourRect
p91
(dp92
g60
F6.306306306306307
sg61
F0.015722867331146743
sg62
F6.204480035591146
sba(ipowercad.thermal.fast_thermal
ContourRect
p93
(dp94
g60
F7.307307307307307
sg61
F0.006972567552389767
sg62
F7.62672005338672
sba(ipowercad.thermal.fast_thermal
ContourRect
p95
(dp96
g60
F8.95895895895896
sg61
F0.0037914531442975407
sg62
F9.048960071182293
sba(ipowercad.thermal.fast_thermal
ContourRect
p97
(dp98
g60
F9.80980980980981
sg61
F0.0019770538150936886
sg62
F10.471200088977866
sba(ipowercad.thermal.fast_thermal
ContourRect
p99
(dp100
g60
F11.161161161161163
sg61
F0.001067108207094652
sg62
F11.89344010677344
sba(ipowercad.thermal.fast_thermal
ContourRect
p101
(dp102
g60
F14.514514514514515
sg61
F0.00045852106665634064
sg62
F13.315680124569013
sba(ipowercad.thermal.fast_thermal
ContourRect
p103
(dp104
g60
F50.0
sg61
F7.02853151071056e-05
sg62
F14.737920142364587
sba(ipowercad.thermal.fast_thermal
ContourRect
p105
(dp106
g60
F50.0
sg61
F6.40084122467408e-05
sg62
F16.16016016016016
sbasbsbaa(lp107
V  Cylindrical Aluminium Lead 1.2mm Diam..p
p108
a(ipowercad.design.library_structures
Lead
p109
(dp110
S'lead_type'
p111
I2
sS'shape'
p112
I2
sg50
(F1.2
I10
tp113
sg16
S'Cylindrical Aluminium Lead 1.2mm Diam.'
p114
sg13
(ipowercad.design.library_structures
MaterialProperties
p115
(dp116
g16
S'Aluminium'
p117
sg18
Nsg19
F3e-08
sg20
Nsg21
Nsg22
Nsg23
NsbsbaasS'sym_info'
p118
(dp119
sg16
VBalancing_tutorial_case
p120
sS'netlist'
p121
NsS'module_data'
p122
ccopy_reg
_reconstructor
p123
(cpowercad.design.module_data
ModuleData
p124
c__builtin__
object
p125
Ntp126
Rp127
(dp128
S'substrate'
p129
(ipowercad.design.project_structures
SubstrateInstance
p130
(dp131
S'ledge_width'
p132
F2.0
sg50
(F50.0
F80.0
tp133
sS'substrate_tech'
p134
(ipowercad.design.library_structures
Substrate
p135
(dp136
S'isolation_properties'
p137
(ipowercad.design.library_structures
MaterialProperties
p138
(dp139
g46
F305000000000.0
sg47
Nsg16
S'Al_N'
p140
sg18
F3250.0
sg48
F5.2e-06
sg19
Nsg20
Nsg21
F8.8
sg22
F120.0
sg49
S'Al_N'
p141
sg23
F734.3
sbsS'metal_properties'
p142
(ipowercad.design.library_structures
MaterialProperties
p143
(dp144
g46
F120000000000.0
sg47
F0.38
sg16
S'copper'
p145
sg18
F8933.0
sg48
F1.77e-05
sg19
F1.72e-08
sg20
F0.999991
sg21
Nsg22
F400.0
sg49
S'copper'
p146
sg23
F385.0
sbsS'isolation_thickness'
p147
F0.64
sg16
NsS'metal_thickness'
p148
F0.2
sbsbsS'ambient_temp'
p149
F300.0
sS'sublayers_thermal'
p150
(ipowercad.thermal.fast_thermal
SublayerThermalFeatures
p151
(dp152
S't_amb'
p153
F300.0
sS'sub_res'
p154
cnumpy.core.multiarray
scalar
p155
(cnumpy
dtype
p156
(S'f8'
p157
I0
I1
tp158
Rp159
(I3
S'<'
p160
NNNI-1
I-1
I0
tp161
bS'\xabU]\x1c\x07\xef\xfd?'
p162
tp163
Rp164
sg148
F0.2
sS'metal_cond'
p165
F400.0
sbsS'substrate_attach'
p166
(ipowercad.design.project_structures
SubstrateAttachInstance
p167
(dp168
g10
(ipowercad.design.library_structures
SubstrateAttach
p169
(dp170
g13
(ipowercad.design.library_structures
MaterialProperties
p171
(dp172
g46
F69000000000.0
sg47
F0.4
sg16
S'solder'
p173
sg18
F8000.0
sg48
F1.59e-06
sg19
F1.43e-07
sg20
Nsg21
Nsg22
F48.0
sg49
S'solder'
p174
sg23
F167.0
sbsbsS'thickness'
p175
F0.08
sbsS'frequency'
p176
F50.0
sS'baseplate'
p177
(ipowercad.design.project_structures
BaseplateInstance
p178
(dp179
S'baseplate_tech'
p180
(ipowercad.design.library_structures
Baseplate
p181
(dp182
g13
g143
sbsS'eff_conv_coeff'
p183
F150.0
sg50
(F54.0
F84.0
F6.0
tp184
sbsS'design_rules'
p185
(ipowercad.design.project_structures
ProcessDesignRules
p186
(dp187
S'min_trace_trace_width'
p188
F1.2
sS'signal_wire_component_dist'
p189
F0.2
sS'min_die_trace_dist'
p190
F0.1
sS'power_wire_trace_dist'
p191
F1.0
sS'power_wire_component_dist'
p192
F0.2
sS'min_die_die_dist'
p193
F0.2
sS'min_trace_width'
p194
F1.2
sS'signal_wire_trace_dist'
p195
F0.2
sbsbsS'layout_engine'
p196
S'CS'
p197
sS'tech_lib_dir'
p198
S'C:\\Users\\ialrazi\\PowerSynth\\CornerStitch_Dev\\PowerCAD-full\\tech_lib'
p199
sS'module_stack_edit'
p200
(lp201
Vcopper-Al_N-copper
p202
aV50.0
p203
aV40.0
p204
aV2.0
p205
aVsolder
p206
aV0.08
p207
aVcopper
p208
aV60.0
p209
aV60.0
p210
aV6.0
p211
aV150
p212
aV50
p213
aV300
p214
asS'layer_stack_file'
p215
VD:\u005cUI_UPDATE\u005cSample_Projects\u005cBalancing_tutorial_case\u005clayer_stack.csv
p216
sS'num_gen'
p217
I100
sS'solutions'
p218
(lp219
sS'directory'
p220
VD:\u005cUI_UPDATE\u005cSample_Projects\u005cBalancing_tutorial_case
p221
sS'symb_layout'
p222
g123
(cpowercad.sym_layout.symbolic_layout
SymbolicLayout
p223
g125
Ntp224
Rp225
(dp226
S'SymLine'
p227
cpowercad.sym_layout.symbolic_layout
SymLine
p228
sS'module'
p229
g127
sS'all_super_traces'
p230
(lp231
sS'symmetries'
p232
(lp233
sS'v_overflow'
p234
F0.0
sS'tmp_conn_dict'
p235
(dp236
c__builtin__
frozenset
p237
((lp238
g123
(g228
g125
Ntp239
Rp240
(dp241
S'num_wires'
p242
NsS'trace_connections'
p243
(lp244
g123
(g228
g125
Ntp245
Rp246
(dp247
g242
Nsg243
(lp248
g240
asS'dev_pt'
p249
NsS'land_pt2'
p250
NsS'wire'
p251
I00
sS'raw_element'
p252
g123
(cpowercad.sym_layout.svg
LayoutLine
p253
g125
Ntp254
Rp255
(dp256
S'path_id'
p257
S'T3'
p258
sS'vertical'
p259
I00
sS'pt2'
p260
(F6.0
F2.0
tp261
sS'pt1'
p262
(F1.0
F2.0
tp263
sbsS'conn_bonds'
p264
(lp265
sS'start_pt_conn'
p266
NsS'end_pts'
p267
NsS'has_rect'
p268
I01
sS'trace2'
p269
NsS'wire_sep'
p270
NsS'child_pts'
p271
(lp272
g123
(cpowercad.sym_layout.symbolic_layout
SymPoint
p273
g125
Ntp274
Rp275
(dp276
S'center_position'
p277
(F17.742412611693965
F13.442549327836687
tp278
sS'sym_bondwires'
p279
(lp280
g123
(g228
g125
Ntp281
Rp282
(dp283
g242
I2
sg243
(lp284
sg249
I1
sg250
Nsg251
I01
sg252
Nsg264
(lp285
sg266
Nsg267
(lp286
(F17.562412611693965
F19.888086612079864
tp287
a(F16.562412611693965
F19.888086612079864
tp288
asg268
I01
sg269
Nsg270
F0.1
sg271
NsS'trace'
p289
g123
(g228
g125
Ntp290
Rp291
(dp292
g242
Nsg243
(lp293
g123
(g228
g125
Ntp294
Rp295
(dp296
g242
Nsg243
(lp297
g291
asg249
Nsg250
Nsg251
I00
sg252
g123
(g253
g125
Ntp298
Rp299
(dp300
g257
S'T9'
p301
sg259
I01
sg260
(F0.0
F3.0
tp302
sg262
(F0.0
F0.0
tp303
sbsg264
(lp304
sg266
Nsg267
Nsg268
I01
sg269
Nsg270
Nsg271
(lp305
g123
(g273
g125
Ntp306
Rp307
(dp308
g277
(lp309
F7.381206305846984
aF9.444043306039932
asg279
(lp310
sg252
g123
(cpowercad.sym_layout.svg
LayoutPoint
p311
g125
Ntp312
Rp313
(dp314
g257
S'L1'
p315
sg16
NsS'pt'
p316
(F0.0
F2.0
tp317
sbsg16
g315
sS'constraint'
p318
NsS'dv_index'
p319
NsS'parent_line'
p320
g295
sS'element'
p321
g123
(g311
g125
Ntp322
Rp323
(dp324
g257
g315
sg16
Nsg316
(I0
I2
tp325
sbsS'states'
p326
(lp327
sS'tech'
p328
g109
sS'footprint_rect'
p329
(ipowercad.general.data_struct.util
Rect
p330
(dp331
S'right'
p332
F7.9812063058469835
sS'bottom'
p333
F8.844043306039932
sS'top'
p334
F10.044043306039931
sg62
F1.1999999999999993
sg60
F1.1999999999999993
sS'left'
p335
F6.781206305846984
sbsS'lumped_node'
p336
I23
sS'orientation'
p337
Nsbasg289
NsS'trace_rect'
p338
(ipowercad.general.data_struct.util
Rect
p339
(dp340
g332
F11.280531435858855
sg333
F0.0
sg334
F18.888086612079864
sg62
F18.888086612079864
sg60
F7.798650260023742
sg335
F3.4818811758351123
sbsg319
I0
sS'intersecting_trace'
p341
NsS'device'
p342
NsS'land_pt'
p343
NsS'long_contacts'
p344
(dp345
sS'super_connections'
p346
(lp347
sg16
g301
sg318
NsS'end_pt_conn'
p348
NsS'start_pts'
p349
Nsg321
g123
(g253
g125
Ntp350
Rp351
(dp352
g257
g301
sg259
I01
sg260
(I0
I3
tp353
sg262
(I0
I0
tp354
sbsg328
NsS'normal_connections'
p355
(lp356
sS'trace_line'
p357
g123
(g253
g125
Ntp358
Rp359
(dp360
g257
g301
sg262
(I0
I0
tp361
sg260
(I0
I3
tp362
sg259
I01
sbsbasg249
Nsg250
Nsg251
I00
sg252
g123
(g253
g125
Ntp363
Rp364
(dp365
g257
S'T4'
p366
sg259
I00
sg260
(F5.0
F3.0
tp367
sg262
(F0.0
F3.0
tp368
sbsg264
(lp369
g282
ag123
(g228
g125
Ntp370
Rp371
(dp372
g242
I2
sg243
(lp373
sg249
I1
sg250
Nsg251
I01
sg252
Nsg264
(lp374
sg266
Nsg267
(lp375
(F32.691774746501935
F19.888086612079864
tp376
a(F31.691774746501935
F19.888086612079864
tp377
asg268
I01
sg269
Nsg270
F0.1
sg271
Nsg289
g291
sg338
Nsg319
Nsg341
Nsg342
g123
(g273
g125
Ntp378
Rp379
(dp380
g277
(F32.871774746501934
F13.442549327836687
tp381
sg279
(lp382
g371
ag123
(g228
g125
Ntp383
Rp384
(dp385
g242
I2
sg243
(lp386
sg249
I2
sg250
Nsg251
I01
sg252
Nsg264
(lp387
sg266
Nsg267
(lp388
(F34.191774746501935
F7.79701204359351
tp389
asg268
I01
sg269
Nsg270
F0.1
sg271
Nsg289
g123
(g228
g125
Ntp390
Rp391
(dp392
g242
Nsg243
(lp393
sg249
Nsg250
Nsg251
I00
sg252
g123
(g253
g125
Ntp394
Rp395
(dp396
g257
S'T2'
p397
sg259
I00
sg260
(F6.0
F1.0
tp398
sg262
(F1.0
F1.0
tp399
sbsg264
(lp400
g123
(g228
g125
Ntp401
Rp402
(dp403
g242
I2
sg243
(lp404
sg249
I2
sg250
Nsg251
I01
sg252
Nsg264
(lp405
sg266
Nsg267
(lp406
(F19.062412611693965
F7.79701204359351
tp407
asg268
I01
sg269
Nsg270
F0.1
sg271
Nsg289
g391
sg338
Nsg319
Nsg341
Nsg342
g275
sg343
(F17.742412611693965
F7.79701204359351
tp408
sg344
(dp409
sg346
(lp410
sg318
Nsg348
Nsg349
(lp411
(F19.062412611693965
F13.992549327836688
tp412
asg321
Nsg328
(ipowercad.design.library_structures
BondWire
p413
(dp414
S'a'
p415
F0.2
sS'wire_type'
p416
I2
sg16
S'Aluminium Signal Bondwire 0.1mm'
p417
sg112
I1
sS'b'
p418
F0.125
sg13
(ipowercad.design.library_structures
MaterialProperties
p419
(dp420
g16
S'Aluminium'
p421
sg18
Nsg19
F3e-08
sg20
Nsg21
Nsg22
Nsg23
Nsbsg50
F0.1
sbsg355
(lp422
sg357
Nsbag384
asg266
Nsg267
Nsg268
I01
sg269
Nsg270
Nsg271
(lp423
g123
(g273
g125
Ntp424
Rp425
(dp426
g277
(lp427
F30.981206305846978
aF7.397012043593509
asg279
(lp428
sg252
g123
(g311
g125
Ntp429
Rp430
(dp431
g257
S'L4'
p432
sg16
Nsg316
(F4.0
F1.0
tp433
sbsg16
g432
sg318
Nsg319
Nsg320
g391
sg321
g123
(g311
g125
Ntp434
Rp435
(dp436
g257
g432
sg16
Nsg316
(I4
I1
tp437
sbsg326
(lp438
sg328
g109
sg329
(ipowercad.general.data_struct.util
Rect
p439
(dp440
g332
F31.58120630584698
sg333
F6.79701204359351
sg334
F7.997012043593509
sg62
F1.1999999999999993
sg60
F1.2000000000000028
sg335
F30.381206305846977
sbsg336
I21
sg337
Nsbasg289
Nsg338
(ipowercad.general.data_struct.util
Rect
p441
(dp442
g332
F45.99999999999999
sg333
F6.797012043593509
sg334
F7.99701204359351
sg62
F1.200000000000001
sg60
F30.03758738830603
sg335
F15.962412611693965
sbsg319
I1
sg341
Nsg342
Nsg343
Nsg344
(dp443
sg346
(lp444
sg16
g397
sg318
Nsg348
Nsg349
Nsg321
g123
(g253
g125
Ntp445
Rp446
(dp447
g257
g397
sg259
I00
sg260
(I6
I1
tp448
sg262
(I1
I1
tp449
sbsg328
Nsg355
(lp450
sg357
g123
(g253
g125
Ntp451
Rp452
(dp453
g257
g397
sg262
(I1
I1
tp454
sg260
(I3
I1
tp455
sg259
I00
sbsbsg338
Nsg319
Nsg341
Nsg342
g379
sg343
(F32.871774746501934
F7.79701204359351
tp456
sg344
(dp457
sg346
(lp458
sg318
Nsg348
Nsg349
(lp459
(F34.191774746501935
F13.992549327836688
tp460
asg321
Nsg328
(ipowercad.design.library_structures
BondWire
p461
(dp462
g415
F0.2
sg416
I2
sg16
S'Aluminium Signal Bondwire 0.1mm'
p463
sg112
I1
sg418
F0.125
sg13
(ipowercad.design.library_structures
MaterialProperties
p464
(dp465
g16
S'Aluminium'
p466
sg18
Nsg19
F3e-08
sg20
Nsg21
Nsg22
Nsg23
Nsbsg50
F0.1
sbsg355
(lp467
sg357
Nsbasg252
g123
(g311
g125
Ntp468
Rp469
(dp470
g257
S'M4'
p471
sg16
Nsg316
(F3.0
F2.0
tp472
sbsg16
g471
sg318
Nsg319
I1
sg320
g246
sg321
g123
(g311
g125
Ntp473
Rp474
(dp475
g257
g471
sg16
Nsg316
(I3
I2
tp476
sbsg326
(lp477
g155
(g159
S'\x00\x00\x00\x00\x00\x00\xf0?'
p478
tp479
Rp480
ag155
(g159
S'\x00\x00\x00\x00\x00\x00\x00\x00'
p481
tp482
Rp483
ag155
(g159
S'\x00\x00\x00\x00\x00\x00\xf0?'
p484
tp485
Rp486
asg328
g6
sg329
(ipowercad.general.data_struct.util
Rect
p487
(dp488
g332
F34.551774746501934
sg333
F11.892549327836687
sg334
F14.992549327836688
sg62
F3.1000000000000014
sg60
F3.3599999999999994
sg335
F31.191774746501935
sbsg336
I6
sg337
I4
sbsg343
(F32.871774746501934
F19.888086612079864
tp489
sg344
(dp490
sg346
(lp491
sg318
Nsg348
Nsg349
(lp492
(F32.691774746501935
F12.992549327836688
tp493
a(F31.691774746501935
F12.992549327836688
tp494
asg321
Nsg328
(ipowercad.design.library_structures
BondWire
p495
(dp496
g415
F0.4
sg416
I1
sg16
S'Aluminium Power Bondwire 0.3x0.2mm'
p497
sg112
I2
sg418
F0.25
sg13
(ipowercad.design.library_structures
MaterialProperties
p498
(dp499
g16
S'Aluminium'
p500
sg18
Nsg19
F3e-08
sg20
Nsg21
Nsg22
Nsg23
Nsbsg50
(F0.3
F0.2
tp501
sbsg355
(lp502
sg357
Nsbasg266
Nsg267
Nsg268
I01
sg269
Nsg270
Nsg271
(lp503
sg289
Nsg338
(ipowercad.general.data_struct.util
Rect
p504
(dp505
g332
F34.86238744021804
sg333
F18.888086612079864
sg334
F20.930674093112373
sg62
F2.042587481032509
sg60
F34.86238744021804
sg335
F0.0
sbsg319
I3
sg341
Nsg342
Nsg343
Nsg344
(dp506
sg346
(lp507
sg16
g366
sg318
Nsg348
Nsg349
Nsg321
g123
(g253
g125
Ntp508
Rp509
(dp510
g257
g366
sg259
I00
sg260
(I5
I3
tp511
sg262
(I0
I3
tp512
sbsg328
Nsg355
(lp513
sg357
g123
(g253
g125
Ntp514
Rp515
(dp516
g257
g366
sg262
(I0
I3
tp517
sg260
(I2
I3
tp518
sg259
I00
sbsbsg338
Nsg319
Nsg341
Nsg342
g275
sg343
(F17.742412611693965
F19.888086612079864
tp519
sg344
(dp520
sg346
(lp521
sg318
Nsg348
Nsg349
(lp522
(F17.562412611693965
F12.992549327836688
tp523
a(F16.562412611693965
F12.992549327836688
tp524
asg321
Nsg328
(ipowercad.design.library_structures
BondWire
p525
(dp526
g415
F0.4
sg416
I1
sg16
S'Aluminium Power Bondwire 0.3x0.2mm'
p527
sg112
I2
sg418
F0.25
sg13
(ipowercad.design.library_structures
MaterialProperties
p528
(dp529
g16
S'Aluminium'
p530
sg18
Nsg19
F3e-08
sg20
Nsg21
Nsg22
Nsg23
Nsbsg50
(F0.3
F0.2
tp531
sbsg355
(lp532
sg357
Nsbag402
asg252
g123
(g311
g125
Ntp533
Rp534
(dp535
g257
S'M3'
p536
sg16
Nsg316
(F2.0
F2.0
tp537
sbsg16
g536
sg318
Nsg319
I0
sg320
g246
sg321
g123
(g311
g125
Ntp538
Rp539
(dp540
g257
g536
sg16
Nsg316
(I2
I2
tp541
sbsg326
(lp542
g155
(g159
S'\x00\x00\x00\x00\x00\x00\xf0?'
p543
tp544
Rp545
ag155
(g159
S'\x00\x00\x00\x00\x00\x00\x00\x00'
p546
tp547
Rp548
ag155
(g159
S'\x00\x00\x00\x00\x00\x00\xf0?'
p549
tp550
Rp551
asg328
g6
sg329
(ipowercad.general.data_struct.util
Rect
p552
(dp553
g332
F19.422412611693964
sg333
F11.892549327836687
sg334
F14.992549327836688
sg62
F3.1000000000000014
sg60
F3.3599999999999994
sg335
F16.062412611693965
sbsg336
I1
sg337
I4
sbag379
asg289
Nsg338
(ipowercad.general.data_struct.util
Rect
p554
(dp555
g332
F45.99999999999999
sg333
F9.19701204359351
sg334
F17.688086612079864
sg62
F8.491074568486354
sg60
F30.03758738830603
sg335
F15.962412611693965
sbsg319
I2
sg341
Nsg342
Nsg343
Nsg344
(dp556
sg346
(lp557
sg16
g258
sg318
Nsg348
Nsg349
Nsg321
g123
(g253
g125
Ntp558
Rp559
(dp560
g257
g258
sg259
I00
sg260
(I6
I2
tp561
sg262
(I1
I2
tp562
sbsg328
Nsg355
(lp563
sg357
g123
(g253
g125
Ntp564
Rp565
(dp566
g257
g258
sg262
(I1
I2
tp567
sg260
(I3
I2
tp568
sg259
I00
sbsbag123
(g228
g125
Ntp569
Rp570
(dp571
g242
Nsg243
(lp572
g240
asg249
Nsg250
Nsg251
I00
sg252
g123
(g253
g125
Ntp573
Rp574
(dp575
g257
S'T5'
p576
sg259
I00
sg260
(F6.0
F4.0
tp577
sg262
(F1.0
F4.0
tp578
sbsg264
(lp579
g123
(g228
g125
Ntp580
Rp581
(dp582
g242
I2
sg243
(lp583
sg249
I1
sg250
Nsg251
I01
sg252
Nsg264
(lp584
sg266
Nsg267
(lp585
(F28.020961507512897
F25.542825201705142
tp586
a(F29.020961507512897
F25.542825201705142
tp587
asg268
I01
sg269
Nsg270
F0.1
sg271
Nsg289
g570
sg338
Nsg319
Nsg341
Nsg342
g123
(g273
g125
Ntp588
Rp589
(dp590
g277
(F27.840961507512898
F29.471412600852567
tp591
sg279
(lp592
g581
ag123
(g228
g125
Ntp593
Rp594
(dp595
g242
I2
sg243
(lp596
sg249
I2
sg250
Nsg251
I01
sg252
Nsg264
(lp597
sg266
Nsg267
(lp598
(F26.520961507512897
F32.6
tp599
asg268
I01
sg269
Nsg270
F0.1
sg271
Nsg289
g123
(g228
g125
Ntp600
Rp601
(dp602
g242
Nsg243
(lp603
sg249
Nsg250
Nsg251
I00
sg252
g123
(g253
g125
Ntp604
Rp605
(dp606
g257
S'T7'
p607
sg259
I00
sg260
(F5.0
F7.0
tp608
sg262
(F0.0
F7.0
tp609
sbsg264
(lp610
g594
ag123
(g228
g125
Ntp611
Rp612
(dp613
g242
I2
sg243
(lp614
sg249
I2
sg250
Nsg251
I01
sg252
Nsg264
(lp615
sg266
Nsg267
(lp616
(F31.762387440218042
F32.6
tp617
asg268
I01
sg269
Nsg270
F0.1
sg271
Nsg289
g601
sg338
Nsg319
Nsg341
Nsg342
g123
(g273
g125
Ntp618
Rp619
(dp620
g277
(F33.08238744021804
F29.471412600852567
tp621
sg279
(lp622
g123
(g228
g125
Ntp623
Rp624
(dp625
g242
I2
sg243
(lp626
sg249
I1
sg250
Nsg251
I01
sg252
Nsg264
(lp627
sg266
Nsg267
(lp628
(F33.26238744021804
F25.542825201705142
tp629
a(F34.26238744021804
F25.542825201705142
tp630
asg268
I01
sg269
Nsg270
F0.1
sg271
Nsg289
g570
sg338
Nsg319
Nsg341
Nsg342
g619
sg343
(F33.08238744021804
F25.542825201705142
tp631
sg344
(dp632
sg346
(lp633
sg318
Nsg348
Nsg349
(lp634
(F33.26238744021804
F29.921412600852566
tp635
a(F34.26238744021804
F29.921412600852566
tp636
asg321
Nsg328
(ipowercad.design.library_structures
BondWire
p637
(dp638
g415
F0.4
sg416
I1
sg16
S'Aluminium Power Bondwire 0.3x0.2mm'
p639
sg112
I2
sg418
F0.25
sg13
(ipowercad.design.library_structures
MaterialProperties
p640
(dp641
g16
S'Aluminium'
p642
sg18
Nsg19
F3e-08
sg20
Nsg21
Nsg22
Nsg23
Nsbsg50
(F0.3
F0.2
tp643
sbsg355
(lp644
sg357
Nsbag612
asg252
g123
(g311
g125
Ntp645
Rp646
(dp647
g257
S'M2'
p648
sg16
Nsg316
(F3.0
F6.0
tp649
sbsg16
g648
sg318
Nsg319
I3
sg320
g123
(g228
g125
Ntp650
Rp651
(dp652
g242
Nsg243
(lp653
g123
(g228
g125
Ntp654
Rp655
(dp656
g242
Nsg243
(lp657
g651
asg249
Nsg250
Nsg251
I00
sg252
g123
(g253
g125
Ntp658
Rp659
(dp660
g257
S'T10'
p661
sg259
I01
sg260
(F0.0
F6.0
tp662
sg262
(F0.0
F4.0
tp663
sbsg264
(lp664
sg266
Nsg267
Nsg268
I01
sg269
Nsg270
Nsg271
(lp665
g123
(g273
g125
Ntp666
Rp667
(dp668
g277
(lp669
F7.381206305846983
aF24.936749647408757
asg279
(lp670
sg252
g123
(g311
g125
Ntp671
Rp672
(dp673
g257
S'L2'
p674
sg16
Nsg316
(F0.0
F5.0
tp675
sbsg16
g674
sg318
Nsg319
Nsg320
g655
sg321
g123
(g311
g125
Ntp676
Rp677
(dp678
g257
g674
sg16
Nsg316
(I0
I5
tp679
sbsg326
(lp680
sg328
g109
sg329
(ipowercad.general.data_struct.util
Rect
p681
(dp682
g332
F7.981206305846983
sg333
F24.336749647408755
sg334
F25.536749647408758
sg62
F1.2000000000000028
sg60
F1.1999999999999993
sg335
F6.781206305846983
sbsg336
I24
sg337
Nsbasg289
Nsg338
(ipowercad.general.data_struct.util
Rect
p683
(dp684
g332
F14.762412611693966
sg333
F22.130674093112372
sg334
F27.74282520170514
sg62
F5.612151108592769
sg60
F14.762412611693966
sg335
F0.0
sbsg319
I1
sg341
Nsg342
Nsg343
Nsg344
(dp685
sg346
(lp686
sg16
g661
sg318
Nsg348
Nsg349
Nsg321
g123
(g253
g125
Ntp687
Rp688
(dp689
g257
g661
sg259
I01
sg260
(I0
I6
tp690
sg262
(I0
I4
tp691
sbsg328
Nsg355
(lp692
sg357
g123
(g253
g125
Ntp693
Rp694
(dp695
g257
g661
sg262
(I0
I4
tp696
sg260
(I0
I5
tp697
sg259
I01
sbsbasg249
Nsg250
Nsg251
I00
sg252
g123
(g253
g125
Ntp698
Rp699
(dp700
g257
S'T6'
p701
sg259
I00
sg260
(F5.0
F6.0
tp702
sg262
(F0.0
F6.0
tp703
sbsg264
(lp704
sg266
Nsg267
Nsg268
I01
sg269
Nsg270
Nsg271
(lp705
g589
ag619
asg289
Nsg338
(ipowercad.general.data_struct.util
Rect
p706
(dp707
g332
F34.86238744021804
sg333
F27.74282520170514
sg334
F31.199999999999996
sg62
F3.4571747982948544
sg60
F34.86238744021804
sg335
F0.0
sbsg319
I5
sg341
Nsg342
Nsg343
Nsg344
(dp708
sg346
(lp709
sg16
g701
sg318
Nsg348
Nsg349
Nsg321
g123
(g253
g125
Ntp710
Rp711
(dp712
g257
g701
sg259
I00
sg260
(I5
I6
tp713
sg262
(I0
I6
tp714
sbsg328
Nsg355
(lp715
sg357
g123
(g253
g125
Ntp716
Rp717
(dp718
g257
g701
sg262
(I0
I5
tp719
sg260
(I2
I5
tp720
sg259
I00
sbsbsg321
g123
(g311
g125
Ntp721
Rp722
(dp723
g257
g648
sg16
Nsg316
(I3
I6
tp724
sbsg326
(lp725
g155
(g159
S'\x00\x00\x00\x00\x00\x00\xf0?'
p726
tp727
Rp728
ag155
(g159
S'\x00\x00\x00\x00\x00\x00\x00\x00'
p729
tp730
Rp731
ag155
(g159
S'\x00\x00\x00\x00\x00\x00\xf0?'
p732
tp733
Rp734
asg328
g6
sg329
(ipowercad.general.data_struct.util
Rect
p735
(dp736
g332
F34.76238744021804
sg333
F27.921412600852566
sg334
F31.021412600852567
sg62
F3.1000000000000014
sg60
F3.3599999999999994
sg335
F31.402387440218043
sbsg336
I16
sg337
I3
sbsg343
(F33.08238744021804
F32.6
tp737
sg344
(dp738
sg346
(lp739
sg318
Nsg348
Nsg349
(lp740
(F31.762387440218042
F28.921412600852566
tp741
asg321
Nsg328
(ipowercad.design.library_structures
BondWire
p742
(dp743
g415
F0.2
sg416
I2
sg16
S'Aluminium Signal Bondwire 0.1mm'
p744
sg112
I1
sg418
F0.125
sg13
(ipowercad.design.library_structures
MaterialProperties
p745
(dp746
g16
S'Aluminium'
p747
sg18
Nsg19
F3e-08
sg20
Nsg21
Nsg22
Nsg23
Nsbsg50
F0.1
sbsg355
(lp748
sg357
Nsbasg266
Nsg267
Nsg268
I01
sg269
Nsg270
Nsg271
(lp749
g123
(g273
g125
Ntp750
Rp751
(dp752
g277
(lp753
F34.26238744021804
aF33.0
asg279
(lp754
sg252
g123
(g311
g125
Ntp755
Rp756
(dp757
g257
S'L5'
p758
sg16
Nsg316
(F4.0
F7.0
tp759
sbsg16
g758
sg318
Nsg319
Nsg320
g601
sg321
g123
(g311
g125
Ntp760
Rp761
(dp762
g257
g758
sg16
Nsg316
(I4
I7
tp763
sbsg326
(lp764
sg328
g109
sg329
(ipowercad.general.data_struct.util
Rect
p765
(dp766
g332
F34.86238744021804
sg333
F32.4
sg334
F33.6
sg62
F1.2000000000000028
sg60
F1.2000000000000028
sg335
F33.66238744021804
sbsg336
I22
sg337
Nsbasg289
Nsg338
(ipowercad.general.data_struct.util
Rect
p767
(dp768
g332
F34.86238744021804
sg333
F32.4
sg334
F33.6
sg62
F1.2000000000000028
sg60
F34.86238744021804
sg335
F0.0
sbsg319
I6
sg341
Nsg342
Nsg343
Nsg344
(dp769
sg346
(lp770
sg16
g607
sg318
Nsg348
Nsg349
Nsg321
g123
(g253
g125
Ntp771
Rp772
(dp773
g257
g607
sg259
I00
sg260
(I5
I7
tp774
sg262
(I0
I7
tp775
sbsg328
Nsg355
(lp776
sg357
g123
(g253
g125
Ntp777
Rp778
(dp779
g257
g607
sg262
(I0
I6
tp780
sg260
(I2
I6
tp781
sg259
I00
sbsbsg338
Nsg319
Nsg341
Nsg342
g589
sg343
(F27.840961507512898
F32.6
tp782
sg344
(dp783
sg346
(lp784
sg318
Nsg348
Nsg349
(lp785
(F26.520961507512897
F28.921412600852566
tp786
asg321
Nsg328
(ipowercad.design.library_structures
BondWire
p787
(dp788
g415
F0.2
sg416
I2
sg16
S'Aluminium Signal Bondwire 0.1mm'
p789
sg112
I1
sg418
F0.125
sg13
(ipowercad.design.library_structures
MaterialProperties
p790
(dp791
g16
S'Aluminium'
p792
sg18
Nsg19
F3e-08
sg20
Nsg21
Nsg22
Nsg23
Nsbsg50
F0.1
sbsg355
(lp793
sg357
Nsbasg252
g123
(g311
g125
Ntp794
Rp795
(dp796
g257
S'M1'
p797
sg16
Nsg316
(F2.0
F6.0
tp798
sbsg16
g797
sg318
Nsg319
I2
sg320
g651
sg321
g123
(g311
g125
Ntp799
Rp800
(dp801
g257
g797
sg16
Nsg316
(I2
I6
tp802
sbsg326
(lp803
g155
(g159
S'\x00\x00\x00\x00\x00\x00\xf0?'
p804
tp805
Rp806
ag155
(g159
S'\x00\x00\x00\x00\x00\x00\x00\x00'
p807
tp808
Rp809
ag155
(g159
S'\x00\x00\x00\x00\x00\x00\xf0?'
p810
tp811
Rp812
asg328
g6
sg329
(ipowercad.general.data_struct.util
Rect
p813
(dp814
g332
F29.520961507512897
sg333
F27.921412600852566
sg334
F31.021412600852567
sg62
F3.1000000000000014
sg60
F3.3599999999999994
sg335
F26.160961507512898
sbsg336
I11
sg337
I3
sbsg343
(F27.840961507512898
F25.542825201705142
tp815
sg344
(dp816
sg346
(lp817
sg318
Nsg348
Nsg349
(lp818
(F28.020961507512897
F29.921412600852566
tp819
a(F29.020961507512897
F29.921412600852566
tp820
asg321
Nsg328
(ipowercad.design.library_structures
BondWire
p821
(dp822
g415
F0.4
sg416
I1
sg16
S'Aluminium Power Bondwire 0.3x0.2mm'
p823
sg112
I2
sg418
F0.25
sg13
(ipowercad.design.library_structures
MaterialProperties
p824
(dp825
g16
S'Aluminium'
p826
sg18
Nsg19
F3e-08
sg20
Nsg21
Nsg22
Nsg23
Nsbsg50
(F0.3
F0.2
tp827
sbsg355
(lp828
sg357
Nsbag624
asg266
Nsg267
Nsg268
I01
sg269
Nsg270
Nsg271
(lp829
sg289
Nsg338
(ipowercad.general.data_struct.util
Rect
p830
(dp831
g332
F36.062387440218046
sg333
F22.130674093112372
sg334
F26.542825201705142
sg62
F4.41215110859277
sg60
F20.099974828524083
sg335
F15.962412611693965
sbsg319
I4
sg341
Nsg342
Nsg343
Nsg344
(dp832
sg346
(lp833
sg16
g576
sg318
Nsg348
Nsg349
Nsg321
g123
(g253
g125
Ntp834
Rp835
(dp836
g257
g576
sg259
I00
sg260
(I6
I4
tp837
sg262
(I1
I4
tp838
sbsg328
Nsg355
(lp839
sg357
g123
(g253
g125
Ntp840
Rp841
(dp842
g257
g576
sg262
(I1
I4
tp843
sg260
(I3
I4
tp844
sg259
I00
sbsbasg249
Nsg250
Nsg251
I00
sg252
g123
(g253
g125
Ntp845
Rp846
(dp847
g257
S'T11'
p848
sg259
I01
sg260
(F6.0
F8.0
tp849
sg262
(F6.0
F2.0
tp850
sbsg264
(lp851
sg266
Nsg267
Nsg268
I01
sg269
Nsg270
Nsg271
(lp852
g123
(g273
g125
Ntp853
Rp854
(dp855
g277
(lp856
F41.031193720109016
aF26.844043306039936
asg279
(lp857
sg252
g123
(g311
g125
Ntp858
Rp859
(dp860
g257
S'L3'
p861
sg16
Nsg316
(F6.0
F5.0
tp862
sbsg16
g861
sg318
Nsg319
Nsg320
g240
sg321
g123
(g311
g125
Ntp863
Rp864
(dp865
g257
g861
sg16
Nsg316
(I6
I5
tp866
sbsg326
(lp867
sg328
g109
sg329
(ipowercad.general.data_struct.util
Rect
p868
(dp869
g332
F41.63119372010902
sg333
F26.244043306039934
sg334
F27.444043306039937
sg62
F1.2000000000000028
sg60
F1.2000000000000028
sg335
F40.431193720109015
sbsg336
I25
sg337
Nsbasg289
Nsg338
(ipowercad.general.data_struct.util
Rect
p870
(dp871
g332
F45.99999999999999
sg333
F17.688086612079864
sg334
F36.00000000000001
sg62
F18.311913387920143
sg60
F9.937612559781947
sg335
F36.062387440218046
sbsg319
I4
sg341
Nsg342
Nsg343
Nsg344
(dp872
sg346
(lp873
sg16
g848
sg318
Nsg348
Nsg349
Nsg321
g123
(g253
g125
Ntp874
Rp875
(dp876
g257
g848
sg259
I01
sg260
(I6
I8
tp877
sg262
(I6
I2
tp878
sbsg328
Nsg355
(lp879
sg357
g123
(g253
g125
Ntp880
Rp881
(dp882
g257
g848
sg262
(I3
I2
tp883
sg260
(I3
I7
tp884
sg259
I01
sbsbag570
atp885
Rp886
I1
sg237
((lp887
g291
ag295
atp888
Rp889
I1
sg237
((lp890
g246
ag240
atp891
Rp892
I1
sg237
((lp893
g655
ag651
atp894
Rp895
I1
ssS'opt_dv_list'
p896
(lp897
g123
(cpowercad.opt.optimizer
DesignVar
p898
g125
Ntp899
Rp900
(dp901
S'init_values'
p902
(F7.666666666666666
F15.333333333333334
tp903
sS'constraints'
p904
(F1.2
F46.0
tp905
sbag123
(g898
g125
Ntp906
Rp907
(dp908
g902
(F7.666666666666666
F15.333333333333334
tp909
sg904
(F1.2
F46.0
tp910
sbag123
(g898
g125
Ntp911
Rp912
(dp913
g902
(F7.666666666666666
F15.333333333333334
tp914
sg904
(F0.0
F46.0
tp915
sbag123
(g898
g125
Ntp916
Rp917
(dp918
g902
(F7.666666666666666
F15.333333333333334
tp919
sg904
(F1.2
F46.0
tp920
sbag123
(g898
g125
Ntp921
Rp922
(dp923
g902
(F3.0
F6.0
tp924
sg904
(F1.2
F36.0
tp925
sbag123
(g898
g125
Ntp926
Rp927
(dp928
g902
(F3.0
F6.0
tp929
sg904
(F1.2
F36.0
tp930
sbag123
(g898
g125
Ntp931
Rp932
(dp933
g902
(F3.0
F6.0
tp934
sg904
(F1.2
F36.0
tp935
sbag123
(g898
g125
Ntp936
Rp937
(dp938
g902
(F3.0
F6.0
tp939
sg904
(F1.2
F36.0
tp940
sbag123
(g898
g125
Ntp941
Rp942
(dp943
g902
(F3.0
F6.0
tp944
sg904
(F1.2
F36.0
tp945
sbag123
(g898
g125
Ntp946
Rp947
(dp948
g902
(F3.0
F6.0
tp949
sg904
(F1.2
F36.0
tp950
sbag123
(g898
g125
Ntp951
Rp952
(dp953
g902
(F3.0
F6.0
tp954
sg904
(F1.2
F36.0
tp955
sbag123
(g898
g125
Ntp956
Rp957
(dp958
g902
(F0.0
F1.0
tp959
sg904
(F0.0
F1.0
tp960
sbag123
(g898
g125
Ntp961
Rp962
(dp963
g902
g959
sg904
g960
sbag123
(g898
g125
Ntp964
Rp965
(dp966
g902
g959
sg904
g960
sbag123
(g898
g125
Ntp967
Rp968
(dp969
g902
g959
sg904
g960
sbasS'trace_xlen'
p970
I4
sS'all_sym'
p971
(lp972
g123
(g228
g125
Ntp973
Rp974
(dp975
g242
Nsg243
(lp976
sg249
Nsg250
Nsg251
I00
sg252
g123
(g253
g125
Ntp977
Rp978
(dp979
g257
S'T1'
p980
sg259
I00
sg260
(F6.0
F0.0
tp981
sg262
(F1.0
F0.0
tp982
sbsg264
(lp983
sg266
Nsg267
Nsg268
I01
sg269
Nsg270
Nsg271
(lp984
sg289
Nsg338
(ipowercad.general.data_struct.util
Rect
p985
(dp986
g332
F45.99999999999999
sg333
F0.0
sg334
F5.597012043593509
sg62
F5.597012043593509
sg60
F30.03758738830603
sg335
F15.962412611693965
sbsg319
I0
sg341
Nsg342
Nsg343
Nsg344
(dp987
sg346
(lp988
sg16
g980
sg318
Nsg348
Nsg349
Nsg321
g123
(g253
g125
Ntp989
Rp990
(dp991
g257
g980
sg259
I00
sg260
(I6
I0
tp992
sg262
(I1
I0
tp993
sbsg328
Nsg355
(lp994
sg357
g123
(g253
g125
Ntp995
Rp996
(dp997
g257
g980
sg262
(I1
I0
tp998
sg260
(I3
I0
tp999
sg259
I00
sbsbag391
ag246
ag291
ag570
ag651
ag601
ag123
(g228
g125
Ntp1000
Rp1001
(dp1002
g242
Nsg243
(lp1003
sg249
Nsg250
Nsg251
I00
sg252
g123
(g253
g125
Ntp1004
Rp1005
(dp1006
g257
S'T8'
p1007
sg259
I00
sg260
(F5.0
F8.0
tp1008
sg262
(F0.0
F8.0
tp1009
sbsg264
(lp1010
sg266
Nsg267
Nsg268
I01
sg269
Nsg270
Nsg271
(lp1011
sg289
Nsg338
(ipowercad.general.data_struct.util
Rect
p1012
(dp1013
g332
F34.86238744021804
sg333
F34.800000000000004
sg334
F36.00000000000001
sg62
F1.2000000000000028
sg60
F34.86238744021804
sg335
F0.0
sbsg319
I7
sg341
Nsg342
Nsg343
Nsg344
(dp1014
sg346
(lp1015
sg16
g1007
sg318
Nsg348
Nsg349
Nsg321
g123
(g253
g125
Ntp1016
Rp1017
(dp1018
g257
g1007
sg259
I00
sg260
(I5
I8
tp1019
sg262
(I0
I8
tp1020
sbsg328
Nsg355
(lp1021
sg357
g123
(g253
g125
Ntp1022
Rp1023
(dp1024
g257
g1007
sg262
(I0
I7
tp1025
sg260
(I2
I7
tp1026
sg259
I00
sbsbag295
ag655
ag240
ag275
ag379
ag589
ag619
ag307
ag667
ag854
ag425
ag751
ag581
ag624
ag282
ag371
ag594
ag612
ag402
ag384
asS'v_dv_list'
p1027
(lp1028
(lp1029
g123
(cpowercad.sym_layout.symbolic_layout
RowCol
p1030
g125
Ntp1031
Rp1032
(dp1033
S'phantom'
p1034
I00
sg332
F6.797012043593509
sS'all_super'
p1035
I00
sS'phantom_constraint'
p1036
NsS'undef_width'
p1037
F5.597012043593509
sg319
I0
sS'mid'
p1038
F2.7985060217967543
sS'elements'
p1039
(dp1040
g974
I1
ssS'definable'
p1041
I01
sS'removed'
p1042
I01
sg335
F0.0
sbaa(lp1043
g123
(g1030
g125
Ntp1044
Rp1045
(dp1046
g1034
I00
sg332
F9.19701204359351
sg1035
I00
sg1036
Nsg319
I1
sg1038
F7.397012043593509
sS'max_width'
p1047
F1.200000000000001
sg1039
(dp1048
g391
I1
ssg1041
I01
sg1042
Nsg335
F6.797012043593509
sbaa(lp1049
g123
(g1030
g125
Ntp1050
Rp1051
(dp1052
g1034
I00
sg332
F18.888086612079864
sg1035
I00
sg1036
Nsg319
I2
sg1038
F13.442549327836687
sg1047
F8.491074568486354
sg1039
(dp1053
g246
I1
ssg1041
I01
sg1042
Nsg335
F9.19701204359351
sbaa(lp1054
g123
(g1030
g125
Ntp1055
Rp1056
(dp1057
g1034
I00
sg332
F22.130674093112372
sg1035
I00
sg1036
Nsg319
I3
sg1038
F19.909380352596116
sg1047
F2.04258748103251
sg1039
(dp1058
g291
I1
ssg1041
I01
sg1042
Nsg335
F18.888086612079864
sbaa(lp1059
g123
(g1030
g125
Ntp1060
Rp1061
(dp1062
g1034
I00
sg332
F27.74282520170514
sg1035
I00
sg1036
Nsg319
I4
sg1038
F24.33674964740876
sg1047
F4.412151108592768
sg1039
(dp1063
g570
I1
ssg1041
I01
sg1042
Nsg335
F22.130674093112372
sbaa(lp1064
g123
(g1030
g125
Ntp1065
Rp1066
(dp1067
g1034
I00
sg332
F32.4
sg1035
I00
sg1036
Nsg319
I5
sg1038
F29.471412600852567
sg1047
F3.4571747982948553
sg1039
(dp1068
g651
I1
ssg1041
I01
sg1042
Nsg335
F27.74282520170514
sbaa(lp1069
g123
(g1030
g125
Ntp1070
Rp1071
(dp1072
g1034
I00
sg332
F34.800000000000004
sg1035
I00
sg1036
Nsg319
I6
sg1038
F33.0
sg1047
F1.2000000000000004
sg1039
(dp1073
g601
I1
ssg1041
I01
sg1042
Nsg335
F32.4
sbaa(lp1074
g123
(g1030
g125
Ntp1075
Rp1076
(dp1077
g1034
I00
sg332
F36.00000000000001
sg1035
I00
sg1036
Nsg319
I7
sg1038
F35.400000000000006
sg1047
F1.2
sg1039
(dp1078
g1001
I1
ssg1041
I01
sg1042
Nsg335
F34.800000000000004
sbaasS'leads'
p1079
(lp1080
g425
ag751
ag307
ag667
ag854
asS'xlen'
p1081
I7
sS'seed'
p1082
NsS'vg_matrix'
p1083
(lp1084
(lp1085
(dp1086
g295
I01
sa(dp1087
g295
I00
sa(dp1088
g295
I00
sa(dp1089
g291
I01
sg295
I01
sa(dp1090
g655
I01
sa(dp1091
g655
I01
sg651
I01
sa(dp1092
g601
I01
sa(dp1093
g1001
I01
saa(lp1094
(dp1095
g974
I01
sa(dp1096
g391
I01
sa(dp1097
g246
I01
sa(dp1098
g291
I00
sa(dp1099
g570
I01
sa(dp1100
g651
I00
sa(dp1101
g601
I00
sa(dp1102
g1001
I00
saa(lp1103
(dp1104
g974
I00
sa(dp1105
g391
I00
sa(dp1106
g246
I00
sa(dp1107
g291
I01
sa(dp1108
g570
I00
sa(dp1109
g651
I01
sa(dp1110
g601
I01
sa(dp1111
g1001
I01
saa(lp1112
(dp1113
g974
I01
sa(dp1114
g391
I01
sa(dp1115
g246
I01
sg240
I01
sa(dp1116
g240
I00
sa(dp1117
g240
I00
sg570
I01
sa(dp1118
g240
I00
sa(dp1119
g240
I00
sa(dp1120
g240
I01
saasS'v_rowcol_list'
p1121
(lp1122
g1032
ag1045
ag1051
ag1056
ag1061
ag1066
ag1071
ag1076
asS'mdl_type'
p1123
(dp1124
S'E'
p1125
S'MS'
p1126
sS'T'
p1127
NssS'h_min_max_overflow'
p1128
(F0.0
F0.0
tp1129
sS'perf_measures'
p1130
(lp1131
g123
(cpowercad.sym_layout.symbolic_layout
ElectricalMeasure
p1132
g125
Ntp1133
Rp1134
(dp1135
S'disp'
p1136
(VElectrical
p1137
VInductance
p1138
tp1139
sS'sink_term'
p1140
S'Lead'
p1141
sg16
V1
p1142
sS'mdl'
p1143
g1126
sS'src_term'
p1144
g1141
sS'lines'
p1145
NsS'dev_state'
p1146
g123
(cpandas.core.frame
DataFrame
p1147
g125
Ntp1148
Rp1149
(dp1150
S'_metadata'
p1151
(lp1152
sS'_typ'
p1153
S'dataframe'
p1154
sS'_data'
p1155
g123
(cpandas.core.internals
BlockManager
p1156
g125
Ntp1157
Rp1158
((lp1159
cpandas.core.indexes.base
_new_Index
p1160
(cpandas.core.indexes.numeric
Int64Index
p1161
(dp1162
S'data'
p1163
cnumpy.core.multiarray
_reconstruct
p1164
(cnumpy
ndarray
p1165
(I0
tp1166
g418
tp1167
Rp1168
(I1
(I4
tp1169
g156
(S'i8'
p1170
I0
I1
tp1171
Rp1172
(I3
S'<'
p1173
NNNI-1
I-1
I0
tp1174
bI00
S'\x00\x00\x00\x00\x00\x00\x00\x00\x01\x00\x00\x00\x00\x00\x00\x00\x02\x00\x00\x00\x00\x00\x00\x00\x03\x00\x00\x00\x00\x00\x00\x00'
p1175
tp1176
bsg16
Nstp1177
Rp1178
ag1160
(g1161
(dp1179
g1163
g1164
(g1165
(I0
tp1180
g418
tp1181
Rp1182
(I1
(I4
tp1183
g1172
I00
S'\x00\x00\x00\x00\x00\x00\x00\x00\x01\x00\x00\x00\x00\x00\x00\x00\x02\x00\x00\x00\x00\x00\x00\x00\x03\x00\x00\x00\x00\x00\x00\x00'
p1184
tp1185
bsg16
Nstp1186
Rp1187
a(lp1188
g1164
(g1165
(I0
tp1189
g418
tp1190
Rp1191
(I1
(I3
I4
tp1192
g159
I01
S'\x00\x00\x00\x00\x00\x00\xf0?\x00\x00\x00\x00\x00\x00\x00\x00\x00\x00\x00\x00\x00\x00\xf0?\x00\x00\x00\x00\x00\x00\xf0?\x00\x00\x00\x00\x00\x00\x00\x00\x00\x00\x00\x00\x00\x00\xf0?\x00\x00\x00\x00\x00\x00\xf0?\x00\x00\x00\x00\x00\x00\x00\x00\x00\x00\x00\x00\x00\x00\xf0?\x00\x00\x00\x00\x00\x00\xf0?\x00\x00\x00\x00\x00\x00\x00\x00\x00\x00\x00\x00\x00\x00\xf0?'
p1193
tp1194
bag1164
(g1165
(I0
tp1195
g418
tp1196
Rp1197
(I1
(I1
I4
tp1198
g156
(S'O4'
p1199
I0
I1
tp1200
Rp1201
(I3
S'|'
p1202
NNNI-1
I-1
I63
tp1203
bI00
(lp1204
VM3
p1205
aVM4
p1206
aVM1
p1207
aVM2
p1208
atp1209
ba(lp1210
g1160
(g1161
(dp1211
g1163
g1164
(g1165
(I0
tp1212
g418
tp1213
Rp1214
(I1
(I3
tp1215
g1172
I00
S'\x01\x00\x00\x00\x00\x00\x00\x00\x02\x00\x00\x00\x00\x00\x00\x00\x03\x00\x00\x00\x00\x00\x00\x00'
p1216
tp1217
bsg16
Nstp1218
Rp1219
ag1160
(g1161
(dp1220
g1163
g1164
(g1165
(I0
tp1221
g418
tp1222
Rp1223
(I1
(I1
tp1224
g1172
I00
S'\x00\x00\x00\x00\x00\x00\x00\x00'
p1225
tp1226
bsg16
Nstp1227
Rp1228
a(dp1229
S'0.14.1'
p1230
(dp1231
S'axes'
p1232
g1159
sS'blocks'
p1233
(lp1234
(dp1235
S'mgr_locs'
p1236
c__builtin__
slice
p1237
(I1
I4
L1L
tp1238
Rp1239
sS'values'
p1240
g1191
sa(dp1241
g1236
g1237
(L0L
L1L
I1
tp1242
Rp1243
sg1240
g1197
sasstp1244
bsbsS'measure'
p1245
I2
sS'units'
p1246
S'nH'
p1247
sg260
g425
sg262
g751
sbag123
(cpowercad.sym_layout.symbolic_layout
ThermalMeasure
p1248
g125
Ntp1249
Rp1250
(dp1251
g1136
(VThermal
p1252
VMax
p1253
tp1254
sg16
V2
p1255
sg1143
S'RECT_FLUX_MODEL'
p1256
sS'stat_fn'
p1257
I1
sS'devices'
p1258
(lp1259
g589
ag619
ag275
ag379
asg1246
S'K'
p1260
sbasS'E_graph'
p1261
(ipowercad.sym_layout.Electrical_meshing.Lumped_Graph
E_graph
p1262
(dp1263
S'sym_layout'
p1264
g225
sg1123
g1124
sg230
g231
sS'trace_info'
p1265
(lp1266
(lp1267
F9.937612559781947
aF1.0212937405162528
aa(lp1268
F9.937612559781947
aF1.7285873991474254
aa(lp1269
F9.937612559781947
aF4.245537284243177
aa(lp1270
F4.41215110859277
aF4.96880627989097
aa(lp1271
F5.597012043593509
aF30.03758738830603
aa(lp1272
F1.200000000000001
aF1.7799999999999994
aa(lp1273
F1.200000000000001
aF13.238793694153014
aa(lp1274
F1.200000000000001
aF1.890568440654956
aa(lp1275
F1.200000000000001
aF13.128225253498059
aa(lp1276
F8.491074568486354
aF1.7799999999999994
aa(lp1277
F8.491074568486354
aF15.12936213480797
aa(lp1278
F8.491074568486354
aF8.159418973607082
aa(lp1279
F8.491074568486354
aF4.968806279890977
aa(lp1280
F2.042587481032509
aF7.381206305846984
aa(lp1281
F2.042587481032509
aF10.36120630584698
aa(lp1282
F2.042587481032509
aF15.12936213480797
aa(lp1283
F2.042587481032509
aF1.990612693716109
aa(lp1284
F4.41215110859277
aF11.878548895818932
aa(lp1285
F4.41215110859277
aF5.241425932705145
aa(lp1286
F4.41215110859277
aF2.980000000000004
aa(lp1287
F3.4571747982948544
aF7.381206305846983
aa(lp1288
F3.4571747982948544
aF20.459755201665914
aa(lp1289
F3.4571747982948544
aF5.241425932705145
aa(lp1290
F3.4571747982948544
aF1.7800000000000011
aa(lp1291
F1.2000000000000028
aF27.840961507512898
aa(lp1292
F1.2000000000000028
aF5.241425932705145
aa(lp1293
F1.2000000000000028
aF1.1799999999999997
aa(lp1294
F1.2000000000000028
aF0.6000000000000014
aa(lp1295
F1.2000000000000028
aF34.86238744021804
aa(lp1296
F7.798650260023742
aF9.444043306039932
aa(lp1297
F7.798650260023742
aF9.444043306039932
aa(lp1298
F14.762412611693966
aF2.8060755542963847
aa(lp1299
F14.762412611693966
aF2.8060755542963847
aa(lp1300
F9.937612559781947
aF6.6486630353288945
aa(lp1301
F9.937612559781947
aF2.507293658631177
aa(lp1302
F9.937612559781947
aF9.155956693960071
aasS'trace_nodes'
p1303
(lp1304
(lp1305
I27
aI30
aa(lp1306
I29
aI31
aa(lp1307
I26
aI32
aa(lp1308
I28
aI33
aa(lp1309
I35
aI34
aa(lp1310
I37
aI2
aa(lp1311
I2
aI21
aa(lp1312
I21
aI7
aa(lp1313
I7
aI36
aa(lp1314
I39
aI1
aa(lp1315
I1
aI6
aa(lp1316
I6
aI26
aa(lp1317
I26
aI38
aa(lp1318
I41
aI27
aa(lp1319
I27
aI4
aa(lp1320
I4
aI9
aa(lp1321
I9
aI40
aa(lp1322
I42
aI12
aa(lp1323
I12
aI17
aa(lp1324
I17
aI28
aa(lp1325
I44
aI29
aa(lp1326
I29
aI11
aa(lp1327
I11
aI16
aa(lp1328
I16
aI43
aa(lp1329
I46
aI14
aa(lp1330
I14
aI19
aa(lp1331
I19
aI22
aa(lp1332
I22
aI45
aa(lp1333
I48
aI47
aa(lp1334
I49
aI23
aa(lp1335
I23
aI30
aa(lp1336
I50
aI24
aa(lp1337
I24
aI31
aa(lp1338
I32
aI33
aa(lp1339
I33
aI25
aa(lp1340
I25
aI51
aasS'corner_info'
p1341
(lp1342
(lp1343
F9.937612559781947
aF2.0425874810325055
aa(lp1344
F9.937612559781947
aF3.457174798294851
aa(lp1345
F9.937612559781947
aF8.491074568486354
aa(lp1346
F4.41215110859277
aF9.93761255978194
aasS'corner_nodes'
p1347
(lp1348
(lp1349
I27
aI30
aa(lp1350
I29
aI31
aa(lp1351
I26
aI32
aa(lp1352
I28
aI33
aasg229
g127
sS'normal_trace_df'
p1353
g123
(g1147
g125
Ntp1354
Rp1355
(dp1356
g1151
g1152
sg1153
g1154
sg1155
g123
(g1156
g125
Ntp1357
Rp1358
((lp1359
g1160
(cpandas.core.indexes.base
Index
p1360
(dp1361
g1163
g1164
(g1165
(I0
tp1362
g418
tp1363
Rp1364
(I1
(I9
tp1365
g1201
I00
(lp1366
S'ID'
p1367
aS'POI_Type'
p1368
aS'Data_Type'
p1369
aS'Point'
p1370
aS'Condition'
p1371
aS'node'
p1372
aS'i'
p1373
aS'j'
p1374
aS'side'
p1375
atp1376
bsg16
Nstp1377
Rp1378
ag1160
(g1161
(dp1379
g1163
g1164
(g1165
(I0
tp1380
g418
tp1381
Rp1382
(I1
(I43
tp1383
g1172
I00
S'\x00\x00\x00\x00\x00\x00\x00\x00\x01\x00\x00\x00\x00\x00\x00\x00\x02\x00\x00\x00\x00\x00\x00\x00\x03\x00\x00\x00\x00\x00\x00\x00\x04\x00\x00\x00\x00\x00\x00\x00\x05\x00\x00\x00\x00\x00\x00\x00\x06\x00\x00\x00\x00\x00\x00\x00\x07\x00\x00\x00\x00\x00\x00\x00\x08\x00\x00\x00\x00\x00\x00\x00\t\x00\x00\x00\x00\x00\x00\x00\n\x00\x00\x00\x00\x00\x00\x00\x0b\x00\x00\x00\x00\x00\x00\x00\x0c\x00\x00\x00\x00\x00\x00\x00\r\x00\x00\x00\x00\x00\x00\x00\x0e\x00\x00\x00\x00\x00\x00\x00\x0f\x00\x00\x00\x00\x00\x00\x00\x10\x00\x00\x00\x00\x00\x00\x00\x11\x00\x00\x00\x00\x00\x00\x00\x12\x00\x00\x00\x00\x00\x00\x00\x13\x00\x00\x00\x00\x00\x00\x00\x14\x00\x00\x00\x00\x00\x00\x00\x15\x00\x00\x00\x00\x00\x00\x00\x16\x00\x00\x00\x00\x00\x00\x00\x17\x00\x00\x00\x00\x00\x00\x00\x18\x00\x00\x00\x00\x00\x00\x00\x19\x00\x00\x00\x00\x00\x00\x00\x1a\x00\x00\x00\x00\x00\x00\x00\x1b\x00\x00\x00\x00\x00\x00\x00\x1c\x00\x00\x00\x00\x00\x00\x00\x1d\x00\x00\x00\x00\x00\x00\x00\x1e\x00\x00\x00\x00\x00\x00\x00\x1f\x00\x00\x00\x00\x00\x00\x00 \x00\x00\x00\x00\x00\x00\x00!\x00\x00\x00\x00\x00\x00\x00"\x00\x00\x00\x00\x00\x00\x00#\x00\x00\x00\x00\x00\x00\x00$\x00\x00\x00\x00\x00\x00\x00%\x00\x00\x00\x00\x00\x00\x00&\x00\x00\x00\x00\x00\x00\x00\'\x00\x00\x00\x00\x00\x00\x00(\x00\x00\x00\x00\x00\x00\x00)\x00\x00\x00\x00\x00\x00\x00*\x00\x00\x00\x00\x00\x00\x00'
p1384
tp1385
bsg16
Nstp1386
Rp1387
a(lp1388
g1164
(g1165
(I0
tp1389
g418
tp1390
Rp1391
(I1
(I9
I43
tp1392
g1201
I01
(lp1393
I0
aI0
aI1
aI1
aI1
aI1
aI1
aI2
aI2
aI2
aI2
aI2
aI3
aI3
aI3
aI3
aI3
aI4
aI4
aI4
aI4
aI5
aI5
aI5
aI5
aI5
aI6
aI6
aI6
aI6
aI6
aI7
aI7
aI8
aI8
aI8
aI9
aI9
aI9
aI10
aI10
aI10
aI10
aI9
aI9
aI3
aI5
aI5
aI9
aI9
aI1
aI1
aI4
aI9
aI9
aI5
aI5
aI4
aI9
aI9
aI5
aI5
aI4
aI9
aI1
aI1
aI4
aI9
aI9
aI3
aI5
aI5
aI9
aI9
aI9
aI9
aI3
aI4
aI9
aI3
aI4
aI9
aI3
aI4
aI4
aI9
aNaNag425
ag402
ag384
aNaNag275
ag379
ag240
aNaNag282
ag371
ag295
aNaNag581
ag624
ag240
aNag589
ag619
ag655
aNaNag751
ag594
ag612
aNaNaNaNag307
ag291
aNag667
ag651
aNag854
ag246
ag570
aNa(F45.99999999999999
F2.7985060217967543
tp1394
a(F15.962412611693965
F2.7985060217967543
tp1395
a(F30.981206305846978
F7.397012043593509
tp1396
a(F17.742412611693965
F7.397012043593509
tp1397
a(F32.871774746501934
F7.397012043593509
tp1398
a(F45.99999999999999
F7.397012043593509
tp1399
a(F15.962412611693965
F7.397012043593509
tp1400
ag278
ag381
a(F41.031193720109016
F13.442549327836687
tp1401
a(F45.99999999999999
F13.442549327836687
tp1402
a(F15.962412611693965
F13.442549327836687
tp1403
a(F17.742412611693965
F19.909380352596116
tp1404
a(F32.871774746501934
F19.909380352596116
tp1405
a(F7.381206305846984
F19.909380352596116
tp1406
a(F34.86238744021804
F19.909380352596116
tp1407
a(F0.0
F19.909380352596116
tp1408
a(F27.840961507512898
F24.33674964740876
tp1409
a(F33.08238744021804
F24.33674964740876
tp1410
a(F36.062387440218046
F24.33674964740876
tp1411
a(F15.962412611693965
F24.33674964740876
tp1412
ag591
ag621
a(F7.381206305846983
F29.471412600852567
tp1413
a(F34.86238744021804
F29.471412600852567
tp1414
a(F0.0
F29.471412600852567
tp1415
a(F34.26238744021804
F33.0
tp1416
a(F27.840961507512898
F33.0
tp1417
a(F33.08238744021804
F33.0
tp1418
a(F34.86238744021804
F33.0
tp1419
a(F0.0
F33.0
tp1420
a(F34.86238744021804
F35.400000000000006
tp1421
a(F0.0
F35.400000000000006
tp1422
a(F7.381206305846984
F9.444043306039932
tp1423
a(F7.381206305846984
F18.888086612079864
tp1424
a(F7.381206305846984
F0.0
tp1425
a(F7.381206305846983
F24.936749647408757
tp1426
a(F7.381206305846983
F27.74282520170514
tp1427
a(F7.381206305846983
F22.130674093112372
tp1428
a(F41.031193720109016
F26.844043306039936
tp1429
a(F41.031193720109016
F17.688086612079864
tp1430
a(F41.031193720109016
F24.33674964740876
tp1431
a(F41.031193720109016
F36.00000000000001
tp1432
aNaNaNaNaNaNaNaNaNaI01
aNaNaNaNaI01
aNaNaNaNaI01
aNaNaNaI01
aNaNaNaNaNaNaNaNaNaNaI01
aNaNaI01
aNaNaI01
aI01
aNaFnan
aFnan
aFnan
aFnan
aFnan
aFnan
aFnan
aFnan
aFnan
aFnan
aFnan
aFnan
aFnan
aFnan
aFnan
aFnan
aFnan
aFnan
aFnan
aFnan
aFnan
aFnan
aFnan
aFnan
aFnan
aFnan
aFnan
aFnan
aFnan
aFnan
aFnan
aFnan
aFnan
aFnan
aFnan
aFnan
aFnan
aFnan
aFnan
aFnan
aFnan
aFnan
aFnan
aFnan
aFnan
aFnan
aFnan
aFnan
aFnan
aFnan
aFnan
aFnan
aFnan
aFnan
aFnan
aFnan
aFnan
aFnan
aFnan
aFnan
aFnan
aFnan
aFnan
aFnan
aFnan
aFnan
aFnan
aFnan
aFnan
aFnan
aFnan
aFnan
aFnan
aFnan
aFnan
aFnan
aFnan
aFnan
aFnan
aFnan
aFnan
aFnan
aFnan
aFnan
aFnan
aFnan
aFnan
aFnan
aFnan
aFnan
aFnan
aFnan
aFnan
aFnan
aFnan
aFnan
aFnan
aFnan
aFnan
aFnan
aFnan
aFnan
aFnan
aFnan
aFnan
aFnan
aFnan
aFnan
aFnan
aFnan
aFnan
aFnan
aFnan
aFnan
aFnan
aFnan
aFnan
aFnan
aFnan
aFnan
aFnan
aFnan
aFnan
aFnan
aFnan
aFnan
aFnan
aFnan
aFnan
aFnan
aFnan
aFnan
aFnan
aFnan
aFnan
aFnan
aFnan
aFnan
aFnan
aFnan
aFnan
aFnan
aFnan
aFnan
aFnan
aFnan
aFnan
aFnan
aFnan
aFnan
aFnan
aFnan
aFnan
aFnan
aFnan
aFnan
aFnan
aFnan
aFnan
aFnan
aFnan
aFnan
aFnan
aFnan
aFnan
aFnan
aFnan
aFnan
aFnan
aFnan
aFnan
aFnan
atp1433
ba(lp1434
g1160
(g1360
(dp1435
g1163
g1164
(g1165
(I0
tp1436
g418
tp1437
Rp1438
(I1
(I9
tp1439
g1201
I00
(lp1440
g1367
ag1368
ag1369
ag1370
ag1371
ag1372
ag1373
ag1374
ag1375
atp1441
bsg16
Nstp1442
Rp1443
a(dp1444
g1230
(dp1445
g1232
g1359
sg1233
(lp1446
(dp1447
g1236
g1237
(I0
I9
L1L
tp1448
Rp1449
sg1240
g1391
sasstp1450
bsbsS'all_trace_lines'
p1451
(lp1452
g974
ag391
ag246
ag291
ag570
ag651
ag601
ag1001
ag295
ag655
ag240
asS'boundary_connections'
p1453
(dp1454
sS'super_traces'
p1455
g231
sbsS'layout'
p1456
(lp1457
g990
ag446
ag559
ag509
ag835
ag711
ag772
ag1017
ag351
ag688
ag875
ag539
ag474
ag800
ag722
ag323
ag677
ag864
ag435
ag761
asg1303
g1304
sS'raw_layout'
p1458
(lp1459
g978
ag395
ag255
ag364
ag574
ag699
ag605
ag1005
ag299
ag659
ag846
ag534
ag469
ag795
ag646
ag313
ag672
ag859
ag430
ag756
asS'all_lines'
p1460
(lp1461
g990
ag446
ag559
ag509
ag835
ag711
ag772
ag1017
ag351
ag688
ag875
asS'sub_dim'
p1462
(F46.0
F36.0
tp1463
sS'temp_dir'
p1464
S'C:\\Users\\ialrazi\\PowerSynth\\CornerStitch_Dev\\PowerCAD-full\\export_data\\temp'
p1465
sS'trace_trace_connections'
p1466
(lp1467
(lp1468
g295
ag291
a(I0
I3
tp1469
aI00
aa(lp1470
g655
ag651
a(I0
I5
tp1471
aI00
aa(lp1472
g240
ag246
a(I3
I2
tp1473
aI00
aa(lp1474
g240
ag570
a(I3
I4
tp1475
aI00
aasS'h_dv_list'
p1476
(lp1477
(lp1478
g295
aa(lp1479
g655
aa(lp1480
g123
(g1030
g125
Ntp1481
Rp1482
(dp1483
g1034
I01
sg332
F22.6718070777143
sg1035
I01
sg1036
Nsg1037
F6.709394466020335
sg319
I2
sg1038
F19.31710984470413
sg1039
(dp1484
sg1041
I01
sg1042
I01
sg335
F15.962412611693965
sbaa(lp1485
g123
(g1030
g125
Ntp1486
Rp1487
(dp1488
g1034
I01
sg332
F36.062387440218046
sg1035
I01
sg1036
Nsg319
I3
sg1038
F29.367097258966172
sg1039
(dp1489
sg1041
I01
sg1042
Nsg335
F22.6718070777143
sbaa(lp1490
g123
(g1030
g125
Ntp1491
Rp1492
(dp1493
g1034
I00
sg332
F45.99999999999999
sg1035
I00
sg1036
Nsg319
I4
sg1038
F41.031193720109016
sg1047
F9.937612559781947
sg1039
(dp1494
g240
I1
ssg1041
I01
sg1042
Nsg335
F36.062387440218046
sbaasS'h_overflow'
p1495
F0.0
sS'eval_count'
p1496
I809
sS'fixed_constraints'
p1497
(lp1498
sS'trace_rects'
p1499
(lp1500
g985
ag441
ag554
ag504
ag830
ag706
ag767
ag1012
ag339
ag683
ag870
asg185
g186
sS'bondwire_dv_list'
p1501
(lp1502
sS'h_design_values'
p1503
(lp1504
F7.7986502600237415
aF14.762412611693966
aNaF13.39058036250375
aF9.937612559781947
asS'eval_total'
p1505
I3000
sS'lumped_graph'
p1506
g123
(cnetworkx.classes.graph
Graph
p1507
g125
Ntp1508
Rp1509
(dp1510
g1372
(dp1511
I1
(dp1512
S'obj'
p1513
g275
sS'type'
p1514
S'deviceD'
p1515
sS'point'
p1516
g278
ssI2
(dp1517
g1514
S'bw_spine'
p1518
sg1516
g1397
ssI3
(dp1519
g1514
S'bw_land'
p1520
sg1516
g408
ssI4
(dp1521
g1514
g1518
sg1516
g1404
ssI5
(dp1522
g1514
g1520
sg1516
g519
ssI6
(dp1523
g1513
g379
sg1514
g1515
sg1516
g381
ssI7
(dp1524
g1514
g1518
sg1516
g1398
ssI8
(dp1525
g1514
g1520
sg1516
g456
ssI9
(dp1526
g1514
g1518
sg1516
g1405
ssI10
(dp1527
g1514
g1520
sg1516
g489
ssI11
(dp1528
g1513
g589
sg1514
g1515
sg1516
g591
ssI12
(dp1529
g1514
g1518
sg1516
g1409
ssI13
(dp1530
g1514
g1520
sg1516
g815
ssI14
(dp1531
g1514
g1518
sg1516
g1417
ssI15
(dp1532
g1514
g1520
sg1516
g782
ssI16
(dp1533
g1513
g619
sg1514
g1515
sg1516
g621
ssI17
(dp1534
g1514
g1518
sg1516
g1410
ssI18
(dp1535
g1514
g1520
sg1516
g631
ssI19
(dp1536
g1514
g1518
sg1516
g1418
ssI20
(dp1537
g1514
g1520
sg1516
g737
ssI21
(dp1538
g1513
g425
sg1514
S'lead'
p1539
sg1516
g1396
ssI22
(dp1540
g1513
g751
sg1514
g1539
sg1516
g1416
ssI23
(dp1541
g1513
g307
sg1514
g1539
sg1516
g1423
ssI16001
(dp1542
g1513
g619
sg1516
(lp1543
F35.08238744021804
aF31.471412600852567
asg1514
S'deviceS'
p1544
ssI25
(dp1545
g1513
g854
sg1514
g1539
sg1516
g1429
ssI26
(dp1546
g1514
S'trace-to-trace'
p1547
sg1516
g1401
ssI27
(dp1548
g1514
g1547
sg1516
g1406
ssI28
(dp1549
g1514
g1547
sg1516
g1411
ssI29
(dp1550
g1514
g1547
sg1516
g1413
ssI30
(dp1551
g1514
g1547
sg1516
g1424
ssI31
(dp1552
g1514
g1547
sg1516
g1427
ssI32
(dp1553
g1514
g1547
sg1516
g1430
ssI33
(dp1554
g1514
g1547
sg1516
g1431
ssI34
(dp1555
g1514
S'end_pt'
p1556
sg1516
g1394
ssI35
(dp1557
g1514
g1556
sg1516
g1395
ssI36
(dp1558
g1514
g1556
sg1516
g1399
ssI37
(dp1559
g1514
g1556
sg1516
g1400
ssI38
(dp1560
g1514
g1556
sg1516
g1402
ssI39
(dp1561
g1514
g1556
sg1516
g1403
ssI40
(dp1562
g1514
g1556
sg1516
g1407
ssI41
(dp1563
g1514
g1556
sg1516
g1408
ssI42
(dp1564
g1514
g1556
sg1516
g1412
ssI43
(dp1565
g1514
g1556
sg1516
g1414
ssI44
(dp1566
g1514
g1556
sg1516
g1415
ssI45
(dp1567
g1514
g1556
sg1516
g1419
ssI46
(dp1568
g1514
g1556
sg1516
g1420
ssI47
(dp1569
g1514
g1556
sg1516
g1421
ssI48
(dp1570
g1514
g1556
sg1516
g1422
ssI49
(dp1571
g1514
g1556
sg1516
g1425
ssI50
(dp1572
g1514
g1556
sg1516
g1428
ssI51
(dp1573
g1514
g1556
sg1516
g1432
ssI16002
(dp1574
g1513
g619
sg1516
(lp1575
F31.082387440218042
aF27.471412600852567
asg1514
S'deviceG'
p1576
ssI24
(dp1577
g1513
g667
sg1514
g1539
sg1516
g1426
ssI1001
(dp1578
g1513
g275
sg1516
(lp1579
F19.742412611693965
aF15.442549327836687
asg1514
g1544
ssI1002
(dp1580
g1513
g275
sg1516
(lp1581
F15.742412611693965
aF11.442549327836687
asg1514
g1576
ssI6001
(dp1582
g1513
g379
sg1516
(lp1583
F34.871774746501934
aF15.442549327836687
asg1514
g1544
ssI6002
(dp1584
g1513
g379
sg1516
(lp1585
F30.871774746501934
aF11.442549327836687
asg1514
g1576
ssI11001
(dp1586
g1513
g589
sg1516
(lp1587
F29.840961507512898
aF31.471412600852567
asg1514
g1544
ssI11002
(dp1588
g1513
g589
sg1516
(lp1589
F25.840961507512898
aF27.471412600852567
asg1514
g1576
sssS'graph'
p1590
(dp1591
sS'edge'
p1592
(dp1593
I1
(dp1594
I1001
(dp1595
S'ind'
p1596
F10000000.0
sS'res'
p1597
F10000000.0
sS'cap'
p1598
F10000000.0
sg1514
S'Drain_to_Source'
p1599
sg1513
NssI1002
(dp1600
g1596
F10000000.0
sg1597
F10000000.0
sg1598
F10000000.0
sg1514
g1599
sg1513
NssI6
(dp1601
g60
F8.491074568486354
sS'length'
p1602
F15.12936213480797
sg1596
F0.29396902001336606
sg1597
F5.266433250941881
sg1598
F0.06064603787011562
sg1514
g289
ssI39
(dp1603
g60
F8.491074568486354
sg1602
F1.7799999999999994
sg1596
F5.271283883436282
sg1597
F44.76279540016504
sg1598
F0.45214522255151224
sg1514
g289
sssI2
(dp1604
I3
(dp1605
g60
F0.1
sg1602
F0.40000000000000036
sg1596
F1000.0
sg1597
F1000.0
sg1598
F1000.0
sg1514
S'trace_bw'
p1606
ssI37
(dp1607
g60
F1.200000000000001
sg1602
F1.7799999999999994
sg1596
F1.8686629242122315
sg1597
F7.221159479164581
sg1598
F2.9010016695562792
sg1514
g289
ssI21
(dp1608
g60
F1.200000000000001
sg1602
F13.238793694153014
sg1596
F0.15536955186387297
sg1597
F0.97090899441917
sg1598
F0.42662240247384464
sg1514
g289
sssI3
(dp1609
I2
g1605
sI1002
(dp1610
g1596
F0.23094688221709006
sg1597
F0.047328050636211455
sg1598
F1000.0
sg1514
S'bw signal'
p1611
sg1513
g402
sssI4
(dp1612
I9
(dp1613
g60
F2.042587481032509
sg1602
F15.12936213480797
sg1596
F0.15813673499631004
sg1597
F1.4019074886179057
sg1598
F0.23334194977256778
sg1514
g289
ssI27
(dp1614
g60
F2.042587481032509
sg1602
F10.36120630584698
sg1596
F0.2528987516789276
sg1597
F2.047055665982674
sg1598
F0.33845450656162435
sg1514
g289
ssI5
(dp1615
g60
F0.5527906391541367
sg1602
F0.021293740516252768
sg1596
F1000.0
sg1597
F1000.0
sg1598
F1000.0
sg1514
g1606
sssI5
(dp1616
I1001
(dp1617
g1596
F0.4618937644341801
sg1597
F0.6392864293751788
sg1598
F1000.0
sg1514
S'bw power'
p1618
sg1513
g282
ssI4
g1615
ssI6
(dp1619
I6001
(dp1620
g1596
F10000000.0
sg1597
F10000000.0
sg1598
F10000000.0
sg1514
g1599
sg1513
NssI6002
(dp1621
g1596
F10000000.0
sg1597
F10000000.0
sg1598
F10000000.0
sg1514
g1599
sg1513
NssI26
(dp1622
g60
F8.491074568486354
sg1602
F8.159418973607082
sg1596
F0.7043533653962389
sg1597
F9.765128628646716
sg1598
F0.11068544447234983
sg1514
g289
ssI1
g1601
ssI7
(dp1623
I8
(dp1624
g60
F0.1
sg1602
F0.40000000000000036
sg1596
F1000.0
sg1597
F1000.0
sg1598
F1000.0
sg1514
g1606
ssI36
(dp1625
g60
F1.200000000000001
sg1602
F13.128225253498059
sg1596
F0.1569424580816035
sg1597
F0.9790861768987431
sg1598
F0.43016272927372734
sg1514
g289
ssI21
(dp1626
g60
F1.200000000000001
sg1602
F1.890568440654956
sg1596
F1.7305700253589444
sg1597
F6.798835522960495
sg1598
F2.747252267351409
sg1514
g289
sssI8
(dp1627
I6002
(dp1628
g1596
F0.23094688221709006
sg1597
F0.047328050636211455
sg1598
F1000.0
sg1514
g1611
sg1513
g384
ssI7
g1624
ssI9
(dp1629
I40
(dp1630
g60
F2.042587481032509
sg1602
F1.990612693716109
sg1596
F2.120609553592714
sg1597
F10.654993882915695
sg1598
F1.6178645292017357
sg1514
g289
ssI10
(dp1631
g60
F0.5527906391541367
sg1602
F0.021293740516252768
sg1596
F1000.0
sg1597
F1000.0
sg1598
F1000.0
sg1514
g1606
ssI4
g1613
ssI10
(dp1632
I9
g1631
sI6001
(dp1633
g1596
F0.4618937644341801
sg1597
F0.6392864293751788
sg1598
F1000.0
sg1514
g1618
sg1513
g371
sssI11
(dp1634
I16
(dp1635
g60
F3.4571747982948544
sg1602
F5.241425932705145
sg1596
F0.7787719735537904
sg1597
F6.550184321349601
sg1598
F0.4016241588785653
sg1514
g289
ssI11001
(dp1636
g1596
F10000000.0
sg1597
F10000000.0
sg1598
F10000000.0
sg1514
g1599
sg1513
NssI11002
(dp1637
g1596
F10000000.0
sg1597
F10000000.0
sg1598
F10000000.0
sg1514
g1599
sg1513
NssI29
(dp1638
g60
F3.4571747982948544
sg1602
F20.459755201665914
sg1596
F0.13222756043476644
sg1597
F1.6780408967515397
sg1598
F0.10649047477979054
sg1514
g289
sssI12
(dp1639
I17
(dp1640
g60
F4.41215110859277
sg1602
F5.241425932705145
sg1596
F0.8918027771816485
sg1597
F8.161989631185001
sg1598
F0.3184799787133477
sg1514
g289
ssI42
(dp1641
g60
F4.41215110859277
sg1602
F11.878548895818932
sg1596
F0.2955707349004094
sg1597
F3.6014890783857982
sg1598
F0.14435451693621537
sg1514
g289
ssI13
(dp1642
g60
F0.5527906391541367
sg1602
F1.2060755542963832
sg1596
F1000.0
sg1597
F1000.0
sg1598
F1000.0
sg1514
g1606
sssI13
(dp1643
I11001
(dp1644
g1596
F0.4618937644341801
sg1597
F0.9956876082790503
sg1598
F1000.0
sg1514
g1618
sg1513
g581
ssI12
g1642
ssI14
(dp1645
I19
(dp1646
g60
F1.2000000000000028
sg1602
F5.241425932705145
sg1596
F0.48045628309430044
sg1597
F2.452321951686739
sg1598
F1.0541358602969304
sg1514
g289
ssI46
(dp1647
g60
F1.2000000000000028
sg1602
F27.840961507512898
sg1596
F0.06422349780939599
sg1597
F0.46168175152443636
sg1598
F0.20442702184516473
sg1514
g289
ssI15
(dp1648
g60
F0.1
sg1602
F0.3999999999999986
sg1596
F1000.0
sg1597
F1000.0
sg1598
F1000.0
sg1514
g1606
sssI15
(dp1649
I11002
(dp1650
g1596
F0.23094688221709006
sg1597
F0.07936610502374343
sg1598
F1000.0
sg1514
g1611
sg1513
g594
ssI14
g1648
ssI16
(dp1651
I16001
(dp1652
g1596
F10000000.0
sg1597
F10000000.0
sg1598
F10000000.0
sg1514
g1599
sg1513
NssI16002
(dp1653
g1596
F10000000.0
sg1597
F10000000.0
sg1598
F10000000.0
sg1514
g1599
sg1513
NssI11
g1635
sI43
(dp1654
g60
F3.4571747982948544
sg1602
F1.7800000000000011
sg1596
F3.3612490405644095
sg1597
F19.28781234040473
sg1598
F1.0865595865378632
sg1514
g289
sssI17
(dp1655
I28
(dp1656
g60
F4.41215110859277
sg1602
F2.980000000000004
sg1596
F1.9475148082849194
sg1597
F14.355860441397155
sg1598
F0.5407065958170658
sg1514
g289
ssI18
(dp1657
g60
F0.5527906391541367
sg1602
F1.2060755542963832
sg1596
F1000.0
sg1597
F1000.0
sg1598
F1000.0
sg1514
g1606
ssI12
g1640
ssI18
(dp1658
I17
g1657
sI16001
(dp1659
g1596
F0.4618937644341801
sg1597
F0.9956876082790503
sg1598
F1000.0
sg1514
g1618
sg1513
g624
sssI19
(dp1660
I20
(dp1661
g60
F0.1
sg1602
F0.3999999999999986
sg1596
F1000.0
sg1597
F1000.0
sg1598
F1000.0
sg1514
g1606
ssI22
(dp1662
g60
F1.2000000000000028
sg1602
F1.1799999999999997
sg1596
F3.157220728616301
sg1597
F10.892935485519466
sg1598
F4.166268889707024
sg1514
g289
ssI14
g1646
ssI20
(dp1663
I16002
(dp1664
g1596
F0.23094688221709006
sg1597
F0.07936610502374343
sg1598
F1000.0
sg1514
g1611
sg1513
g612
ssI19
g1661
ssI21
(dp1665
I2
g1608
sI7
g1626
ssI22
(dp1666
I19
g1662
sI45
(dp1667
g60
F1.2000000000000028
sg1602
F0.6000000000000014
sg1596
F7.365786803746717
sg1597
F21.42277312152156
sg1598
F7.2032187877950005
sg1514
g289
sssI23
(dp1668
I49
(dp1669
g60
F7.798650260023742
sg1602
F9.444043306039932
sg1596
F0.5436604781675413
sg1597
F7.726499446611678
sg1598
F0.1043579749748604
sg1514
g289
ssI30
(dp1670
g60
F7.798650260023742
sg1602
F9.444043306039932
sg1596
F0.5436604781675413
sg1597
F7.726499446611678
sg1598
F0.1043579749748604
sg1514
g289
sssI16001
(dp1671
I16
g1652
sI18
g1659
ssI25
(dp1672
I33
(dp1673
g60
F9.937612559781947
sg1602
F2.507293658631177
sg1596
F3.9022416593281988
sg1597
F37.84275650176188
sg1598
F0.28652214251455654
sg1514
g289
ssI51
(dp1674
g60
F9.937612559781947
sg1602
F9.155956693960071
sg1596
F0.6560384905846551
sg1597
F10.362969875620196
sg1598
F0.08492576856612781
sg1514
g289
sssI26
(dp1675
I32
(dp1676
g60
F9.937612559781947
sg1602
F4.245537284243177
sg1596
F1.9946550321504957
sg1597
F22.34885646962477
sg1598
F0.17679882541291647
sg1514
g289
ssI38
(dp1677
g60
F8.491074568486354
sg1602
F4.968806279890977
sg1596
F1.4416553631232958
sg1597
F16.035597148303793
sg1598
F0.17786697392023026
sg1514
g289
ssI6
g1622
ssI27
(dp1678
I41
(dp1679
g60
F2.042587481032509
sg1602
F7.381206305846984
sg1596
F0.38746082520202946
sg1597
F2.8735094503452796
sg1598
F0.47107798325176475
sg1514
g289
ssI4
g1614
sI30
(dp1680
g60
F9.937612559781947
sg1602
F1.0212937405162528
sg1596
F6.841134296145762
sg1597
F92.90461660327912
sg1598
F0.6103379853211343
sg1514
g289
sssI28
(dp1681
I33
(dp1682
g60
F4.41215110859277
sg1602
F4.96880627989097
sg1596
F0.9598846855624249
sg1597
F8.609807206309984
sg1598
F0.3350819731600822
sg1514
g289
ssI17
g1656
ssI29
(dp1683
I11
g1638
sI44
(dp1684
g60
F3.4571747982948544
sg1602
F7.381206305846983
sg1596
F0.49314516121861013
sg1597
F4.6513136936335595
sg1598
F0.2890043812122071
sg1514
g289
ssI31
(dp1685
g60
F9.937612559781947
sg1602
F1.7285873991474254
sg1596
F5.483826856263642
sg1597
F54.89042871004932
sg1598
F0.39685836535228025
sg1514
g289
sssI30
(dp1686
I27
g1680
sI23
g1670
ssI31
(dp1687
I24
(dp1688
g60
F14.762412611693966
sg1602
F2.8060755542963847
sg1596
F3.8021575290472467
sg1597
F58.05359291788423
sg1598
F0.17515489288076797
sg1514
g289
ssI29
g1685
ssI32
(dp1689
I33
(dp1690
g60
F9.937612559781947
sg1602
F6.6486630353288945
sg1596
F1.046218325414519
sg1597
F14.270974915981384
sg1598
F0.11559803399373453
sg1514
g289
ssI26
g1676
ssI33
(dp1691
I32
g1690
sI25
g1673
sI28
g1682
ssI34
(dp1692
I35
(dp1693
g60
F5.597012043593509
sg1602
F30.03758738830603
sg1596
F0.0978678446284494
sg1597
F1.7681105617411887
sg1598
F0.046094312145188436
sg1514
g289
sssI35
(dp1694
I34
g1693
ssI36
(dp1695
I7
g1625
ssI37
(dp1696
I2
g1607
ssI38
(dp1697
I26
g1677
ssI39
(dp1698
I1
g1603
ssI40
(dp1699
I9
g1630
ssI41
(dp1700
I27
g1679
ssI42
(dp1701
I12
g1641
ssI43
(dp1702
I16
g1654
ssI44
(dp1703
I29
g1684
ssI45
(dp1704
I22
g1667
ssI46
(dp1705
I14
g1647
ssI47
(dp1706
I48
(dp1707
g60
F1.2000000000000028
sg1602
F34.86238744021804
sg1596
F0.04932496325826727
sg1597
F0.3686971781538027
sg1598
F0.1634843984826093
sg1514
g289
sssI48
(dp1708
I47
g1707
ssI49
(dp1709
I23
g1669
ssI50
(dp1710
I24
(dp1711
g60
F14.762412611693966
sg1602
F2.8060755542963847
sg1596
F3.8021575290472467
sg1597
F58.05359291788423
sg1598
F0.17515489288076797
sg1514
g289
sssI51
(dp1712
I25
g1674
ssI16002
(dp1713
I16
g1653
sI20
g1664
ssI24
(dp1714
I50
g1711
sI31
g1688
ssI1001
(dp1715
I1
g1595
sI5
g1617
ssI1002
(dp1716
I1
g1600
sI3
g1610
ssI6001
(dp1717
I10
g1633
sI6
g1620
ssI6002
(dp1718
I8
g1628
sI6
g1621
ssI11001
(dp1719
I11
g1636
sI13
g1644
ssI11002
(dp1720
I11
g1637
sI15
g1650
sssS'adj'
p1721
g1593
sbsS'count'
p1722
I809
sS'dev_design_values'
p1723
(lp1724
F0.0
aF0.5714025946899504
aF0.8325550745062071
aF1.0
asS'removed_horiz_dv_index'
p1725
I2
sS'v_min_max_overflow'
p1726
(F0.0
F0.0
tp1727
sg1341
g1342
sS'cost_funcs'
p1728
(lp1729
sS'gap'
p1730
F1.2
sg1451
g1452
sS'v_design_values'
p1731
(lp1732
NaF1.200000000000001
aF8.491074568486354
aF2.04258748103251
aF4.412151108592768
aF3.4571747982948553
aF1.2000000000000004
aF1.2
asS'opt_to_sym_index'
p1733
(lp1734
(I1
I0
tp1735
a(I1
I1
tp1736
a(I1
I3
tp1737
a(I1
I4
tp1738
a(I2
I1
tp1739
a(I2
I2
tp1740
a(I2
I3
tp1741
a(I2
I4
tp1742
a(I2
I5
tp1743
a(I2
I6
tp1744
a(I2
I7
tp1745
a(I3
I0
tp1746
a(I3
I1
tp1747
a(I3
I2
tp1748
a(I3
I3
tp1749
asS'trace_graph'
p1750
g123
(g1507
g125
Ntp1751
Rp1752
(dp1753
g1372
(dp1754
g391
(dp1755
sg246
(dp1756
sg291
(dp1757
sg570
(dp1758
sg974
(dp1759
sg601
(dp1760
sg1001
(dp1761
sg295
(dp1762
sg655
(dp1763
sg240
(dp1764
sg651
(dp1765
ssg1590
(dp1766
sg1592
(dp1767
g391
(dp1768
sg246
(dp1769
g240
(dp1770
ssg291
(dp1771
g295
(dp1772
ssg570
(dp1773
g240
(dp1774
ssg974
(dp1775
sg601
(dp1776
sg1001
(dp1777
sg295
(dp1778
g291
g1772
ssg655
(dp1779
g651
(dp1780
ssg240
(dp1781
g246
g1770
sg570
g1774
ssg651
(dp1782
g655
g1780
sssg1721
g1767
sbsS'trace_layout'
p1783
(lp1784
g996
ag452
ag565
ag515
ag841
ag717
ag778
ag1023
ag359
ag694
ag881
asS'layout_ready'
p1785
I01
sS'removed_vert_dv_index'
p1786
I0
sg1453
g1454
sS'ylen'
p1787
I9
sS'trace_graph_components'
p1788
(lp1789
(lp1790
(lp1791
g391
aa(lp1792
aa(lp1793
(lp1794
g246
ag570
ag240
aa(lp1795
g275
ag379
aaa(lp1796
(lp1797
g291
ag295
aa(lp1798
aa(lp1799
(lp1800
g974
aa(lp1801
aa(lp1802
(lp1803
g601
aa(lp1804
aa(lp1805
(lp1806
g1001
aa(lp1807
aa(lp1808
(lp1809
g651
ag655
aa(lp1810
g589
ag619
aaasS'bondwire_design_values'
p1811
(lp1812
sS'h_rowcol_list'
p1813
(lp1814
g123
(g1030
g125
Ntp1815
Rp1816
(dp1817
g1034
I00
sg332
F15.962412611693965
sg1035
I00
sg1036
Nsg319
Nsg1038
F7.381206305846983
sg1047
F14.762412611693966
sg1039
(dp1818
g295
I1
sg655
I1
ssg1041
I00
sg1042
Nsg335
F0.0
sbag1482
ag1487
ag1492
asS'h_design_var_dict'
p1819
Nsg1265
g1266
sS'algorithm'
p1820
S'NSGAII'
p1821
sS'symbol_graph'
p1822
g123
(g1507
g125
Ntp1823
Rp1824
(dp1825
g1372
(dp1826
g619
(dp1827
sg307
(dp1828
sg667
(dp1829
sg612
(dp1830
sg425
(dp1831
sg751
(dp1832
sg402
(dp1833
sg379
(dp1834
sg651
(dp1835
sg371
(dp1836
sg384
(dp1837
sg854
(dp1838
sg624
(dp1839
sg282
(dp1840
sg594
(dp1841
sg391
(dp1842
sg246
(dp1843
sg291
(dp1844
sg570
(dp1845
sg974
(dp1846
sg601
(dp1847
sg1001
(dp1848
sg295
(dp1849
sg655
(dp1850
sg240
(dp1851
sg275
(dp1852
sg581
(dp1853
sg589
(dp1854
ssg1590
(dp1855
sg1592
(dp1856
g619
(dp1857
g612
(dp1858
sg624
(dp1859
sg651
(dp1860
ssg307
(dp1861
g295
(dp1862
ssg667
(dp1863
g655
(dp1864
ssg612
(dp1865
g601
(dp1866
sg619
g1858
ssg425
(dp1867
g391
(dp1868
ssg751
(dp1869
g601
(dp1870
ssg402
(dp1871
g275
(dp1872
sg391
(dp1873
ssg379
(dp1874
g246
(dp1875
sg371
(dp1876
sg384
(dp1877
ssg651
(dp1878
g619
g1860
sg589
(dp1879
sg655
(dp1880
ssg371
(dp1881
g291
(dp1882
sg379
g1876
ssg384
(dp1883
g379
g1877
sg391
(dp1884
ssg854
(dp1885
g240
(dp1886
ssg624
(dp1887
g619
g1859
sg570
(dp1888
ssg282
(dp1889
g275
(dp1890
sg291
(dp1891
ssg594
(dp1892
g601
(dp1893
sg589
(dp1894
ssg391
(dp1895
g402
g1873
sg425
g1868
sg384
g1884
ssg246
(dp1896
g240
(dp1897
sg275
(dp1898
sg379
g1875
ssg291
(dp1899
g371
g1882
sg295
(dp1900
sg282
g1891
ssg570
(dp1901
g240
(dp1902
sg581
(dp1903
sg624
g1888
ssg974
(dp1904
sg601
(dp1905
g612
g1866
sg594
g1893
sg751
g1870
ssg1001
(dp1906
sg295
(dp1907
g291
g1900
sg307
g1862
ssg655
(dp1908
g667
g1864
sg651
g1880
ssg240
(dp1909
g246
g1897
sg570
g1902
sg854
g1886
ssg275
(dp1910
g246
g1898
sg282
g1890
sg402
g1872
ssg581
(dp1911
g570
g1903
sg589
(dp1912
ssg589
(dp1913
g594
g1894
sg581
g1912
sg651
g1879
sssg1721
g1856
sbsg1347
g1348
sg1258
(lp1914
g275
ag379
ag589
ag619
asS'SymPoint'
p1915
g273
sS'trial'
p1916
I2729
sS'trace_ylen'
p1917
I8
sS'points'
p1918
(lp1919
g275
ag379
ag589
ag619
ag307
ag667
ag854
ag425
ag751
asS'mode'
p1920
I7
sS'all_points'
p1921
(lp1922
g539
ag474
ag800
ag722
ag323
ag677
ag864
ag435
ag761
asS'solution_lib'
p1923
(ipowercad.sol_browser.solution_lib
SolutionLibrary
p1924
(dp1925
S'measure_data'
p1926
(lp1927
(lp1928
F11.03658456695257
aF11.238157653120318
aF11.238157712605815
aF11.238157782471536
aF11.238157958268856
aF11.238158107063358
aF11.238159320191858
aF11.238159320191858
aF11.395320378415477
aF11.674415613696844
aF11.753379114782469
aF11.828952253775832
aF11.929645865655374
aF11.945321122997806
aF11.970620746552477
aF11.9858844364072
aF12.077411537714575
aF12.1217128179403
aF12.13929814884432
aF12.149029135959303
aF12.150702608951782
aF12.165412653365706
aF12.19092358010915
aF12.208516558413724
aF12.22847082130462
aF12.24632431109372
aF12.252804452485119
aF12.256958285691267
aF12.276009345891621
aF12.276980497822422
aF12.289126494377735
aF12.297723608110704
aF12.305769358482339
aF12.32716177279699
aF12.351498825495542
aF12.358975000486545
aF12.368394818826713
aF12.368718093339705
aF12.395260988617235
aF12.433469250501663
aF12.479762919256233
aF12.482800617709291
aF12.503148951060204
aF12.535229675821503
aF12.540257609201253
aF12.549212837271467
aF12.55572047624182
aF12.572546144342084
aF12.588277478297897
aF12.60513670542554
aF12.619056847624401
aF12.619786256191286
aF12.623192135732758
aF12.62352136873396
aF12.649138220451839
aF12.649620012825293
aF12.649620012825293
aF12.649620012825293
aF14.276624591436306
aF14.276624591436306
aF14.311372064473218
aF16.627962058414933
aF16.78789374276306
aa(lp1929
F324.2523421508239
aF324.25047125220635
aF324.2494386324763
aF324.24851483885146
aF324.24810697816923
aF324.247527956212
aF324.24602111788596
aF324.24602111788596
aF324.23712496416897
aF324.21897803180724
aF324.2047549957972
aF324.19217233610436
aF324.19142812853653
aF324.19050879762676
aF324.1890669274599
aF324.1887141994023
aF324.1858507098979
aF324.18567777232533
aF324.1839233096778
aF324.1835250659339
aF324.1834546824038
aF324.1834065950537
aF324.18169114925445
aF324.1812145732971
aF324.1808424721124
aF324.1764762902515
aF324.17540977800303
aF324.175020547363
aF324.17408437486114
aF324.1722692028325
aF324.17121124528467
aF324.17094671502537
aF324.1691187758863
aF324.1657048135784
aF324.1645112267269
aF324.1641365791477
aF324.16317103216676
aF324.1630919634813
aF324.1622907434505
aF324.15662980561507
aF324.15226908639994
aF324.1491927590088
aF324.1487844017803
aF324.14366533980893
aF324.1434511555806
aF324.14279064862575
aF324.1422858100568
aF324.1407542173296
aF324.13962439808563
aF324.1394615718395
aF324.13927156220706
aF324.1390737961676
aF324.1390322169157
aF324.1387686770279
aF324.13868567323755
aF324.1385404793974
aF324.1385404793974
aF324.1385404793974
aF324.1296121498137
aF324.1296121498137
aF324.1227839936612
aF324.1197540074697
aF324.09950343407485
aasS'individuals'
p1930
(lp1931
(lp1932
F5.945076398799088
aF24.074834665308092
aF10.626935212205666
aF7.101483546638362
aF3.6488979035556195
aF6.504717349491864
aF2.2763669971403164
aF6.906285201544239
aF3.5610360298113983
aF1.2
aF1.2
aF0.0
aF0.5714025946899153
aF0.8250123674059695
aF1.0
aa(lp1933
F12.334542596267529
aF24.074834665308096
aF9.97370275213368
aF7.101483546638363
aF1.2000000000000004
aF7.662732818797988
aF2.2763669971403164
aF5.931673892496098
aF3.7950974364876178
aF1.2000000000000002
aF1.2000000000000002
aF0.0
aF0.5714025946899142
aF0.8250123674059693
aF1.0
aa(lp1934
F12.334542596267529
aF24.074834665308096
aF9.785528583446787
aF7.101483546638363
aF1.2000000000000006
aF7.662732818797988
aF2.2763669971403164
aF5.931673892496101
aF3.7540985501587354
aF1.2000000000000002
aF1.2000000000000006
aF0.0
aF0.5714025946899142
aF0.8250123674059693
aF1.0
aa(lp1935
F12.334542596267525
aF24.074834665308096
aF12.933698849917553
aF7.101483546638367
aF1.2000000000000002
aF7.662732818797989
aF2.2763669971403133
aF5.931673892496098
aF3.711170021979849
aF1.2
aF1.2
aF0.0
aF0.5714025946899145
aF0.8250123674059695
aF1.0
aa(lp1936
F12.33454259626753
aF24.074834665308092
aF10.434028741416313
aF7.101483546638363
aF1.2000000000000002
aF7.662732818797988
aF2.2763669971403164
aF5.931673892496099
aF3.6894353888992812
aF1.2
aF1.2
aF0.0
aF0.571402594689914
aF0.8250123674059693
aF1.0
aa(lp1937
F12.33454259626753
aF24.074834665308096
aF9.85827682764152
aF7.101483546638363
aF1.2000000000000004
aF7.6627328187979895
aF2.276366997140316
aF5.931673892496099
aF3.654141373437825
aF1.2
aF1.2000000000000004
aF0.0
aF0.5714025946899143
aF0.8250123674059693
aF1.0
aa(lp1938
F12.334542596267525
aF24.074834665308096
aF10.626935212205664
aF7.101483546638363
aF1.2000000000000002
aF7.662732818797989
aF2.2763669971403155
aF5.931673892496098
aF3.4126485834822473
aF1.2
aF1.2
aF0.0
aF0.5714025946899153
aF0.8250123674059695
aF1.0
aa(lp1939
F12.334542596267525
aF24.074834665308096
aF10.626935212205664
aF7.101483546638363
aF1.2000000000000002
aF7.662732818797989
aF2.276366997140315
aF5.931673892496098
aF3.4126485834822473
aF1.2
aF1.2
aF0.0
aF0.5714025946899152
aF0.8250123674059694
aF1.0
aa(lp1940
F12.334542596267527
aF24.074834665308096
aF10.626935212205664
aF7.101483546638364
aF5.974846520720506
aF3.4837959205879496
aF2.276366997140316
aF2.9036033074615077
aF3.412648583482247
aF1.2
aF1.2
aF0.0
aF0.5714025946899154
aF0.8250123674059694
aF1.0
aa(lp1941
F14.679821351133562
aF19.60547264132878
aF11.357552382262181
aF7.213603928149696
aF5.193531431996435
aF5.5771898172694145
aF2.3532134990831532
aF6.04720569241747
aF3.4538469052114102
aF1.2
aF1.2
aF0.0
aF0.5714025946899153
aF0.828695790699265
aF1.0
aa(lp1942
F16.521242026300854
aF20.84043508827668
aF7.945493189502658
aF5.699867589333207
aF4.673882415917072
aF7.563472930446702
aF2.2740292731016662
aF3.4359291466522786
aF3.5061839770544467
aF1.2000000000000002
aF1.2
aF0.0
aF0.5714025946898801
aF0.8359730058940584
aF1.0
aa(lp1943
F12.334542596267525
aF21.218550544839026
aF10.626935212205664
aF7.101483546638363
aF3.495501888216017
aF5.900217169105515
aF3.3159170912505567
aF3.8412610192966317
aF3.4126485834822473
aF1.2
aF1.2
aF0.0
aF0.5714025946899152
aF0.8250123674059694
aF1.0
aa(lp1944
F16.91350706720555
aF12.464991989875083
aF13.390580362503757
aF9.937612559781906
aF1.2
aF7.580567787285277
aF2.0425874810325055
aF4.396417498175698
aF3.4571747982948553
aF1.2000000000000002
aF1.2000000000000002
aF0.0
aF0.5714025946899117
aF0.8325550745062062
aF1.0
aa(lp1945
F16.82784426465369
aF11.529851298387849
aF13.390580362503732
aF9.937612559781893
aF1.2
aF7.557975031617125
aF2.0425874810325078
aF4.383895695301828
aF3.4571747982948553
aF1.2000000000000002
aF1.2000000000000006
aF0.0
aF0.5714025946899148
aF0.8325550745062034
aF1.0
aa(lp1946
F16.618111815277043
aF13.03184946824399
aF13.390580362503751
aF9.937612559781892
aF1.2000000000000002
aF7.660803042313493
aF2.042587481032508
aF4.410078143235035
aF3.4571747982948553
aF1.2
aF1.2
aF0.0
aF0.571402594689913
aF0.8325550745062058
aF1.0
aa(lp1947
F16.62575075896173
aF12.28720920011478
aF13.390580362503743
aF9.937612559781895
aF1.2
aF7.636920064889435
aF2.0425874810325064
aF4.293138043286605
aF3.4571747982948544
aF1.2
aF1.2000000000000002
aF0.0
aF0.5714025946899126
aF0.8325550745062058
aF1.0
aa(lp1948
F16.03679586187033
aF12.352856930590509
aF13.390580362503744
aF9.937612559781902
aF1.2
aF7.770182871022413
aF2.0425874810325073
aF4.254638514234721
aF3.4571747982948553
aF1.2
aF1.2000000000000002
aF0.0
aF0.571402594689916
aF0.8325550745062058
aF1.0
aa(lp1949
F7.967184988525149
aF15.907490973701998
aF13.390580362503748
aF9.937612559781856
aF1.2000000000000015
aF7.11241717394924
aF2.0425874810325215
aF4.300811153707293
aF3.4571747982948544
aF1.2
aF1.2
aF0.0
aF0.5714025946899441
aF0.8325550745062038
aF1.0
aa(lp1950
F15.558738766695487
aF12.953501073549035
aF13.390580362503748
aF9.937612559781897
aF1.2
aF7.59209827408322
aF2.042587481032507
aF4.400731527888222
aF3.4571747982948553
aF1.2
aF1.2
aF0.0
aF0.5714025946899126
aF0.8325550745062055
aF1.0
aa(lp1951
F15.483576435392905
aF12.761460260459435
aF13.390580362503743
aF9.937612559781895
aF1.2
aF7.617189588528412
aF2.0425874810325073
aF4.407847584379748
aF3.4571747982948553
aF1.2
aF1.2
aF0.0
aF0.571402594689913
aF0.8325550745062058
aF1.0
aa(lp1952
F6.980130726381973
aF15.441991833607169
aF13.39058036250374
aF9.93761255978193
aF1.2000000000000013
aF7.813677408363365
aF2.042587481032511
aF4.381136735452553
aF3.4571747982948544
aF1.2000000000000002
aF1.2
aF0.0
aF0.5714025946899073
aF0.8325550745062057
aF1.0
aa(lp1953
F11.778398104398317
aF15.41288847904773
aF13.39058036250374
aF9.937612559781961
aF1.2
aF8.303009147733551
aF2.04258748103251
aF4.189171633517263
aF3.457174798294856
aF1.2
aF1.2000000000000002
aF0.0
aF0.571402594689933
aF0.8325550745062076
aF1.0
aa(lp1954
F15.260982741542401
aF12.853949934787002
aF13.390580362503748
aF9.9376125597819
aF1.2
aF7.464615147950499
aF2.042587481032507
aF4.411085694418826
aF3.4571747982948553
aF1.2
aF1.2
aF0.0
aF0.5714025946899137
aF0.8325550745062056
aF1.0
aa(lp1955
F15.21374569923497
aF12.646440826231025
aF13.390580362503743
aF9.937612559781892
aF1.2000000000000006
aF7.7520429506518935
aF2.042587481032509
aF4.23681864426728
aF3.457174798294854
aF1.2000000000000002
aF1.2
aF0.0
aF0.5714025946899153
aF0.8325550745062056
aF1.0
aa(lp1956
F7.7986502600237415
aF14.762412611693966
aF13.39058036250375
aF9.937612559781947
aF1.200000000000001
aF8.491074568486354
aF2.04258748103251
aF4.412151108592768
aF3.4571747982948553
aF1.2000000000000004
aF1.2
aF0.0
aF0.5714025946899504
aF0.8325550745062071
aF1.0
aa(lp1957
F14.77597055656628
aF7.605981031414019
aF13.39058036250374
aF9.937612559781895
aF1.2000000000000002
aF8.111844270824339
aF2.042587481032506
aF4.352070275461683
aF3.457174798294856
aF1.2
aF1.2
aF0.0
aF0.5714025946899131
aF0.8325550745062058
aF1.0
aa(lp1958
F14.899576379769758
aF6.771563818022079
aF13.066330867058143
aF9.934265462855787
aF1.2
aF6.9020770902008
aF2.0447175493513963
aF4.899534030866497
aF3.366676495628248
aF1.2
aF1.2
aF0.0
aF0.5714025946899115
aF0.8265757947875172
aF1.0
aa(lp1959
F11.183344764135695
aF14.667697945438237
aF13.390580362503748
aF9.937612559781837
aF1.2000000000000015
aF8.44695984393265
aF2.0425874810325095
aF4.315176424638812
aF3.4571747982948544
aF1.2
aF1.2
aF0.0
aF0.5714025946899244
aF0.8325550745062058
aF1.0
aa(lp1960
F10.010344194344922
aF14.637152020913266
aF13.390580362503734
aF9.937612559781964
aF1.2
aF8.189521540250189
aF2.042587481032508
aF4.270984825301954
aF3.457174798294854
aF1.2
aF1.2
aF0.0
aF0.5714025946899052
aF0.8325550745062058
aF1.0
aa(lp1961
F14.530794738649336
aF11.96941144883277
aF13.390580362503743
aF9.937612559781906
aF1.200000000000001
aF7.769399712094337
aF2.0425874810325078
aF4.524482291479685
aF3.4571747982948544
aF1.2
aF1.2000000000000002
aF0.0
aF0.5714025946899155
aF0.8325550745062051
aF1.0
aa(lp1962
F14.475970775018894
aF1.4575733727293674
aF13.390580362503743
aF9.937612559781892
aF1.2
aF7.9292904684185785
aF2.0425874810325055
aF4.43707876105978
aF3.457174798294856
aF1.2
aF1.2
aF0.0
aF0.571402594689914
aF0.8325550745062058
aF1.0
aa(lp1963
F14.472761604825784
aF12.322201420222797
aF13.39058036250374
aF9.937612559781904
aF1.2
aF7.823461363631299
aF2.042587481032507
aF4.410802311220507
aF3.457174798294855
aF1.2
aF1.2000000000000002
aF0.0
aF0.5714025946899206
aF0.8325550745062054
aF1.0
aa(lp1964
F14.372930067339128
aF11.660971084074887
aF13.390580362503737
aF9.937612559781913
aF1.2000000000000004
aF7.800211325450388
aF2.0425874810325073
aF4.47993059788708
aF3.457174798294855
aF1.2
aF1.2
aF0.0
aF0.5714025946899142
aF0.8325550745062054
aF1.0
aa(lp1965
F14.207065670893567
aF13.409072762505572
aF13.390580362503737
aF9.937612559781916
aF1.2000000000000002
aF7.560236553458351
aF2.042587481032509
aF4.62544474086366
aF3.4571747982948553
aF1.2
aF1.2000000000000002
aF0.0
aF0.5714025946899121
aF0.8325550745062058
aF1.0
aa(lp1966
F10.573227269228024
aF14.124924528082655
aF13.390580362503735
aF9.937612559781893
aF1.2
aF8.196555121461946
aF2.0425874810325073
aF4.295413640674483
aF3.4571747982948535
aF1.2
aF1.2
aF0.0
aF0.571402594689902
aF0.8325550745062058
aF1.0
aa(lp1967
F14.156974911053165
aF12.346981168358724
aF13.390580362503744
aF9.937612559781897
aF1.2
aF7.707944330690948
aF2.0425874810325073
aF4.366039892270164
aF3.4571747982948553
aF1.2
aF1.2
aF0.0
aF0.5714025946899123
aF0.8325550745062058
aF1.0
aa(lp1968
F14.116951581705456
aF11.411162295597181
aF13.390580362503739
aF9.937612559781899
aF1.2
aF7.283071234058264
aF2.0425874810325086
aF4.538728479582741
aF3.457174798294856
aF1.2000000000000002
aF1.2000000000000002
aF0.0
aF0.5714025946899127
aF0.832555074506206
aF1.0
aa(lp1969
F8.132755714262203
aF14.10359007273129
aF13.390580362503744
aF9.93761255978187
aF1.2000000000000006
aF8.068585528707104
aF2.0425874810325046
aF4.233138341586308
aF3.4571747982948575
aF1.2000000000000002
aF1.2
aF0.0
aF0.5714025946899426
aF0.8325550745062046
aF1.0
aa(lp1970
F11.885620795542895
aF14.083093937213409
aF13.390580362503734
aF9.937612559781911
aF1.2
aF7.377276513038636
aF2.0425874810325073
aF4.32352286641588
aF3.4571747982948553
aF1.2
aF1.2
aF0.0
aF0.5714025946899101
aF0.8325550745062056
aF1.0
aa(lp1971
F9.721080530749798
aF13.816410932167155
aF13.390580362503737
aF9.937612559781856
aF1.2000000000000002
aF8.435082683955018
aF2.0425874810325135
aF4.007640768105825
aF3.4571747982948544
aF1.2000000000000002
aF1.2000000000000002
aF0.0
aF0.5714025946899375
aF0.8325550745062065
aF1.0
aa(lp1972
F13.399931981246223
aF12.348358868860963
aF13.390580362503744
aF9.937612559781899
aF1.2000000000000006
aF7.711458004529798
aF2.0425874810325086
aF4.3604844347332685
aF3.4571747982948553
aF1.2
aF1.2
aF0.0
aF0.5714025946899115
aF0.8325550745062058
aF1.0
aa(lp1973
F13.447142032513726
aF12.320854253600094
aF13.390580362503748
aF9.937612559781895
aF1.2000000000000013
aF7.683062829805051
aF2.0425874810325086
aF4.294366539344659
aF3.4571747982948544
aF1.2
aF1.2
aF0.0
aF0.5714025946899131
aF0.8325550745062056
aF1.0
aa(lp1974
F12.249671593958311
aF13.281098847483003
aF13.39058036250374
aF9.937612559781886
aF1.2
aF7.514773943977055
aF2.0425874810325073
aF4.418321662384136
aF3.4571747982948557
aF1.2
aF1.2
aF0.0
aF0.5714025946899128
aF0.8325550745062062
aF1.0
aa(lp1975
F13.142869549701576
aF12.362044658805942
aF13.390580362503744
aF9.937612559781897
aF1.2
aF7.529684418083773
aF2.0425874810325078
aF4.33633397636868
aF3.457174798294856
aF1.2
aF1.2000000000000002
aF0.0
aF0.57140259468991
aF0.8325550745062067
aF1.0
aa(lp1976
F12.09600442302008
aF13.129343393067247
aF13.390580362503746
aF9.937612559781895
aF1.2000000000000008
aF7.5426986546729005
aF2.0425874810325113
aF4.3091524370889855
aF3.4571747982948553
aF1.2
aF1.2
aF0.0
aF0.571402594689912
aF0.8325550745062055
aF1.0
aa(lp1977
F13.08123828234126
aF12.336729949002697
aF13.390580362503744
aF9.937612559781897
aF1.2
aF7.373834761783417
aF2.0425874810325078
aF4.384972793095674
aF3.457174798294856
aF1.2
aF1.2000000000000002
aF0.0
aF0.5714025946899123
aF0.8325550745062078
aF1.0
aa(lp1978
F10.39396863844151
aF13.041560779173501
aF13.390580362503746
aF9.937612559781895
aF1.2
aF7.613387623425178
aF2.042587481032508
aF4.267094675140673
aF3.4571747982948553
aF1.2
aF1.2000000000000002
aF0.0
aF0.571402594689916
aF0.8325550745062072
aF1.0
aa(lp1979
F8.71707419902469
aF12.894059695215562
aF13.390580362503743
aF9.937612559781893
aF1.2000000000000006
aF7.741204092715996
aF2.0425874810325086
aF4.260017102897333
aF3.4571747982948544
aF1.2
aF1.2
aF0.0
aF0.5714025946899156
aF0.8325550745062058
aF1.0
aa(lp1980
F7.73366444744957
aF12.704817109496274
aF13.390580362503743
aF9.9376125597819
aF1.200000000000001
aF7.755351370481155
aF2.0425874810325086
aF4.36044059645706
aF3.4571747982948544
aF1.2
aF1.2000000000000002
aF0.0
aF0.5714025946899198
aF0.8325550745062055
aF1.0
aa(lp1981
F8.740886739120857
aF12.730489773981049
aF13.39058036250374
aF9.937612559782057
aF1.200000000000001
aF7.066170431839847
aF2.042587481032508
aF4.588299507102959
aF3.457174798294851
aF1.2
aF1.2
aF0.0
aF0.571402594689844
aF0.8325550745062059
aF1.0
aa(lp1982
F12.423165019361019
aF11.511641373869095
aF13.390580362503743
aF9.937612559781893
aF1.2000000000000002
aF7.766180785694029
aF2.0425874810325064
aF4.467206204480295
aF3.4571747982948553
aF1.2000000000000002
aF1.2
aF0.0
aF0.5714025946899128
aF0.8325550745062059
aF1.0
aa(lp1983
F12.626050343879557
aF12.502614304939403
aF13.390580362503743
aF9.937612559781893
aF1.2000000000000002
aF7.286472572710284
aF2.0425874810325064
aF4.463610100494899
aF3.4571747982948553
aF1.2
aF1.2
aF0.0
aF0.5714025946899133
aF0.8325550745062059
aF1.0
aa(lp1984
F12.450605677585848
aF11.275582102349482
aF13.390580362503744
aF9.937612559781893
aF1.2
aF7.753470422911995
aF2.042587481032507
aF4.406123543904341
aF3.4571747982948553
aF1.2
aF1.2
aF0.0
aF0.5714025946899131
aF0.8325550745062058
aF1.0
aa(lp1985
F10.465823217874863
aF12.558456050017169
aF13.39058036250375
aF9.937612559781897
aF1.2
aF7.502672598346727
aF2.042587481032507
aF4.39706210806149
aF3.4571747982948553
aF1.2
aF1.2
aF0.0
aF0.5714025946899136
aF0.832555074506204
aF1.0
aa(lp1986
F11.215480881592534
aF12.376040843586583
aF13.390580362503743
aF9.937612559781902
aF1.2
aF7.742171642458208
aF2.0425874810325073
aF4.306468940630428
aF3.457174798294855
aF1.2
aF1.2
aF0.0
aF0.5714025946899136
aF0.8325550745062057
aF1.0
aa(lp1987
F8.717074199024688
aF12.413502124535615
aF13.390580362503744
aF9.937612559781893
aF1.2000000000000006
aF7.741204092715996
aF2.0425874810325086
aF4.260017102897333
aF3.4571747982948553
aF1.2
aF1.2
aF0.0
aF0.5714025946899155
aF0.8325550745062058
aF1.0
aa(lp1988
F8.71707419902469
aF12.413502124535615
aF13.390580362503744
aF9.937612559781893
aF1.2000000000000006
aF7.741204092715996
aF2.0425874810325086
aF4.260017102897333
aF3.457174798294855
aF1.2
aF1.2
aF0.0
aF0.5714025946899155
aF0.8325550745062058
aF1.0
aa(lp1989
F8.71707419902469
aF12.413502124535615
aF13.390580362503743
aF9.937612559781893
aF1.2000000000000006
aF7.741204092715996
aF2.0425874810325086
aF4.260017102897333
aF3.457174798294855
aF1.2
aF1.2
aF0.0
aF0.5714025946899155
aF0.8325550745062058
aF1.0
aa(lp1990
F6.060522631182947
aF10.208213582725175
aF9.44611304989274
aF3.337206684307265
aF4.574087341995031
aF7.518515861730645
aF2.4305141218033395
aF2.9952692484541976
aF3.698502912127535
aF1.2596813365517359
aF1.2
aF0.0
aF0.5714025946899153
aF0.8347911409876727
aF1.0
aa(lp1991
F6.060522631182948
aF10.208213582725175
aF9.44611304989274
aF3.337206684307265
aF4.574087341995031
aF7.518515861730645
aF2.4305141218033395
aF2.995269248454198
aF3.698502912127535
aF1.2596813365517356
aF1.2
aF0.0
aF0.5714025946899153
aF0.8347911409876727
aF1.0
aa(lp1992
F4.708779382630915
aF13.095411286370446
aF9.446113049892737
aF3.337206684307265
aF1.2000000000000006
aF12.666962706811287
aF2.4305141218033395
aF3.200874182463867
aF3.6985029121275357
aF1.2000000000000004
aF1.2000000000000002
aF0.0
aF0.5714025946899155
aF0.8347911409876727
aF1.0
aa(lp1993
F10.07040021757167
aF12.614561511614056
aF11.684488245502555
aF1.2
aF1.200000000000001
aF3.8851672005822837
aF2.4453120181840555
aF5.04516548675202
aF3.408406735978007
aF1.2
aF1.2000000000000002
aF0.0
aF0.5714025946899097
aF0.8363332478707188
aF1.0
aa(lp1994
F10.381758972047095
aF8.342234113816835
aF9.701830414619687
aF1.2
aF3.7640350167680907
aF3.8623701519112563
aF2.7350565812436045
aF4.502396173455481
aF3.4029592217390725
aF1.2
aF1.2000000000000004
aF0.0
aF0.5714025946899041
aF0.8449077040067691
aF1.0
aasS'measure_names_units'
p1995
(lp1996
(g1142
g1247
tp1997
a(g1255
g1260
tp1998
asbsS'dev_dv_list'
p1999
(lp2000
(lp2001
g275
aa(lp2002
g379
aa(lp2003
g589
aa(lp2004
g619
aasS'tol_constraints'
p2005
(lp2006
sS'bondwires'
p2007
(lp2008
g581
ag624
ag282
ag371
ag594
ag612
ag402
ag384
asS'v_design_var_dict'
p2009
NsbsS'tbl_bondwire_connect'
p2010
g123
(g1147
g125
Ntp2011
Rp2012
(dp2013
g1151
g1152
sg1153
g1154
sg1155
g123
(g1156
g125
Ntp2014
Rp2015
((lp2016
g1160
(g1360
(dp2017
g1163
g1164
(g1165
(I0
tp2018
g418
tp2019
Rp2020
(I1
(I9
tp2021
g1201
I00
(lp2022
S'bw_type'
p2023
aS'start'
p2024
aS'stop'
p2025
ag1513
aI0
aI1
aI2
aI3
aI4
atp2026
bsg16
Nstp2027
Rp2028
ag1160
(g1161
(dp2029
g1163
g1164
(g1165
(I0
tp2030
g418
tp2031
Rp2032
(I1
(I8
tp2033
g1172
I00
S'\x00\x00\x00\x00\x00\x00\x00\x00\x01\x00\x00\x00\x00\x00\x00\x00\x02\x00\x00\x00\x00\x00\x00\x00\x03\x00\x00\x00\x00\x00\x00\x00\x04\x00\x00\x00\x00\x00\x00\x00\x05\x00\x00\x00\x00\x00\x00\x00\x06\x00\x00\x00\x00\x00\x00\x00\x07\x00\x00\x00\x00\x00\x00\x00'
p2034
tp2035
bsg16
Nstp2036
Rp2037
a(lp2038
g1164
(g1165
(I0
tp2039
g418
tp2040
Rp2041
(I1
(I9
I8
tp2042
g1201
I01
(lp2043
Fnan
aFnan
aFnan
aFnan
aFnan
aFnan
aFnan
aFnan
aFnan
aFnan
aFnan
aFnan
aFnan
aFnan
aFnan
aFnan
aFnan
aFnan
aFnan
aFnan
aFnan
aFnan
aFnan
aFnan
aFnan
aFnan
aFnan
aFnan
aFnan
aFnan
aFnan
aFnan
aVPOWER
p2044
aVPOWER
p2045
aVPOWER
p2046
aVPOWER
p2047
aVSIGNAL
p2048
aVSIGNAL
p2049
aVSIGNAL
p2050
aVSIGNAL
p2051
aVM1
p2052
aVM2
p2053
aVM3
p2054
aVM4
p2055
aVM1
p2056
aVM2
p2057
aVM3
p2058
aVM4
p2059
aVT5
p2060
aVT5
p2061
aVT4
p2062
aVT4
p2063
aVT7
p2064
aVT7
p2065
aVT2
p2066
aVT2
p2067
aV Aluminium Power Bondwire 0.3x0.2mm.p
p2068
aV Aluminium Power Bondwire 0.3x0.2mm.p
p2069
aV Aluminium Power Bondwire 0.3x0.2mm.p
p2070
aV Aluminium Power Bondwire 0.3x0.2mm.p
p2071
aV Aluminium Signal Bondwire 0.1mm.p
p2072
aV Aluminium Signal Bondwire 0.1mm.p
p2073
aV Aluminium Signal Bondwire 0.1mm.p
p2074
aV Aluminium Signal Bondwire 0.1mm.p
p2075
ag821
ag637
ag525
ag495
ag787
ag742
ag413
ag461
atp2076
ba(lp2077
g1160
(g1360
(dp2078
g1163
g1164
(g1165
(I0
tp2079
g418
tp2080
Rp2081
(I1
(I9
tp2082
g1201
I00
(lp2083
g2023
ag2024
ag2025
ag1513
aI0
aI1
aI2
aI3
aI4
atp2084
bsg16
Nstp2085
Rp2086
a(dp2087
g1230
(dp2088
g1232
g2016
sg1233
(lp2089
(dp2090
g1236
g1237
(I0
I9
L1L
tp2091
Rp2092
sg1240
g2041
sasstp2093
bsbsb.