(ipowercad.project_builder.project
Project
p0
(dp1
S'deviceTable'
p2
(lp3
(lp4
V  CPM2-1200-0080B-MOS.p
p5
a(ipowercad.design.project_structures
DeviceInstance
p6
(dp7
S'attach_thickness'
p8
F0.1
sS'heat_flow'
p9
F2.0
sS'attach_tech'
p10
(ipowercad.design.library_structures
DieAttach
p11
(dp12
S'properties'
p13
(ipowercad.design.library_structures
MaterialProperties
p14
(dp15
S'name'
p16
S'Pb-Sn Solder Alloy'
p17
sS'density'
p18
F11020.0
sS'electrical_res'
p19
NsS'rel_permeab'
p20
NsS'rel_permit'
p21
NsS'thermal_cond'
p22
F35.8
sS'spec_heat_cap'
p23
F130.0
sbsbsS'device_tech'
p24
(ipowercad.design.library_structures
Device
p25
(dp26
g16
S'CPM2-1200-0080B-MOS'
p27
sS'wire_landings'
p28
(lp29
(ipowercad.design.library_structures
BondwireLanding
p30
(dp31
S'position'
p32
(F1.0
F3.0
tp33
sS'bond_type'
p34
I2
sba(ipowercad.design.library_structures
BondwireLanding
p35
(dp36
g32
(F2.0
F1.5
tp37
sg34
I1
sba(ipowercad.design.library_structures
BondwireLanding
p38
(dp39
g32
(F2.0
F0.5
tp40
sg34
I1
sbasS'device_model'
p41
NsS'power_side'
p42
I1
sS'device_type'
p43
I1
sg13
(ipowercad.design.library_structures
MaterialProperties
p44
(dp45
S'young_mdl'
p46
NsS'poi_rat'
p47
Nsg16
Nsg18
F3100.0
sS'expansion_coeff'
p48
Nsg19
Nsg20
Nsg21
Nsg22
F370.0
sS'id'
p49
Nsg23
F750.0
sbsS'dimensions'
p50
(F3.1
F3.36
F0.22
tp51
sbsS'thermal_features'
p52
(ipowercad.thermal.fast_thermal
DieThermalFeatures
p53
(dp54
S'eff_power'
p55
F1.7675844898006803
sS'iso_top_temps'
p56
(lp57
(ipowercad.thermal.fast_thermal
ContourRect
p58
(dp59
S'width'
p60
F3.1
sS'avg_val'
p61
F11.097568187298215
sS'height'
p62
F3.083083083083083
sba(ipowercad.thermal.fast_thermal
ContourRect
p63
(dp64
g60
F7.199999999999999
sg61
F10.452945001285677
sg62
F7.5675675675675675
sba(ipowercad.thermal.fast_thermal
ContourRect
p65
(dp66
g60
F11.299999999999999
sg61
F10.149961134206821
sg62
F11.37137137137137
sba(ipowercad.thermal.fast_thermal
ContourRect
p67
(dp68
g60
F15.399999999999999
sg61
F10.035519787698059
sg62
F15.535535535535535
sba(ipowercad.thermal.fast_thermal
ContourRect
p69
(dp70
g60
F19.5
sg61
F9.971116181668846
sg62
F19.57957957957958
sba(ipowercad.thermal.fast_thermal
ContourRect
p71
(dp72
g60
F23.6
sg61
F9.929137644887513
sg62
F23.663663663663662
sba(ipowercad.thermal.fast_thermal
ContourRect
p73
(dp74
g60
F27.7
sg61
F9.899535882204555
sg62
F27.74774774774775
sba(ipowercad.thermal.fast_thermal
ContourRect
p75
(dp76
g60
F31.799999999999997
sg61
F9.878264581828542
sg62
F31.87187187187187
sba(ipowercad.thermal.fast_thermal
ContourRect
p77
(dp78
g60
F35.9
sg61
F9.8633246971819
sg62
F36.03603603603604
sba(ipowercad.thermal.fast_thermal
ContourRect
p79
(dp80
g60
F40.0
sg61
F9.853974444610106
sg62
F40.0
sbasS'iso_top_avg_temp'
p81
F9.930096890795634
sS'die_power'
p82
F2.0
sS'die_res'
p83
F0.3252583221947072
sS'self_temp'
p84
F11.044441084547097
sS'iso_top_fluxes'
p85
(lp86
(ipowercad.thermal.fast_thermal
ContourRect
p87
(dp88
g60
F3.1
sg61
F0.09460812198080419
sg62
F3.4034034034034035
sba(ipowercad.thermal.fast_thermal
ContourRect
p89
(dp90
g60
F4.080880880880881
sg61
F0.04485937202596969
sg62
F4.2442442442442445
sba(ipowercad.thermal.fast_thermal
ContourRect
p91
(dp92
g60
F5.061761761761762
sg61
F0.019799775001162638
sg62
F5.085085085085085
sba(ipowercad.thermal.fast_thermal
ContourRect
p93
(dp94
g60
F6.042642642642642
sg61
F0.0082504912279849
sg62
F5.885885885885886
sba(ipowercad.thermal.fast_thermal
ContourRect
p95
(dp96
g60
F7.023523523523523
sg61
F0.004869661838559514
sg62
F6.286286286286286
sba(ipowercad.thermal.fast_thermal
ContourRect
p97
(dp98
g60
F8.004404404404404
sg61
F0.003928249000060478
sg62
F6.366366366366366
sba(ipowercad.thermal.fast_thermal
ContourRect
p99
(dp100
g60
F8.985285285285284
sg61
F0.0028650903789304498
sg62
F6.686686686686687
sba(ipowercad.thermal.fast_thermal
ContourRect
p101
(dp102
g60
F9.966166166166165
sg61
F0.0020069073505472688
sg62
F10.85085085085085
sba(ipowercad.thermal.fast_thermal
ContourRect
p103
(dp104
g60
F10.947047047047047
sg61
F0.0008407472887174693
sg62
F11.771771771771771
sba(ipowercad.thermal.fast_thermal
ContourRect
p105
(dp106
g60
F11.927927927927927
sg61
F0.0006309722227336529
sg62
F12.052052052052051
sbasbsbaa(lp107
V  Copper Busbar Lead 7.85x2x0.5x3mm.p
p108
a(ipowercad.design.library_structures
Lead
p109
(dp110
S'lead_type'
p111
I1
sS'shape'
p112
I1
sg13
(ipowercad.design.library_structures
MaterialProperties
p113
(dp114
g16
S'Copper'
p115
sg18
Nsg19
F1.7e-08
sg20
Nsg21
Nsg22
Nsg23
Nsbsg16
S'Copper Busbar Lead 7.85x2x0.5x3mm'
p116
sg50
(F7.85
F2.0
F0.5
F3.0
tp117
sbaa(lp118
V  Cylindrical Copper Lead 0.75mm Diam..p
p119
a(ipowercad.design.library_structures
Lead
p120
(dp121
g111
I2
sg112
I2
sg13
(ipowercad.design.library_structures
MaterialProperties
p122
(dp123
g16
S'Copper'
p124
sg18
Nsg19
F1.7e-08
sg20
Nsg21
Nsg22
Nsg23
Nsbsg16
S'Cylindrical Copper Lead 0.75mm Diam.'
p125
sg50
(F0.75
F2.5
tp126
sbaasg16
VSimple Layout
p127
sS'netlist'
p128
NsS'module_data'
p129
ccopy_reg
_reconstructor
p130
(cpowercad.design.module_data
ModuleData
p131
c__builtin__
object
p132
Ntp133
Rp134
(dp135
S'substrate'
p136
(ipowercad.design.project_structures
SubstrateInstance
p137
(dp138
S'ledge_width'
p139
F1.0
sg50
(F40.0
F40.0
tp140
sS'substrate_tech'
p141
(ipowercad.design.library_structures
Substrate
p142
(dp143
S'isolation_properties'
p144
(ipowercad.design.library_structures
MaterialProperties
p145
(dp146
g16
S'MarkeTech AlN 160'
p147
sg18
F3250.0
sg19
Nsg20
F2.8
sg21
F8.7
sg22
F160.0
sg23
F740.0
sbsS'metal_properties'
p148
(ipowercad.design.library_structures
MaterialProperties
p149
(dp150
g16
S'Aluminum'
p151
sg18
F2710.0
sg19
F3e-08
sg20
Nsg21
Nsg22
F200.0
sg23
F904.0
sbsS'isolation_thickness'
p152
F0.64
sg16
S'Al-AlN-Al 16-25-16 mils'
p153
sS'metal_thickness'
p154
F0.41
sbsbsS'ambient_temp'
p155
F300.0
sS'sublayers_thermal'
p156
(ipowercad.thermal.fast_thermal
SublayerThermalFeatures
p157
(dp158
S't_amb'
p159
F300.0
sS'sub_res'
p160
cnumpy.core.multiarray
scalar
p161
(cnumpy
dtype
p162
(S'f8'
p163
I0
I1
tp164
Rp165
(I3
S'<'
p166
NNNI-1
I-1
I0
tp167
bS' (\xe0\xa85\xdc\x13@'
p168
tp169
Rp170
sg154
F0.41
sS'metal_cond'
p171
F200.0
sbsS'substrate_attach'
p172
(ipowercad.design.project_structures
SubstrateAttachInstance
p173
(dp174
g10
(ipowercad.design.library_structures
SubstrateAttach
p175
(dp176
g13
(ipowercad.design.library_structures
MaterialProperties
p177
(dp178
g16
S'Pb-Sn Solder Alloy'
p179
sg18
F11020.0
sg19
Nsg20
Nsg21
Nsg22
F35.8
sg23
F130.0
sbsbsS'thickness'
p180
F0.08
sbsS'frequency'
p181
F100.0
sS'baseplate'
p182
(ipowercad.design.project_structures
BaseplateInstance
p183
(dp184
S'baseplate_tech'
p185
(ipowercad.design.library_structures
Baseplate
p186
(dp187
g13
(ipowercad.design.library_structures
MaterialProperties
p188
(dp189
g16
S'MarkeTech Mo70Cu Moly'
p190
sg18
F9700.0
sg19
F1.7e-08
sg20
F1.0
sg21
Nsg22
F190.0
sg23
F385.0
sbsbsS'eff_conv_coeff'
p191
F100.0
sg50
(F45.0
F45.0
F6.0
tp192
sbsS'design_rules'
p193
(ipowercad.design.project_structures
ProcessDesignRules
p194
(dp195
S'min_trace_trace_width'
p196
F1.2
sS'signal_wire_component_dist'
p197
F0.2
sS'min_die_trace_dist'
p198
F0.1
sS'power_wire_trace_dist'
p199
F1.0
sS'power_wire_component_dist'
p200
F0.2
sS'min_die_die_dist'
p201
F0.2
sS'min_trace_width'
p202
F1.2
sS'signal_wire_trace_dist'
p203
F0.2
sbsbsS'tech_lib_dir'
p204
S'C:\\Users\\sxm063\\Documents\\GitLocal\\PowerCAD-full\\tech_lib'
p205
sS'module_stack_edit'
p206
(lp207
VAl-AlN-Al 16-25-16 mils.p
p208
aV40.0
p209
aV40.0
p210
aV1.0
p211
aVPb-Sn Solder Alloy.p
p212
aV0.08
p213
aVMarkeTech Mo70Cu Moly - Copy.p
p214
aV45.0
p215
aV45.0
p216
aV6.0
p217
aV100
p218
aV100
p219
aV300
p220
asS'num_gen'
p221
I100
sS'solutions'
p222
(lp223
(ipowercad.sol_browser.solution
Solution
p224
(dp225
S'index'
p226
I119
sS'params'
p227
(lp228
(lp229
VC1
p230
aF121.69395277266321
aS'pF'
p231
aa(lp232
VL1
p233
aF4.750959436550501
aS'nH'
p234
aa(lp235
VR1
p236
aF1.230824349686697
aS'mOhm'
p237
aasg16
VSolution 1
p238
sba(ipowercad.sol_browser.solution
Solution
p239
(dp240
g226
I1
sg227
(lp241
(lp242
g230
aF78.98340763531587
ag231
aa(lp243
g233
aF7.285156702737478
ag234
aa(lp244
g236
aF1.6248984286458625
ag237
aasg16
VSolution 1
p245
sba(ipowercad.sol_browser.solution
Solution
p246
(dp247
g226
I188
sg227
(lp248
(lp249
g230
aF164.3040344529059
ag231
aa(lp250
g233
aF3.791246775719025
ag234
aa(lp251
g236
aF1.2636211438419638
ag237
aasg16
VSolution 2
p252
sbasS'directory'
p253
VC:\u005cUsers\u005csxm063\u005cDocuments\u005cGitLocal\u005cPowerCAD-full\u005cexamples_for_filleting\u005cSimple switching leg
p254
sS'symb_layout'
p255
g130
(cpowercad.sym_layout.symbolic_layout
SymbolicLayout
p256
g132
Ntp257
Rp258
(dp259
S'SymLine'
p260
cpowercad.sym_layout.symbolic_layout
SymLine
p261
sS'all_super_traces'
p262
(lp263
sS'symmetries'
p264
(lp265
(lp266
g130
(g261
g132
Ntp267
Rp268
(dp269
S'num_wires'
p270
NsS'trace_connections'
p271
(lp272
g130
(g261
g132
Ntp273
Rp274
(dp275
g270
Nsg271
(lp276
g130
(g261
g132
Ntp277
Rp278
(dp279
g270
Nsg271
(lp280
g274
asS'dev_pt'
p281
NsS'land_pt2'
p282
NsS'wire'
p283
I00
sS'raw_element'
p284
g130
(cpowercad.sym_layout.svg
LayoutLine
p285
g132
Ntp286
Rp287
(dp288
S'path_id'
p289
S'T2'
p290
sS'vertical'
p291
I01
sS'pt2'
p292
(F4.0
F5.0
tp293
sS'pt1'
p294
(F4.0
F0.0
tp295
sbsS'conn_bonds'
p296
(lp297
g130
(g261
g132
Ntp298
Rp299
(dp300
g270
I2
sg271
(lp301
sg281
I1
sg282
Nsg283
I01
sg284
Nsg296
(lp302
sS'start_pt_conn'
p303
NsS'end_pts'
p304
(lp305
(F26.778852015313564
F27.625776188515424
tp306
a(F26.778852015313564
F26.625776188515424
tp307
asS'has_rect'
p308
I01
sS'trace2'
p309
NsS'wire_sep'
p310
F0.1
sS'child_pts'
p311
NsS'trace'
p312
g278
sS'trace_rect'
p313
NsS'dv_index'
p314
NsS'intersecting_trace'
p315
NsS'device'
p316
g130
(cpowercad.sym_layout.symbolic_layout
SymPoint
p317
g132
Ntp318
Rp319
(dp320
S'center_position'
p321
(F22.88942600765678
F27.805776188515424
tp322
sS'sym_bondwires'
p323
(lp324
g299
ag130
(g261
g132
Ntp325
Rp326
(dp327
g270
I2
sg271
(lp328
sg281
I2
sg282
Nsg283
I01
sg284
Nsg296
(lp329
sg303
Nsg304
(lp330
(F19.8
F29.125776188515424
tp331
asg308
I01
sg309
Nsg310
F0.1
sg311
Nsg312
g130
(g261
g132
Ntp332
Rp333
(dp334
g270
Nsg271
(lp335
sg281
Nsg282
Nsg283
I00
sg284
g130
(g285
g132
Ntp336
Rp337
(dp338
g289
S'T5'
p339
sg291
I01
sg292
(F2.0
F4.0
tp340
sg294
(F2.0
F1.0
tp341
sbsg296
(lp342
g130
(g261
g132
Ntp343
Rp344
(dp345
g270
I2
sg271
(lp346
sg281
I2
sg282
Nsg283
I01
sg284
Nsg296
(lp347
sg303
Nsg304
(lp348
(F18.2
F26.455019478276856
tp349
asg308
I01
sg309
Nsg310
F0.1
sg311
Nsg312
g333
sg313
Nsg314
Nsg315
Nsg316
g130
(g317
g132
Ntp350
Rp351
(dp352
g321
(F15.110573992343216
F27.775019478276857
tp353
sg323
(lp354
g130
(g261
g132
Ntp355
Rp356
(dp357
g270
I2
sg271
(lp358
sg281
I1
sg282
Nsg283
I01
sg284
Nsg296
(lp359
sg303
Nsg304
(lp360
(F11.221147984686434
F27.955019478276856
tp361
a(F11.221147984686434
F28.955019478276856
tp362
asg308
I01
sg309
Nsg310
F0.1
sg311
Nsg312
g268
sg313
Nsg314
Nsg315
Nsg316
g351
sS'land_pt'
p363
(F11.221147984686434
F27.775019478276857
tp364
sS'long_contacts'
p365
(dp366
sS'super_connections'
p367
(lp368
sS'constraint'
p369
NsS'end_pt_conn'
p370
NsS'start_pts'
p371
(lp372
(F14.660573992343217
F27.955019478276856
tp373
a(F14.660573992343217
F28.955019478276856
tp374
asS'element'
p375
NsS'tech'
p376
(ipowercad.design.library_structures
BondWire
p377
(dp378
S'a'
p379
F0.7
sS'wire_type'
p380
I1
sg16
S'Copper Power Bondwire 0.15mm'
p381
sg112
I1
sS'b'
p382
F0.125
sg13
(ipowercad.design.library_structures
MaterialProperties
p383
(dp384
g16
S'Copper'
p385
sg18
Nsg19
F1.7e-08
sg20
Nsg21
Nsg22
Nsg23
Nsbsg50
F0.15
sbsS'normal_connections'
p386
(lp387
sS'trace_line'
p388
Nsbag344
asg284
g130
(cpowercad.sym_layout.svg
LayoutPoint
p389
g132
Ntp390
Rp391
(dp392
g289
S'M1'
p393
sg16
NsS'pt'
p394
(F1.0
F3.0
tp395
sbsg16
g393
sg369
Nsg314
I1
sS'parent_line'
p396
g130
(g261
g132
Ntp397
Rp398
(dp399
g270
Nsg271
(lp400
g130
(g261
g132
Ntp401
Rp402
(dp403
g270
Nsg271
(lp404
g130
(g261
g132
Ntp405
Rp406
(dp407
g270
Nsg271
(lp408
g402
asg281
Nsg282
Nsg283
I00
sg284
g130
(g285
g132
Ntp409
Rp410
(dp411
g289
S'T4'
p412
sg291
I01
sg292
(F3.0
F6.0
tp413
sg294
(F3.0
F1.0
tp414
sbsg296
(lp415
sg303
Nsg304
Nsg308
I01
sg309
Nsg310
Nsg311
(lp416
g319
asg312
Nsg313
(ipowercad.general.data_struct.util
Rect
p417
(dp418
S'top'
p419
F31.15975791529944
sS'right'
p420
F24.578852015313565
sS'left'
p421
F21.2
sS'bottom'
p422
F25.995019478276856
sbsg314
I1
sg315
Nsg316
Nsg363
Nsg365
(dp423
sg367
(lp424
sg16
g412
sg369
Nsg370
Nsg371
Nsg375
g130
(g285
g132
Ntp425
Rp426
(dp427
g289
g412
sg291
I01
sg292
(I3
I6
tp428
sg294
(I3
I1
tp429
sbsg376
Nsg386
(lp430
sg388
g130
(g285
g132
Ntp431
Rp432
(dp433
g289
g412
sg294
(I3
I1
tp434
sg292
(I3
I4
tp435
sg291
I01
sbsbag398
asg281
Nsg282
Nsg283
I00
sg284
g130
(g285
g132
Ntp436
Rp437
(dp438
g289
S'T1'
p439
sg291
I00
sg292
(F3.0
F6.0
tp440
sg294
(F1.0
F6.0
tp441
sbsg296
(lp442
sg303
Nsg304
Nsg308
I01
sg309
Nsg310
Nsg311
(lp443
g130
(g317
g132
Ntp444
Rp445
(dp446
g321
(F19.0
F37.0
tp447
sg323
(lp448
sg284
g130
(g389
g132
Ntp449
Rp450
(dp451
g289
S'L3'
p452
sg16
Nsg394
(F2.0
F6.0
tp453
sbsg16
g452
sg369
Nsg314
Nsg396
g402
sg375
g130
(g389
g132
Ntp454
Rp455
(dp456
g289
g452
sg16
Nsg394
(I2
I6
tp457
sbsS'states'
p458
(lp459
sg376
g109
sS'footprint_rect'
p460
(ipowercad.general.data_struct.util
Rect
p461
(dp462
g419
F38.0
sg421
F15.075
sg420
F22.925
sg422
F36.0
sbsS'lumped_node'
p463
I12
sS'orientation'
p464
I1
sbasg312
Nsg313
(ipowercad.general.data_struct.util
Rect
p465
(dp466
g419
F38.0
sg420
F24.578852015313565
sg421
F13.421147984686433
sg422
F31.15975791529944
sbsg314
I4
sg315
Nsg316
Nsg363
Nsg365
(dp467
sg367
(lp468
sg16
g439
sg369
Nsg370
Nsg371
Nsg375
g130
(g285
g132
Ntp469
Rp470
(dp471
g289
g439
sg291
I00
sg292
(I3
I6
tp472
sg294
(I1
I6
tp473
sbsg376
Nsg386
(lp474
sg388
g130
(g285
g132
Ntp475
Rp476
(dp477
g289
g439
sg294
(I1
I4
tp478
sg292
(I3
I4
tp479
sg291
I00
sbsbasg281
Nsg282
Nsg283
I00
sg284
g130
(g285
g132
Ntp480
Rp481
(dp482
g289
S'T6'
p483
sg291
I01
sg292
(F1.0
F6.0
tp484
sg294
(F1.0
F1.0
tp485
sbsg296
(lp486
sg303
Nsg304
Nsg308
I01
sg309
Nsg310
Nsg311
(lp487
g351
asg312
Nsg313
(ipowercad.general.data_struct.util
Rect
p488
(dp489
g419
F31.15975791529944
sg420
F16.8
sg421
F13.421147984686433
sg422
F25.995019478276856
sbsg314
I1
sg315
Nsg316
Nsg363
Nsg365
(dp490
sg367
(lp491
sg16
g483
sg369
Nsg370
Nsg371
Nsg375
g130
(g285
g132
Ntp492
Rp493
(dp494
g289
g483
sg291
I01
sg292
(I1
I6
tp495
sg294
(I1
I1
tp496
sbsg376
Nsg386
(lp497
sg388
g130
(g285
g132
Ntp498
Rp499
(dp500
g289
g483
sg294
(I1
I1
tp501
sg292
(I1
I4
tp502
sg291
I01
sbsbsg375
g130
(g389
g132
Ntp503
Rp504
(dp505
g289
g393
sg16
Nsg394
(I1
I3
tp506
sbsg458
(lp507
g161
(g165
S'\x00\x00\x00\x00\x00\x00\xf0?'
p508
tp509
Rp510
ag161
(g165
S'\x00\x00\x00\x00\x00\x00\x00\x00'
p511
tp512
Rp513
ag161
(g165
S'\x00\x00\x00\x00\x00\x00\x00\x00'
p514
tp515
Rp516
asg376
g6
sg460
(ipowercad.general.data_struct.util
Rect
p517
(dp518
g419
F29.455019478276856
sg421
F13.560573992343215
sg420
F16.660573992343217
sg422
F26.095019478276857
sbsg463
I6
sg464
I2
sbsg363
(F18.2
F27.775019478276857
tp519
sg365
(dp520
sg367
(lp521
sg369
Nsg370
Nsg371
(lp522
(F15.660573992343217
F26.455019478276856
tp523
asg375
Nsg376
(ipowercad.design.library_structures
BondWire
p524
(dp525
g379
F0.7
sg380
I2
sg16
S'Copper Signal Bondwire 0.15mm'
p526
sg112
I1
sg382
F0.125
sg13
(ipowercad.design.library_structures
MaterialProperties
p527
(dp528
g16
S'Copper'
p529
sg18
Nsg19
F1.7e-08
sg20
Nsg21
Nsg22
Nsg23
Nsbsg50
F0.15
sbsg386
(lp530
sg388
Nsbag326
asg303
Nsg304
Nsg308
I01
sg309
Nsg310
Nsg311
(lp531
g130
(g317
g132
Ntp532
Rp533
(dp534
g321
(lp535
F19.0
aF27.977388696788147
asg323
(lp536
sg284
g130
(g389
g132
Ntp537
Rp538
(dp539
g289
S'L2'
p540
sg16
Nsg394
(F2.0
F2.0
tp541
sbsg16
g540
sg369
Nsg314
Nsg396
g333
sg375
g130
(g389
g132
Ntp542
Rp543
(dp544
g289
g540
sg16
Nsg394
(I2
I2
tp545
sbsg458
(lp546
sg376
g120
sg460
(ipowercad.general.data_struct.util
Rect
p547
(dp548
g419
F28.352388696788147
sg421
F18.625
sg420
F19.375
sg422
F27.602388696788147
sbsg463
I16
sg464
Nsbasg312
Nsg313
(ipowercad.general.data_struct.util
Rect
p549
(dp550
g419
F29.95975791529944
sg420
F20.0
sg421
F18.0
sg422
F25.995019478276856
sbsg314
I2
sg315
Nsg316
Nsg363
Nsg365
(dp551
sg367
(lp552
sg16
g339
sg369
(NNF2.0
F1.2
tp553
sg370
Nsg371
Nsg375
g130
(g285
g132
Ntp554
Rp555
(dp556
g289
g339
sg291
I01
sg292
(I2
I4
tp557
sg294
(I2
I1
tp558
sbsg376
Nsg386
(lp559
sg388
g130
(g285
g132
Ntp560
Rp561
(dp562
g289
g339
sg294
(I2
I1
tp563
sg292
(I2
I2
tp564
sg291
I01
sbsbsg313
Nsg314
Nsg315
Nsg316
g319
sg363
(F19.8
F27.805776188515424
tp565
sg365
(dp566
sg367
(lp567
sg369
Nsg370
Nsg371
(lp568
(F22.33942600765678
F29.125776188515424
tp569
asg375
Nsg376
(ipowercad.design.library_structures
BondWire
p570
(dp571
g379
F0.7
sg380
I2
sg16
S'Copper Signal Bondwire 0.15mm'
p572
sg112
I1
sg382
F0.125
sg13
(ipowercad.design.library_structures
MaterialProperties
p573
(dp574
g16
S'Copper'
p575
sg18
Nsg19
F1.7e-08
sg20
Nsg21
Nsg22
Nsg23
Nsbsg50
F0.15
sbsg386
(lp576
sg388
Nsbasg284
g130
(g389
g132
Ntp577
Rp578
(dp579
g289
S'M2'
p580
sg16
Nsg394
(F3.0
F3.0
tp581
sbsg16
g580
sg369
Nsg314
I0
sg396
g406
sg375
g130
(g389
g132
Ntp582
Rp583
(dp584
g289
g580
sg16
Nsg394
(I3
I3
tp585
sbsg458
(lp586
g161
(g165
S'\x00\x00\x00\x00\x00\x00\xf0?'
p587
tp588
Rp589
ag161
(g165
S'\x00\x00\x00\x00\x00\x00\x00\x00'
p590
tp591
Rp592
ag161
(g165
S'\x00\x00\x00\x00\x00\x00\x00\x00'
p593
tp594
Rp595
asg376
g6
sg460
(ipowercad.general.data_struct.util
Rect
p596
(dp597
g419
F29.485776188515423
sg421
F21.33942600765678
sg420
F24.43942600765678
sg422
F26.125776188515424
sbsg463
I1
sg464
I1
sbsg363
(F26.778852015313564
F27.805776188515424
tp598
sg365
(dp599
sg367
(lp600
sg369
Nsg370
Nsg371
(lp601
(F23.33942600765678
F27.625776188515424
tp602
a(F23.33942600765678
F26.625776188515424
tp603
asg375
Nsg376
(ipowercad.design.library_structures
BondWire
p604
(dp605
g379
F0.7
sg380
I1
sg16
S'Copper Power Bondwire 0.15mm'
p606
sg112
I1
sg382
F0.125
sg13
(ipowercad.design.library_structures
MaterialProperties
p607
(dp608
g16
S'Copper'
p609
sg18
Nsg19
F1.7e-08
sg20
Nsg21
Nsg22
Nsg23
Nsbsg50
F0.15
sbsg386
(lp610
sg388
Nsbasg303
Nsg304
Nsg308
I01
sg309
Nsg310
Nsg311
(lp611
sg312
Nsg313
(ipowercad.general.data_struct.util
Rect
p612
(dp613
g419
F29.95975791529944
sg420
F38.0
sg421
F25.778852015313564
sg422
F24.795019478276856
sbsg314
I0
sg315
Nsg316
Nsg363
Nsg365
(dp614
sg367
(lp615
sg16
g290
sg369
Nsg370
Nsg371
Nsg375
g130
(g285
g132
Ntp616
Rp617
(dp618
g289
g290
sg291
I01
sg292
(I4
I5
tp619
sg294
(I4
I0
tp620
sbsg376
Nsg386
(lp621
sg388
g130
(g285
g132
Ntp622
Rp623
(dp624
g289
g290
sg294
(I4
I0
tp625
sg292
(I4
I3
tp626
sg291
I01
sbsbag268
asg281
Nsg282
Nsg283
I00
sg284
g130
(g285
g132
Ntp627
Rp628
(dp629
g289
S'T3'
p630
sg291
I00
sg292
(F4.0
F0.0
tp631
sg294
(F0.0
F0.0
tp632
sbsg296
(lp633
sg303
Nsg304
Nsg308
I01
sg309
Nsg310
Nsg311
(lp634
g130
(g317
g132
Ntp635
Rp636
(dp637
g321
(F19.0
F1.0
tp638
sg323
(lp639
sg284
g130
(g389
g132
Ntp640
Rp641
(dp642
g289
S'L1'
p643
sg16
Nsg394
(F2.0
F0.0
tp644
sbsg16
g643
sg369
Nsg314
Nsg396
g274
sg375
g130
(g389
g132
Ntp645
Rp646
(dp647
g289
g643
sg16
Nsg394
(I2
I0
tp648
sbsg458
(lp649
sg376
g109
sg460
(ipowercad.general.data_struct.util
Rect
p650
(dp651
g419
F2.0
sg421
F15.075
sg420
F22.925
sg422
F0.0
sbsg463
I14
sg464
I2
sbasg312
Nsg313
(ipowercad.general.data_struct.util
Rect
p652
(dp653
g419
F24.795019478276856
sg420
F38.0
sg421
F0.0
sg422
F0.0
sbsg314
I0
sg315
Nsg316
Nsg363
Nsg365
(dp654
sg367
(lp655
sg16
g630
sg369
Nsg370
Nsg371
Nsg375
g130
(g285
g132
Ntp656
Rp657
(dp658
g289
g630
sg291
I00
sg292
(I4
I0
tp659
sg294
(I0
I0
tp660
sbsg376
Nsg386
(lp661
sg388
g130
(g285
g132
Ntp662
Rp663
(dp664
g289
g630
sg294
(I0
I0
tp665
sg292
(I4
I0
tp666
sg291
I00
sbsbasg281
Nsg282
Nsg283
I00
sg284
g130
(g285
g132
Ntp667
Rp668
(dp669
g289
S'T7'
p670
sg291
I01
sg292
(F0.0
F5.0
tp671
sg294
(F0.0
F0.0
tp672
sbsg296
(lp673
g356
asg303
Nsg304
Nsg308
I01
sg309
Nsg310
Nsg311
(lp674
sg312
Nsg313
(ipowercad.general.data_struct.util
Rect
p675
(dp676
g419
F29.95975791529944
sg420
F12.221147984686434
sg421
F0.0
sg422
F24.795019478276856
sbsg314
I0
sg315
Nsg316
Nsg363
Nsg365
(dp677
sg367
(lp678
sg16
g670
sg369
Nsg370
Nsg371
Nsg375
g130
(g285
g132
Ntp679
Rp680
(dp681
g289
g670
sg291
I01
sg292
(I0
I5
tp682
sg294
(I0
I0
tp683
sbsg376
Nsg386
(lp684
sg388
g130
(g285
g132
Ntp685
Rp686
(dp687
g289
g670
sg294
(I0
I0
tp688
sg292
(I0
I3
tp689
sg291
I01
sbsbag278
aa(lp690
g398
ag406
aasS'v_overflow'
p691
F0.0
sS'tmp_conn_dict'
p692
(dp693
c__builtin__
frozenset
p694
((lp695
g402
ag406
atp696
Rp697
I1
sg694
((lp698
g398
ag402
atp699
Rp700
I1
sg694
((lp701
g274
ag278
atp702
Rp703
I1
sg694
((lp704
g274
ag268
atp705
Rp706
I1
ssS'trace_trace_connections'
p707
(lp708
(lp709
g278
ag274
a(I4
I0
tp710
aI00
aa(lp711
g406
ag402
a(I3
I4
tp712
aI00
aa(lp713
g398
ag402
a(I1
I4
tp714
aI00
aa(lp715
g268
ag274
a(I0
I0
tp716
aI00
aasS'trace_xlen'
p717
I5
sS'module'
p718
g134
sS'v_dv_list'
p719
(lp720
(lp721
g130
(cpowercad.sym_layout.symbolic_layout
RowCol
p722
g132
Ntp723
Rp724
(dp725
S'phantom'
p726
I00
sg420
F25.995019478276856
sS'all_super'
p727
I00
sS'phantom_constraint'
p728
NsS'undef_width'
p729
F24.795019478276856
sg314
I0
sS'mid'
p730
F12.397509739138428
sS'elements'
p731
(dp732
g274
I1
ssS'definable'
p733
I01
sS'removed'
p734
I01
sg421
F0.0
sbaa(lp735
g130
(g722
g132
Ntp736
Rp737
(dp738
g726
I01
sg420
F25.995019478276856
sg727
I01
sg728
Nsg314
I1
sg730
F25.995019478276856
sg731
(dp739
sg733
I01
sg734
Nsg421
F25.995019478276856
sbaa(lp740
g130
(g722
g132
Ntp741
Rp742
(dp743
g726
I01
sg420
F31.15975791529944
sg727
I01
sg728
Nsg314
I2
sg730
F28.577388696788148
sg731
(dp744
sg733
I01
sg734
Nsg421
F25.995019478276856
sbaa(lp745
g130
(g722
g132
Ntp746
Rp747
(dp748
g726
I01
sg420
F31.15975791529944
sg727
I01
sg728
Nsg314
I3
sg730
F31.15975791529944
sg731
(dp749
sg733
I01
sg734
Nsg421
F31.15975791529944
sbaa(lp750
g130
(g722
g132
Ntp751
Rp752
(dp753
g726
I00
sg420
F38.0
sg727
I00
sg728
Nsg314
I4
sg730
F34.57987895764972
sS'max_width'
p754
F6.840242084700559
sg731
(dp755
g402
I1
ssg733
I01
sg734
Nsg421
F31.15975791529944
sbaasS'leads'
p756
(lp757
g445
ag636
ag533
asS'xlen'
p758
I5
sS'seed'
p759
NsS'vg_matrix'
p760
(lp761
(lp762
(dp763
g274
I01
sg268
I01
sa(dp764
g268
I00
sa(dp765
g268
I00
sa(dp766
g268
I01
sa(dp767
aa(lp768
(dp769
g274
I00
sa(dp770
g398
I01
sa(dp771
g398
I00
sa(dp772
g398
I00
sa(dp773
g398
I01
sg402
I01
saa(lp774
(dp775
g274
I00
sa(dp776
g333
I01
sa(dp777
g333
I01
sa(dp778
a(dp779
g402
I00
saa(lp780
(dp781
g274
I00
sa(dp782
g406
I01
sa(dp783
g406
I00
sa(dp784
g406
I00
sa(dp785
g402
I01
sg406
I01
saa(lp786
(dp787
g274
I01
sg278
I01
sa(dp788
g278
I00
sa(dp789
g278
I00
sa(dp790
g278
I01
sa(dp791
aasS'v_rowcol_list'
p792
(lp793
g724
ag737
ag742
ag747
ag752
asS'mdl_type'
p794
(dp795
S'E'
p796
S'MS'
p797
sS'T'
p798
NssS'h_min_max_overflow'
p799
(F0.0
F0.0
tp800
sS'perf_measures'
p801
(lp802
g130
(cpowercad.sym_layout.symbolic_layout
ElectricalMeasure
p803
g132
Ntp804
Rp805
(dp806
S'disp'
p807
(VElectrical
p808
VCapacitance
p809
tp810
sS'sink_term'
p811
Nsg16
g230
sS'mdl'
p812
g797
sS'src_term'
p813
NsS'lines'
p814
(lp815
g398
ag402
ag406
ag333
ag268
ag278
ag274
asS'dev_state'
p816
NsS'measure'
p817
I3
sS'units'
p818
g231
sg292
Nsg294
Nsbag130
(g803
g132
Ntp819
Rp820
(dp821
g807
(VElectrical
p822
VInductance
p823
tp824
sg811
S'Lead'
p825
sg16
g233
sg812
g797
sg813
g825
sg814
Nsg816
g130
(cpandas.core.frame
DataFrame
p826
g132
Ntp827
Rp828
(dp829
S'_metadata'
p830
(lp831
sS'_typ'
p832
S'dataframe'
p833
sS'_data'
p834
g130
(cpandas.core.internals
BlockManager
p835
g132
Ntp836
Rp837
((lp838
cpandas.indexes.base
_new_Index
p839
(cpandas.indexes.numeric
Int64Index
p840
(dp841
S'data'
p842
cnumpy.core.multiarray
_reconstruct
p843
(cnumpy
ndarray
p844
(I0
tp845
g382
tp846
Rp847
(I1
(I4
tp848
g162
(S'i8'
p849
I0
I1
tp850
Rp851
(I3
S'<'
p852
NNNI-1
I-1
I0
tp853
bI00
S'\x00\x00\x00\x00\x00\x00\x00\x00\x01\x00\x00\x00\x00\x00\x00\x00\x02\x00\x00\x00\x00\x00\x00\x00\x03\x00\x00\x00\x00\x00\x00\x00'
p854
tp855
bsg16
Nstp856
Rp857
ag839
(g840
(dp858
g842
g843
(g844
(I0
tp859
g382
tp860
Rp861
(I1
(I2
tp862
g851
I00
S'\x00\x00\x00\x00\x00\x00\x00\x00\x01\x00\x00\x00\x00\x00\x00\x00'
p863
tp864
bsg16
Nstp865
Rp866
a(lp867
g843
(g844
(I0
tp868
g382
tp869
Rp870
(I1
(I3
I2
tp871
g162
(S'f8'
p872
I0
I1
tp873
Rp874
(I3
S'<'
p875
NNNI-1
I-1
I0
tp876
bI01
S'\x00\x00\x00\x00\x00\x00\xf0?\x00\x00\x00\x00\x00\x00\x00\x00\x00\x00\x00\x00\x00\x00\x00\x00\x00\x00\x00\x00\x00\x00\xf0?\x00\x00\x00\x00\x00\x00\x00\x00\x00\x00\x00\x00\x00\x00\x00\x00'
p877
tp878
bag843
(g844
(I0
tp879
g382
tp880
Rp881
(I1
(I1
I2
tp882
g162
(S'O4'
p883
I0
I1
tp884
Rp885
(I3
S'|'
p886
NNNI-1
I-1
I63
tp887
bI00
(lp888
VM1
p889
aVM2
p890
atp891
ba(lp892
g839
(g840
(dp893
g842
g843
(g844
(I0
tp894
g382
tp895
Rp896
(I1
(I3
tp897
g851
I00
S'\x01\x00\x00\x00\x00\x00\x00\x00\x02\x00\x00\x00\x00\x00\x00\x00\x03\x00\x00\x00\x00\x00\x00\x00'
p898
tp899
bsg16
Nstp900
Rp901
ag839
(g840
(dp902
g842
g843
(g844
(I0
tp903
g382
tp904
Rp905
(I1
(I1
tp906
g851
I00
S'\x00\x00\x00\x00\x00\x00\x00\x00'
p907
tp908
bsg16
Nstp909
Rp910
a(dp911
S'0.14.1'
p912
(dp913
S'axes'
p914
g838
sS'blocks'
p915
(lp916
(dp917
S'mgr_locs'
p918
c__builtin__
slice
p919
(I1
I4
I1
tp920
Rp921
sS'values'
p922
g870
sa(dp923
g918
g919
(I0
I1
I1
tp924
Rp925
sg922
g881
sasstp926
bsbsg817
I2
sg818
g234
sg292
g636
sg294
g445
sbag130
(g803
g132
Ntp927
Rp928
(dp929
g807
(VElectrical
p930
VResistance
p931
tp932
sg811
g825
sg16
g236
sg812
g797
sg813
g825
sg814
Nsg816
g130
(g826
g132
Ntp933
Rp934
(dp935
g830
g831
sg832
g833
sg834
g130
(g835
g132
Ntp936
Rp937
((lp938
g839
(g840
(dp939
g842
g843
(g844
(I0
tp940
g382
tp941
Rp942
(I1
(I4
tp943
g851
I00
S'\x00\x00\x00\x00\x00\x00\x00\x00\x01\x00\x00\x00\x00\x00\x00\x00\x02\x00\x00\x00\x00\x00\x00\x00\x03\x00\x00\x00\x00\x00\x00\x00'
p944
tp945
bsg16
Nstp946
Rp947
ag839
(g840
(dp948
g842
g843
(g844
(I0
tp949
g382
tp950
Rp951
(I1
(I2
tp952
g851
I00
S'\x00\x00\x00\x00\x00\x00\x00\x00\x01\x00\x00\x00\x00\x00\x00\x00'
p953
tp954
bsg16
Nstp955
Rp956
a(lp957
g843
(g844
(I0
tp958
g382
tp959
Rp960
(I1
(I3
I2
tp961
g874
I01
S'\x00\x00\x00\x00\x00\x00\xf0?\x00\x00\x00\x00\x00\x00\x00\x00\x00\x00\x00\x00\x00\x00\x00\x00\x00\x00\x00\x00\x00\x00\xf0?\x00\x00\x00\x00\x00\x00\x00\x00\x00\x00\x00\x00\x00\x00\x00\x00'
p962
tp963
bag843
(g844
(I0
tp964
g382
tp965
Rp966
(I1
(I1
I2
tp967
g885
I00
(lp968
VM1
p969
aVM2
p970
atp971
ba(lp972
g839
(g840
(dp973
g842
g843
(g844
(I0
tp974
g382
tp975
Rp976
(I1
(I3
tp977
g851
I00
S'\x01\x00\x00\x00\x00\x00\x00\x00\x02\x00\x00\x00\x00\x00\x00\x00\x03\x00\x00\x00\x00\x00\x00\x00'
p978
tp979
bsg16
Nstp980
Rp981
ag839
(g840
(dp982
g842
g843
(g844
(I0
tp983
g382
tp984
Rp985
(I1
(I1
tp986
g851
I00
S'\x00\x00\x00\x00\x00\x00\x00\x00'
p987
tp988
bsg16
Nstp989
Rp990
a(dp991
g912
(dp992
g914
g938
sg915
(lp993
(dp994
g918
g919
(I1
I4
I1
tp995
Rp996
sg922
g960
sa(dp997
g918
g919
(I0
I1
I1
tp998
Rp999
sg922
g966
sasstp1000
bsbsg817
I1
sg818
g237
sg292
g636
sg294
g445
sbasS'layout'
p1001
(lp1002
g470
ag617
ag657
ag426
ag555
ag493
ag680
ag504
ag583
ag646
ag543
ag455
asS'trace_nodes'
p1003
(lp1004
(lp1005
I19
aI20
aa(lp1006
I17
aI22
aa(lp1007
I18
aI23
aa(lp1008
I21
aI24
aa(lp1009
I26
aI18
aa(lp1010
I18
aI11
aa(lp1011
I11
aI17
aa(lp1012
I17
aI25
aa(lp1013
I19
aI2
aa(lp1014
I2
aI27
aa(lp1015
I29
aI21
aa(lp1016
I21
aI13
aa(lp1017
I13
aI20
aa(lp1018
I20
aI28
aa(lp1019
I30
aI1
aa(lp1020
I1
aI22
aa(lp1021
I32
aI7
aa(lp1022
I7
aI4
aa(lp1023
I4
aI15
aa(lp1024
I15
aI31
aa(lp1025
I33
aI6
aa(lp1026
I6
aI23
aa(lp1027
I24
aI9
aa(lp1028
I9
aI34
aasS'raw_layout'
p1029
(lp1030
g437
ag287
ag628
ag410
ag337
ag481
ag668
ag391
ag578
ag641
ag538
ag450
asS'sub_dim'
p1031
(F38.0
F38.0
tp1032
sS'opt_dv_list'
p1033
(lp1034
g130
(cpowercad.opt.optimizer
DesignVar
p1035
g132
Ntp1036
Rp1037
(dp1038
S'init_values'
p1039
(F5.066666666666666
F10.133333333333333
tp1040
sS'constraints'
p1041
(F1.2
F38.0
tp1042
sbag130
(g1035
g132
Ntp1043
Rp1044
(dp1045
g1039
(F5.066666666666666
F10.133333333333333
tp1046
sg1041
(F0.0
F38.0
tp1047
sbag130
(g1035
g132
Ntp1048
Rp1049
(dp1050
g1039
(F5.066666666666666
F10.133333333333333
tp1051
sg1041
(F0.0
F38.0
tp1052
sbag130
(g1035
g132
Ntp1053
Rp1054
(dp1055
g1039
(F5.066666666666666
F10.133333333333333
tp1056
sg1041
(F0.0
F38.0
tp1057
sbag130
(g1035
g132
Ntp1058
Rp1059
(dp1060
g1039
(F5.066666666666666
F10.133333333333333
tp1061
sg1041
(F1.2
F38.0
tp1062
sbag130
(g1035
g132
Ntp1063
Rp1064
(dp1065
g1039
(F0.0
F1.0
tp1066
sg1041
(F0.0
F1.0
tp1067
sbag130
(g1035
g132
Ntp1068
Rp1069
(dp1070
g1039
g1066
sg1041
g1067
sbasS'all_sym'
p1071
(lp1072
g402
ag278
ag274
ag406
ag333
ag398
ag268
ag351
ag319
ag636
ag533
ag445
ag130
(g261
g132
Ntp1073
Rp1074
(dp1075
g270
I2
sg271
(lp1076
sg281
Nsg282
Nsg283
I01
sg284
Nsg296
(lp1077
sg303
Nsg304
Nsg308
I01
sg309
Nsg310
F0.1
sg311
Nsg312
Nsg313
Nsg314
Nsg315
Nsg316
Nsg363
Nsg365
(dp1078
sg367
(lp1079
sg369
Nsg370
Nsg371
Nsg375
Nsg376
g377
sg386
(lp1080
sg388
Nsbag130
(g261
g132
Ntp1081
Rp1082
(dp1083
g270
I2
sg271
(lp1084
sg281
Nsg282
Nsg283
I01
sg284
Nsg296
(lp1085
sg303
Nsg304
Nsg308
I01
sg309
Nsg310
F0.1
sg311
Nsg312
Nsg313
Nsg314
Nsg315
Nsg316
Nsg363
Nsg365
(dp1086
sg367
(lp1087
sg369
Nsg370
Nsg371
Nsg375
Nsg376
g377
sg386
(lp1088
sg388
Nsbag130
(g261
g132
Ntp1089
Rp1090
(dp1091
g270
I2
sg271
(lp1092
sg281
Nsg282
Nsg283
I01
sg284
Nsg296
(lp1093
sg303
Nsg304
Nsg308
I01
sg309
Nsg310
F0.1
sg311
Nsg312
Nsg313
Nsg314
Nsg315
Nsg316
Nsg363
Nsg365
(dp1094
sg367
(lp1095
sg369
Nsg370
Nsg371
Nsg375
Nsg376
g524
sg386
(lp1096
sg388
Nsbag356
ag299
ag344
ag326
asS'h_dv_list'
p1097
(lp1098
(lp1099
g130
(g722
g132
Ntp1100
Rp1101
(dp1102
g726
I00
sg420
F13.421147984686433
sg727
I00
sg728
Nsg729
F12.221147984686434
sg314
I0
sg730
F6.110573992343217
sg731
(dp1103
g268
I1
ssg733
I01
sg734
I01
sg421
F0.0
sbag130
(g722
g132
Ntp1104
Rp1105
(dp1106
g726
I00
sg420
F38.0
sg727
I00
sg728
Nsg729
F12.221147984686434
sg314
I0
sg730
F31.88942600765678
sg731
(dp1107
g278
I1
ssg733
I01
sg734
I01
sg421
F25.778852015313564
sbaa(lp1108
g130
(g722
g132
Ntp1109
Rp1110
(dp1111
g726
I00
sg420
F18.0
sg727
I00
sg728
Nsg314
I1
sg730
F15.110573992343216
sg754
F3.378852015313566
sg731
(dp1112
g398
I1
ssg733
I01
sg734
Nsg421
F13.421147984686433
sbag130
(g722
g132
Ntp1113
Rp1114
(dp1115
g726
I00
sg420
F25.778852015313564
sg727
I00
sg728
Nsg314
I1
sg730
F22.88942600765678
sg754
F3.378852015313566
sg731
(dp1116
g406
I1
ssg733
I01
sg734
Nsg421
F21.2
sbaa(lp1117
g130
(g722
g132
Ntp1118
Rp1119
(dp1120
g726
I00
sg420
F21.2
sg727
I00
sg728
Nsg314
I2
sg730
F19.0
sg754
F2.0
sg731
(dp1121
g333
I1
ssg733
I01
sg734
Nsg421
F18.0
sbaasS'h_overflow'
p1122
F0.0
sS'eval_count'
p1123
I1289
sS'temp_dir'
p1124
S'C:\\Users\\qmle\\Desktop\\Build_danfoss\\New Package-20180619T152127Z-001\\New Package\\dist\\export_data\\temp'
p1125
sS'trace_rects'
p1126
(lp1127
g465
ag612
ag652
ag417
ag549
ag488
ag675
asS'h_design_var_dict'
p1128
Nsg193
g194
sS'bondwire_dv_list'
p1129
(lp1130
sS'h_design_values'
p1131
(lp1132
NaF3.378852015313566
aF2.0
asS'eval_total'
p1133
I3000
sS'lumped_graph'
p1134
g130
(cnetworkx.classes.graph
Graph
p1135
g132
Ntp1136
Rp1137
(dp1138
S'node'
p1139
(dp1140
I1
(dp1141
S'obj'
p1142
g319
sS'type'
p1143
S'deviceD'
p1144
sS'point'
p1145
g322
ssI2
(dp1146
g1143
S'bw_spine'
p1147
sg1145
(F31.88942600765678
F27.805776188515424
tp1148
ssI3
(dp1149
g1143
S'bw_land'
p1150
sg1145
g598
ssI4
(dp1151
g1143
g1147
sg1145
(F19.0
F27.805776188515424
tp1152
ssI5
(dp1153
g1143
g1150
sg1145
g565
ssI6
(dp1154
g1142
g351
sg1143
g1144
sg1145
g353
ssI7
(dp1155
g1143
g1147
sg1145
(F19.0
F27.775019478276857
tp1156
ssI8
(dp1157
g1143
g1150
sg1145
g519
ssI9
(dp1158
g1143
g1147
sg1145
(F6.110573992343217
F27.775019478276857
tp1159
ssI10
(dp1160
g1143
g1150
sg1145
g364
ssI11
(dp1161
g1143
S'spine_node'
p1162
sg1145
(F19.0
F34.57987895764972
tp1163
ssI12
(dp1164
g1142
g445
sg1143
S'lead'
p1165
sg1145
g447
ssI13
(dp1166
g1143
g1162
sg1145
(F19.0
F12.397509739138428
tp1167
ssI14
(dp1168
g1142
g636
sg1143
g1165
sg1145
g638
ssI15
(dp1169
g1143
g1162
sg1145
(F19.0
F27.977388696788147
tp1170
ssI16
(dp1171
g1142
g533
sg1143
g1165
sg1145
g535
ssI17
(dp1172
g1143
S'trace-to-trace'
p1173
sg1145
(F22.88942600765678
F34.57987895764972
tp1174
ssI18
(dp1175
g1143
g1173
sg1145
(F15.110573992343216
F34.57987895764972
tp1176
ssI19
(dp1177
g1143
g1173
sg1145
(F31.88942600765678
F24.795019478276856
tp1178
ssI20
(dp1179
g1143
g1173
sg1145
(F31.88942600765678
F12.397509739138428
tp1180
ssI21
(dp1181
g1143
g1173
sg1145
(F6.110573992343217
F12.397509739138428
tp1182
ssI22
(dp1183
g1143
g1173
sg1145
(F22.88942600765678
F31.15975791529944
tp1184
ssI23
(dp1185
g1143
g1173
sg1145
(F15.110573992343216
F31.15975791529944
tp1186
ssI24
(dp1187
g1143
g1173
sg1145
(F6.110573992343217
F24.795019478276856
tp1188
ssI25
(dp1189
g1143
S'end_pt'
p1190
sg1145
(F24.578852015313565
F34.57987895764972
tp1191
ssI26
(dp1192
g1143
g1190
sg1145
(F13.421147984686433
F34.57987895764972
tp1193
ssI27
(dp1194
g1143
g1190
sg1145
(F31.88942600765678
F29.95975791529944
tp1195
ssI28
(dp1196
g1143
g1190
sg1145
(F38.0
F12.397509739138428
tp1197
ssI29
(dp1198
g1143
g1190
sg1145
(F0.0
F12.397509739138428
tp1199
ssI30
(dp1200
g1143
g1190
sg1145
(F22.88942600765678
F25.995019478276856
tp1201
ssI31
(dp1202
g1143
g1190
sg1145
(F19.0
F29.95975791529944
tp1203
ssI32
(dp1204
g1143
g1190
sg1145
(F19.0
F25.995019478276856
tp1205
ssI33
(dp1206
g1143
g1190
sg1145
(F15.110573992343216
F25.995019478276856
tp1207
ssI34
(dp1208
g1143
g1190
sg1145
(F6.110573992343217
F29.95975791529944
tp1209
ssI1001
(dp1210
g1142
g319
sg1145
(lp1211
F24.88942600765678
aF29.805776188515424
asg1143
S'deviceS'
p1212
ssI1002
(dp1213
g1142
g319
sg1145
(lp1214
F20.88942600765678
aF25.805776188515424
asg1143
S'deviceG'
p1215
ssI6001
(dp1216
g1142
g351
sg1145
(lp1217
F17.110573992343216
aF29.775019478276857
asg1143
g1212
ssI6002
(dp1218
g1142
g351
sg1145
(lp1219
F13.110573992343216
aF25.775019478276857
asg1143
g1215
sssS'graph'
p1220
(dp1221
sS'edge'
p1222
(dp1223
I1
(dp1224
I1001
(dp1225
S'ind'
p1226
F10000000.0
sS'res'
p1227
F10000000.0
sS'cap'
p1228
F10000000.0
sg1143
S'Drain_to_Source'
p1229
sg1142
NssI22
(dp1230
g60
F3.3788520153135657
sS'length'
p1231
F3.353981726784017
sg1226
F1.4490301377300248
sg1227
F8.752762454703545
sg1228
F0.5747389565912778
sg1143
g312
ssI30
(dp1232
g60
F3.3788520153135657
sg1231
F1.810756710238568
sg1226
F3.336594157516925
sg1227
F16.212341042816934
sg1228
F0.9743715854659647
sg1143
g312
sssI2
(dp1233
I19
(dp1234
g60
F12.221147984686436
sg1231
F3.0107567102385673
sg1226
F3.4464151370975724
sg1227
F36.231520648200316
sg1228
F0.1843769159263957
sg1143
g312
ssI27
(dp1235
g60
F12.221147984686436
sg1231
F2.153981726784018
sg1226
F4.6439879665203785
sg1227
F50.64309160903773
sg1228
F0.24343307627700056
sg1143
g312
ssI3
(dp1236
g60
F0.3
sg1231
F5.110573992343216
sg1226
F1000.0
sg1227
F1000.0
sg1228
F1000.0
sg1143
S'trace_bw'
p1237
sssI3
(dp1238
I1001
(dp1239
g1226
F0.4618937644341801
sg1227
F0.6154152031941115
sg1228
F1000.0
sg1143
S'bw power'
p1240
sg1142
g299
ssI2
g1236
ssI4
(dp1241
I15
(dp1242
g60
F2.0
sg1231
F0.17161250827272312
sg1226
F21.640922178435588
sg1227
F112.66532982661307
sg1228
F6.532121694589797
sg1143
g312
ssI5
(dp1243
g60
F0.15
sg1231
F0.8000000000000007
sg1226
F1000.0
sg1227
F1000.0
sg1228
F1000.0
sg1143
g1237
ssI7
(dp1244
g60
F2.0
sg1231
F0.030756710238566853
sg1226
F21.298634498547784
sg1227
F628.6361479152669
sg1228
F8.932805616986172
sg1143
g312
sssI5
(dp1245
I1002
(dp1246
g1226
F0.23094688221709006
sg1227
F0.3919002937617427
sg1228
F1000.0
sg1143
S'bw signal'
p1247
sg1142
g326
ssI4
g1243
ssI6
(dp1248
I6001
(dp1249
g1226
F10000000.0
sg1227
F10000000.0
sg1228
F10000000.0
sg1143
g1229
sg1142
NssI23
(dp1250
g60
F3.3788520153135675
sg1231
F3.384738437022584
sg1226
F1.4311005623411777
sg1227
F8.673227157186401
sg1228
F0.5700789986415065
sg1143
g312
ssI33
(dp1251
g60
F3.3788520153135675
sg1231
F1.7800000000000011
sg1226
F3.4130059435759623
sg1227
F16.49247490559377
sg1228
F0.988064190814103
sg1143
g312
sssI7
(dp1252
I8
(dp1253
g60
F0.15
sg1231
F0.8000000000000007
sg1226
F1000.0
sg1227
F1000.0
sg1228
F1000.0
sg1143
g1237
ssI32
(dp1254
g60
F2.0
sg1231
F1.7800000000000011
sg1226
F2.5398885174378214
sg1227
F10.862235869055452
sg1228
F1.6054326558207297
sg1143
g312
ssI4
g1244
ssI8
(dp1255
I6002
(dp1256
g1226
F0.23094688221709006
sg1227
F0.3919002937617422
sg1228
F1000.0
sg1143
g1247
sg1142
g344
ssI7
g1253
ssI9
(dp1257
I24
(dp1258
g60
F12.221147984686434
sg1231
F2.9800000000000004
sg1226
F3.484320805279278
sg1227
F36.60546775628062
sg1228
F0.18599672572809334
sg1143
g312
ssI10
(dp1259
g60
F0.3
sg1231
F5.110573992343217
sg1226
F1000.0
sg1227
F1000.0
sg1228
F1000.0
sg1143
g1237
ssI34
(dp1260
g60
F12.221147984686434
sg1231
F2.1847384370225846
sg1226
F4.597776850418699
sg1227
F49.93013903411661
sg1228
F0.24066584016782488
sg1143
g312
sssI10
(dp1261
I9
g1259
sI6001
(dp1262
g1226
F0.4618937644341801
sg1227
F0.6154152031941119
sg1228
F1000.0
sg1143
g1240
sg1142
g356
sssI11
(dp1263
I17
(dp1264
g60
F6.840242084700559
sg1231
F3.8894260076567804
sg1226
F1.8065677261510749
sg1227
F13.420806059136067
sg1228
F0.2590065886897453
sg1143
g312
ssI18
(dp1265
g60
F6.840242084700559
sg1231
F3.889426007656784
sg1226
F1.8065677261510722
sg1227
F13.420806059136053
sg1228
F0.2590065886897451
sg1143
g312
ssI12
(dp1266
g60
F7.85
sg1231
F2.4201210423502815
sg1226
F1000.0
sg1227
F1000000.0
sg1228
F1000.0
sg1143
g312
sssI12
(dp1267
I11
g1266
ssI13
(dp1268
I20
(dp1269
g60
F24.795019478276856
sg1231
F12.88942600765678
sg1226
F0.7036375055067046
sg1227
F7.442919667318234
sg1228
F0.024359729684340258
sg1143
g312
ssI21
(dp1270
g60
F24.795019478276856
sg1231
F12.889426007656784
sg1226
F0.7036375055067041
sg1227
F7.442919667318231
sg1228
F0.024359729684340255
sg1143
g312
ssI14
(dp1271
g60
F7.85
sg1231
F11.397509739138428
sg1226
F1000.0
sg1227
F1000000.0
sg1228
F1000.0
sg1143
g312
sssI14
(dp1272
I13
g1271
ssI15
(dp1273
I16
(dp1274
g60
F0.75
sg1231
F0.0
sg1226
F1000.0
sg1227
F1000000.0
sg1228
F1000.0
sg1143
g312
ssI4
g1242
sI31
(dp1275
g60
F2.0
sg1231
F1.9823692185112947
sg1226
F2.2039181452704253
sg1227
F9.753369688336166
sg1228
F1.4662858341560616
sg1143
g312
sssI16
(dp1276
I15
g1274
ssI17
(dp1277
I25
(dp1278
g60
F6.840242084700559
sg1231
F1.6894260076567846
sg1226
F5.2440409795650025
sg1227
F30.897613682721314
sg1228
F0.5221603434306499
sg1143
g312
ssI11
g1264
sI22
(dp1279
g60
F2.0
sg1231
F3.420121042350278
sg1226
F1.0746856399241072
sg1227
F5.653244317233878
sg1228
F0.9074825470853698
sg1143
g312
sssI18
(dp1280
I26
(dp1281
g60
F6.840242084700559
sg1231
F1.6894260076567829
sg1226
F5.244040979565007
sg1227
F30.897613682721353
sg1228
F0.5221603434306503
sg1143
g312
ssI11
g1265
sI23
(dp1282
g60
F2.0
sg1231
F3.420121042350278
sg1226
F1.0746856399241072
sg1227
F5.653244317233878
sg1228
F0.9074825470853698
sg1143
g312
sssI19
(dp1283
I2
g1234
sI20
(dp1284
g60
F5.164738437022585
sg1231
F0.0
sg1226
F1000000.0
sg1227
F1000000.0
sg1228
F1000.0
sg1143
g312
sssI20
(dp1285
I19
g1284
sI28
(dp1286
g60
F24.795019478276856
sg1231
F6.11057399234322
sg1226
F1.9522029470012532
sg1227
F15.699828273586393
sg1228
F0.049110754837901276
sg1143
g312
ssI13
g1269
ssI21
(dp1287
I24
(dp1288
g60
F2.0
sg1231
F12.397509739138428
sg1226
F0.20708385114548455
sg1227
F1.5595696437228526
sg1228
F0.26851666908364485
sg1143
g312
ssI29
(dp1289
g60
F24.795019478276856
sg1231
F6.110573992343217
sg1226
F1.952202947001254
sg1227
F15.6998282735864
sg1228
F0.04911075483790131
sg1143
g312
ssI13
g1270
ssI22
(dp1290
I17
g1279
sI1
g1230
ssI23
(dp1291
I18
g1282
sI6
g1250
ssI24
(dp1292
I9
g1258
sI21
g1288
ssI25
(dp1293
I17
g1278
ssI26
(dp1294
I18
g1281
ssI27
(dp1295
I2
g1235
ssI28
(dp1296
I20
g1286
ssI29
(dp1297
I21
g1289
ssI30
(dp1298
I1
g1232
ssI31
(dp1299
I15
g1275
ssI32
(dp1300
I7
g1254
ssI33
(dp1301
I6
g1251
ssI34
(dp1302
I9
g1260
ssI1001
(dp1303
I1
g1225
sI3
g1239
ssI1002
(dp1304
I5
g1246
ssI6001
(dp1305
I10
g1262
sI6
g1249
ssI6002
(dp1306
I8
g1256
sssS'adj'
p1307
g1223
sbsS'count'
p1308
I10625
sS'dev_design_values'
p1309
(lp1310
F0.01916618280523744
aF0.0
asS'removed_horiz_dv_index'
p1311
I0
sS'fixed_constraints'
p1312
(lp1313
g333
asS'corner_info'
p1314
(lp1315
(lp1316
F5.164738437022585
aF0.0
aa(lp1317
F2.0
aF6.840242084700556
aa(lp1318
F2.0
aF6.840242084700556
aa(lp1319
F2.0
aF24.795019478276856
aasS'cost_funcs'
p1320
(lp1321
sS'gap'
p1322
F1.2
sS'all_trace_lines'
p1323
(lp1324
g402
ag278
ag274
ag406
ag333
ag398
ag268
asS'opt_to_sym_index'
p1325
(lp1326
(I1
I1
tp1327
a(I2
I1
tp1328
a(I2
I2
tp1329
a(I2
I3
tp1330
a(I2
I4
tp1331
a(I3
I0
tp1332
a(I3
I1
tp1333
asS'v_design_var_dict'
p1334
NsS'trace_layout'
p1335
(lp1336
g476
ag623
ag663
ag432
ag561
ag499
ag686
asS'v_min_max_overflow'
p1337
(F0.0
F0.0
tp1338
sS'layout_ready'
p1339
I01
sS'E_graph'
p1340
(ipowercad.sym_layout.Electrical_meshing.Lumped_Graph
E_graph
p1341
(dp1342
S'sym_layout'
p1343
g258
sg794
g795
sg262
g263
sS'trace_info'
p1344
(lp1345
(lp1346
F5.164738437022585
aF0.0
aa(lp1347
F2.0
aF3.420121042350278
aa(lp1348
F2.0
aF3.420121042350278
aa(lp1349
F2.0
aF12.397509739138428
aa(lp1350
F6.840242084700559
aF1.6894260076567829
aa(lp1351
F6.840242084700559
aF3.889426007656784
aa(lp1352
F6.840242084700559
aF3.8894260076567804
aa(lp1353
F6.840242084700559
aF1.6894260076567846
aa(lp1354
F12.221147984686436
aF3.0107567102385673
aa(lp1355
F12.221147984686436
aF2.153981726784018
aa(lp1356
F24.795019478276856
aF6.110573992343217
aa(lp1357
F24.795019478276856
aF12.889426007656784
aa(lp1358
F24.795019478276856
aF12.88942600765678
aa(lp1359
F24.795019478276856
aF6.11057399234322
aa(lp1360
F3.3788520153135657
aF1.810756710238568
aa(lp1361
F3.3788520153135657
aF3.353981726784017
aa(lp1362
F2.0
aF1.7800000000000011
aa(lp1363
F2.0
aF0.030756710238566853
aa(lp1364
F2.0
aF0.17161250827272312
aa(lp1365
F2.0
aF1.9823692185112947
aa(lp1366
F3.3788520153135675
aF1.7800000000000011
aa(lp1367
F3.3788520153135675
aF3.384738437022584
aa(lp1368
F12.221147984686434
aF2.9800000000000004
aa(lp1369
F12.221147984686434
aF2.1847384370225846
aasg1003
g1004
sg1314
g1315
sS'corner_nodes'
p1370
(lp1371
(lp1372
I19
aI20
aa(lp1373
I17
aI22
aa(lp1374
I18
aI23
aa(lp1375
I21
aI24
aasg718
g134
sS'normal_trace_df'
p1376
g130
(g826
g132
Ntp1377
Rp1378
(dp1379
g830
(lp1380
sg832
S'dataframe'
p1381
sg834
g130
(g835
g132
Ntp1382
Rp1383
((lp1384
g839
(cpandas.indexes.base
Index
p1385
(dp1386
g842
g843
(g844
(I0
tp1387
g382
tp1388
Rp1389
(I1
(I9
tp1390
g162
(S'O4'
p1391
I0
I1
tp1392
Rp1393
(I3
S'|'
p1394
NNNI-1
I-1
I63
tp1395
bI00
(lp1396
S'ID'
p1397
aS'POI_Type'
p1398
aS'Data_Type'
p1399
aS'Point'
p1400
aS'Condition'
p1401
ag1139
aS'i'
p1402
aS'j'
p1403
aS'side'
p1404
atp1405
bsg16
Nstp1406
Rp1407
ag839
(g840
(dp1408
g842
g843
(g844
(I0
tp1409
g382
tp1410
Rp1411
(I1
(I27
tp1412
g162
(S'i8'
p1413
I0
I1
tp1414
Rp1415
(I3
S'<'
p1416
NNNI-1
I-1
I0
tp1417
bI00
S'\x00\x00\x00\x00\x00\x00\x00\x00\x01\x00\x00\x00\x00\x00\x00\x00\x02\x00\x00\x00\x00\x00\x00\x00\x03\x00\x00\x00\x00\x00\x00\x00\x04\x00\x00\x00\x00\x00\x00\x00\x05\x00\x00\x00\x00\x00\x00\x00\x06\x00\x00\x00\x00\x00\x00\x00\x07\x00\x00\x00\x00\x00\x00\x00\x08\x00\x00\x00\x00\x00\x00\x00\t\x00\x00\x00\x00\x00\x00\x00\n\x00\x00\x00\x00\x00\x00\x00\x0b\x00\x00\x00\x00\x00\x00\x00\x0c\x00\x00\x00\x00\x00\x00\x00\r\x00\x00\x00\x00\x00\x00\x00\x0e\x00\x00\x00\x00\x00\x00\x00\x0f\x00\x00\x00\x00\x00\x00\x00\x10\x00\x00\x00\x00\x00\x00\x00\x11\x00\x00\x00\x00\x00\x00\x00\x12\x00\x00\x00\x00\x00\x00\x00\x13\x00\x00\x00\x00\x00\x00\x00\x14\x00\x00\x00\x00\x00\x00\x00\x15\x00\x00\x00\x00\x00\x00\x00\x16\x00\x00\x00\x00\x00\x00\x00\x17\x00\x00\x00\x00\x00\x00\x00\x18\x00\x00\x00\x00\x00\x00\x00\x19\x00\x00\x00\x00\x00\x00\x00\x1a\x00\x00\x00\x00\x00\x00\x00'
p1418
tp1419
bsg16
Nstp1420
Rp1421
a(lp1422
g843
(g844
(I0
tp1423
g382
tp1424
Rp1425
(I1
(I9
I27
tp1426
g1393
I01
(lp1427
I0
aI0
aI0
aI0
aI0
aI1
aI1
aI1
aI2
aI2
aI2
aI2
aI2
aI3
aI3
aI3
aI4
aI4
aI4
aI4
aI4
aI5
aI5
aI5
aI6
aI6
aI6
aI2
aI4
aI4
aI9
aI9
aI5
aI4
aI9
aI2
aI4
aI4
aI9
aI9
aI1
aI4
aI9
aI2
aI5
aI5
aI9
aI9
aI1
aI4
aI9
aI5
aI4
aI9
ag445
ag406
ag398
aNaNag299
ag274
aNag636
ag278
ag268
aNaNag319
ag402
aNag533
ag344
ag326
aNaNag351
ag402
aNag356
ag274
aNag1163
ag1174
ag1176
ag1191
ag1193
ag1148
ag1178
ag1195
ag1167
ag1180
ag1182
ag1197
ag1199
ag322
ag1184
ag1201
ag1170
ag1156
ag1152
ag1203
ag1205
ag353
ag1186
ag1207
ag1159
ag1188
ag1209
aNaI01
aI01
aNaNaNaI01
aNaNaI01
aI01
aNaNaNaI01
aNaNaNaNaNaNaNaI01
aNaNaI01
aNaFnan
aFnan
aFnan
aFnan
aFnan
aFnan
aFnan
aFnan
aFnan
aFnan
aFnan
aFnan
aFnan
aFnan
aFnan
aFnan
aFnan
aFnan
aFnan
aFnan
aFnan
aFnan
aFnan
aFnan
aFnan
aFnan
aFnan
aFnan
aFnan
aFnan
aFnan
aFnan
aFnan
aFnan
aFnan
aFnan
aFnan
aFnan
aFnan
aFnan
aFnan
aFnan
aFnan
aFnan
aFnan
aFnan
aFnan
aFnan
aFnan
aFnan
aFnan
aFnan
aFnan
aFnan
aFnan
aFnan
aFnan
aFnan
aFnan
aFnan
aFnan
aFnan
aFnan
aFnan
aFnan
aFnan
aFnan
aFnan
aFnan
aFnan
aFnan
aFnan
aFnan
aFnan
aFnan
aFnan
aFnan
aFnan
aFnan
aFnan
aFnan
aFnan
aFnan
aFnan
aFnan
aFnan
aFnan
aFnan
aFnan
aFnan
aFnan
aFnan
aFnan
aFnan
aFnan
aFnan
aFnan
aFnan
aFnan
aFnan
aFnan
aFnan
aFnan
aFnan
aFnan
aFnan
aFnan
aFnan
atp1428
ba(lp1429
g839
(g1385
(dp1430
g842
g843
(g844
(I0
tp1431
g382
tp1432
Rp1433
(I1
(I9
tp1434
g1393
I00
(lp1435
g1397
ag1398
ag1399
ag1400
ag1401
ag1139
ag1402
ag1403
ag1404
atp1436
bsg16
Nstp1437
Rp1438
a(dp1439
g912
(dp1440
g914
g1384
sg915
(lp1441
(dp1442
g918
g919
(I0
I9
L1L
tp1443
Rp1444
sg922
g1425
sasstp1445
bsbsg1323
g1324
sS'boundary_connections'
p1446
(dp1447
sS'super_traces'
p1448
g263
sbsg1446
g1447
sS'ylen'
p1449
I7
sS'trace_graph_components'
p1450
(lp1451
(lp1452
(lp1453
g398
ag402
ag406
aa(lp1454
g351
ag319
aaa(lp1455
(lp1456
g274
ag268
ag278
aa(lp1457
aa(lp1458
(lp1459
g333
aa(lp1460
aasS'bondwire_design_values'
p1461
(lp1462
sS'h_rowcol_list'
p1463
(lp1464
g1101
ag1110
ag1119
ag1114
ag1105
asS'v_design_values'
p1465
(lp1466
NaF0.0
aF5.164738437022585
aF0.0
aF6.840242084700559
asg1344
g1345
sS'algorithm'
p1467
S'NSGAII'
p1468
sS'symbol_graph'
p1469
g130
(g1135
g132
Ntp1470
Rp1471
(dp1472
g1139
(dp1473
g344
(dp1474
sg445
(dp1475
sg299
(dp1476
sg636
(dp1477
sg1074
(dp1478
sg333
(dp1479
sg326
(dp1480
sg398
(dp1481
sg402
(dp1482
sg406
(dp1483
sg351
(dp1484
sg1082
(dp1485
sg533
(dp1486
sg268
(dp1487
sg278
(dp1488
sN(dp1489
sg274
(dp1490
sg356
(dp1491
sg1090
(dp1492
sg319
(dp1493
ssg1220
(dp1494
sg1222
(dp1495
g344
(dp1496
g351
(dp1497
sg333
(dp1498
ssg445
(dp1499
g402
(dp1500
ssg299
(dp1501
g319
(dp1502
sg278
(dp1503
ssg636
(dp1504
g274
(dp1505
ssg1074
(dp1506
N(dp1507
ssg333
(dp1508
g533
(dp1509
sg344
g1498
sg326
(dp1510
ssg326
(dp1511
g333
g1510
sg319
(dp1512
ssg398
(dp1513
g351
(dp1514
sg402
(dp1515
ssg402
(dp1516
g445
g1500
sg398
g1515
sg406
(dp1517
ssg406
(dp1518
g319
(dp1519
sg402
g1517
ssg351
(dp1520
g398
g1514
sg344
g1497
sg356
(dp1521
ssg1082
(dp1522
N(dp1523
ssg533
(dp1524
g333
g1509
ssg268
(dp1525
g274
(dp1526
sg356
(dp1527
ssg278
(dp1528
g299
g1503
sg274
(dp1529
ssN(dp1530
g1082
g1523
sg1074
g1507
sg1090
(dp1531
ssg274
(dp1532
g278
g1529
sg268
g1526
sg636
g1505
ssg356
(dp1533
g351
g1521
sg268
g1527
ssg1090
(dp1534
Ng1531
ssg319
(dp1535
g299
g1502
sg406
g1519
sg326
g1512
sssg1307
g1495
sbsg1370
g1371
sS'devices'
p1536
(lp1537
g319
ag351
asS'SymPoint'
p1538
g317
sS'trace_ylen'
p1539
I5
sS'points'
p1540
(lp1541
g351
ag319
ag636
ag533
ag445
asS'mode'
p1542
I7
sS'removed_vert_dv_index'
p1543
I0
sS'solution_lib'
p1544
(ipowercad.sol_browser.solution_lib
SolutionLibrary
p1545
(dp1546
S'measure_data'
p1547
(lp1548
(lp1549
F78.22869595794018
aF78.98340763531587
aF79.36286542124604
aF79.67907573728469
aF79.73592831956267
aF80.6939145525761
aF80.77579165289279
aF80.93401038312732
aF81.03486560931754
aF81.51253407980222
aF81.59487005019061
aF81.61169539293032
aF81.80639709959637
aF82.2429347131002
aF82.32916279093966
aF82.35687830409566
aF82.5343725014174
aF82.93794101277766
aF82.96593853760865
aF83.0029322984482
aF83.084395204088
aF83.59693150131622
aF84.02804702313581
aF84.1118962346187
aF84.8055319056925
aF85.14567444072608
aF85.31917402350552
aF85.86990404863636
aF86.2146393927585
aF86.9971514263471
aF87.22436938846525
aF87.38840039915767
aF87.4840021073577
aF87.9708523703145
aF88.35253028847441
aF88.54437974396735
aF89.01788420092505
aF89.2286467252299
aF89.39105650954177
aF89.48041618102674
aF89.52303762718937
aF89.54468291604
aF90.14012355030512
aF90.83674643730404
aF91.01467105844273
aF91.46324174817607
aF91.58237518608158
aF92.33878895602955
aF92.60121212248046
aF92.62509934020031
aF93.40484731727383
aF94.29525348301996
aF94.8481501636823
aF94.87334638107954
aF95.36667629343523
aF96.38191429405623
aF96.68515488147119
aF96.77773379600865
aF97.00876906989564
aF97.46437692893352
aF98.49248054188432
aF98.63862852412569
aF98.71720442931021
aF98.8160829289213
aF99.44297514745932
aF99.63362584875865
aF99.9085805509859
aF100.2296635035242
aF100.334088286832
aF100.95439466462267
aF101.17287516797984
aF101.61725497635469
aF101.911602796757
aF102.33441407462509
aF103.02291584536775
aF103.22504934249105
aF103.81233354140926
aF104.95014163169108
aF105.14049758943503
aF105.40338366747591
aF105.65072273527514
aF105.75827697106013
aF105.96504018704505
aF106.14458136737355
aF106.47428213123686
aF106.66472659899166
aF107.33655046569686
aF107.46746694735799
aF108.14997416000064
aF108.37044549346432
aF108.4865792276605
aF108.84384737882098
aF108.97648768559239
aF109.15894082905174
aF109.21223539294087
aF110.62751468594776
aF111.06523155001106
aF111.21511599936491
aF111.23377079681887
aF112.06009345321976
aF112.15987772770822
aF112.26925167869794
aF113.07791155723083
aF113.5045580234952
aF113.63481678000778
aF113.65502529822547
aF114.095384575769
aF114.53501037128339
aF114.99167381074956
aF115.66393954609248
aF116.07029612613279
aF117.99198886798698
aF118.82117045750643
aF119.27946467334338
aF119.5665839752287
aF119.62249397106744
aF120.55638744276763
aF120.96125969005001
aF121.26393001552574
aF121.69395277266321
aF122.1213939851605
aF122.5785163039084
aF123.93247613521686
aF124.01489434466063
aF124.1544307764546
aF124.70731525357863
aF125.13914513510187
aF125.44834428923973
aF126.05009587885807
aF126.45944322334358
aF127.0585853136415
aF127.45076617724172
aF128.3298980611488
aF128.64216558853857
aF129.23283772365426
aF129.27812873115062
aF129.69367071727874
aF129.97975150608983
aF130.68561448454625
aF130.87691256918907
aF131.09948620834956
aF131.4875333136123
aF132.83176101635553
aF132.98101554264213
aF134.11099949723766
aF134.35731971629383
aF135.5002334049318
aF135.98873945784814
aF136.70686618307246
aF138.0738455429855
aF138.31841450388728
aF138.39713228837505
aF139.3036664586548
aF139.86752065588877
aF142.04069092150021
aF142.4006532997857
aF142.54886106927069
aF142.601433171962
aF143.36242760760467
aF143.8368559036764
aF144.15163412098022
aF144.2548985037708
aF144.2548985037708
aF145.58154594027388
aF146.43233274700634
aF147.29881270752264
aF147.51613033553264
aF147.6576500603573
aF147.82059966379802
aF148.1658858117566
aF148.3723328724588
aF148.48532315672878
aF150.0142671818773
aF150.11116907677336
aF150.4453187792854
aF150.85566669575007
aF152.01529594276525
aF152.65797251034587
aF152.91611232345252
aF154.85272759717003
aF154.94474086510633
aF157.29612593843567
aF158.23632987351135
aF158.61012296323463
aF159.0901935602859
aF159.166214647852
aF159.65066306496442
aF162.66419024816688
aF164.3040344529059
aF164.30403445290597
aF164.30403445290597
aF164.30403445290597
aF164.30403445290597
aa(lp1550
F7.326210653867234
aF7.285156702737478
aF7.24853638519861
aF7.208133363158143
aF7.168704383913123
aF7.1397436408810036
aF7.057250119692199
aF7.026905419350254
aF7.018063298065595
aF6.9760882760155685
aF6.952794146828803
aF6.934482717053699
aF6.912016958718638
aF6.8692544227177255
aF6.860240067799967
aF6.85938238844906
aF6.83808298458958
aF6.812298187303116
aF6.784715416059064
aF6.7775659333651115
aF6.755980099136625
aF6.681875681927718
aF6.6758322905372935
aF6.667332095830016
aF6.5993353953156735
aF6.568045616401778
aF6.550872416783484
aF6.486614203509137
aF6.47688525818076
aF6.4128590734666275
aF6.385775447054337
aF6.391640816389361
aF6.348985505954921
aF6.297730908094109
aF6.2856587080549415
aF6.274063371747596
aF6.279872816556453
aF6.2174451950176435
aF6.205428346336693
aF6.204156652530721
aF6.203478680288095
aF6.173336695478787
aF6.1728132320579245
aF6.129622177975958
aF6.09486260806149
aF6.094635822624246
aF6.056526678897073
aF6.0208384275178
aF5.991420305055928
aF5.945672384623167
aF5.894227512029529
aF5.892439373767557
aF5.839243570996485
aF5.826219750493404
aF5.786983341825431
aF5.778035148809646
aF5.770767788797478
aF5.745280269382297
aF5.7623032666130545
aF5.68260738068431
aF5.680283625170549
aF5.668187248652851
aF5.650412383345573
aF5.623879515762088
aF5.610294481219748
aF5.588995809307065
aF5.5881181498207555
aF5.583282912181348
aF5.5456897615749075
aF5.52986981495299
aF5.526323726589759
aF5.51619267169903
aF5.490690729289609
aF5.470479626640852
aF5.443087777067963
aF5.419225784228638
aF5.377519527169099
aF5.353434469987095
aF5.352717885847353
aF5.352390190837922
aF5.318288166203374
aF5.3118697065854255
aF5.301614693661186
aF5.297006195889265
aF5.286206830306109
aF5.255074905851117
aF5.224711398719117
aF5.220286079145614
aF5.215142280436112
aF5.209892934772724
aF5.209703388631125
aF5.19310239008899
aF5.174146704323034
aF5.173013598144596
aF5.159915336219777
aF5.090726103150715
aF5.086876081489503
aF5.085640066098085
aF5.081057541124338
aF5.077145161112013
aF5.084002818920373
aF5.0656019186398185
aF5.021283310158536
aF5.000962876942722
aF4.993449832494809
aF4.992665710054054
aF4.974717471978421
aF4.961843627085525
aF4.948666766410162
aF4.92711143415017
aF4.897977828896325
aF4.841604384894383
aF4.817011291528653
aF4.847196581970923
aF4.7822759225387905
aF4.781113399076171
aF4.760451975406164
aF4.779124674052637
aF4.744937427326356
aF4.750959436550501
aF4.6959442732368695
aF4.688866373247289
aF4.647106474290804
aF4.64414033538549
aF4.641948645984032
aF4.628019187391173
aF4.587481920698533
aF4.580665320166625
aF4.568423872722628
aF4.557514606999696
aF4.544029038066908
aF4.533076229889696
aF4.5271105970698855
aF4.493013680470641
aF4.470791138263644
aF4.511394750597756
aF4.473869157648148
aF4.45930226824707
aF4.4266811983888825
aF4.416621329111505
aF4.395616701912289
aF4.391939847807226
aF4.365437394312408
aF4.345633617548412
aF4.337209001981924
aF4.309839912496685
aF4.3031412294028915
aF4.247905507513601
aF4.236109274714112
aF4.2209017380106255
aF4.214227886398155
aF4.18703708462211
aF4.214324511161244
aF4.12670018911577
aF4.106516560595681
aF4.1033097341514475
aF4.10025313426664
aF4.087608219713638
aF4.086108035163451
aF4.0842811130364725
aF4.054991434855957
aF4.0221185238036625
aF4.0221185238036625
aF4.020333083591673
aF4.0207890884467155
aF3.98173328419308
aF3.955613111457673
aF3.9826733458160577
aF3.9862785379458074
aF3.9843635896461547
aF3.98372342162534
aF3.946472269744978
aF3.9320042051531723
aF3.9348066609773706
aF3.9337571537808085
aF3.9300166992401833
aF3.8913894206671644
aF3.888285994123935
aF3.8869096676588195
aF3.8762588437144165
aF3.82353143206675
aF3.8178713397012487
aF3.8144938910973227
aF3.7942980290189436
aF3.809993361354178
aF3.8095477638975996
aF3.796312708789359
aF3.7941018171828436
aF3.791246775719025
aF3.7859928180381184
aF3.7859928180381184
aF3.7859928180381184
aF3.785992821005462
aa(lp1551
F1.6319400400849624
aF1.6248984286458625
aF1.6180576111850882
aF1.609406186328515
aF1.5983968026664908
aF1.5967164869375363
aF1.5754433397803371
aF1.5686606387750341
aF1.56670442009024
aF1.5609831075490679
aF1.5539077316866474
aF1.5503996627107008
aF1.5459223375914386
aF1.5382457417632827
aF1.5372217946560702
aF1.536639110290143
aF1.5334134906720547
aF1.528198946560474
aF1.5225212188455712
aF1.52133142826152
aF1.5160626597567985
aF1.5020314279592257
aF1.5050173837524636
aF1.503391822215932
aF1.4881388536259994
aF1.4879407794306745
aF1.4850953492327206
aF1.473185494623903
aF1.4731130021435517
aF1.4634209868407746
aF1.4603805205174114
aF1.4561357842098979
aF1.4533341806219169
aF1.4432301029025807
aF1.4423857869007493
aF1.4430364367936965
aF1.4400484542400007
aF1.429330792727555
aF1.4349895369392018
aF1.4342355259203794
aF1.4333599680801155
aF1.4242692677637683
aF1.4305576786057355
aF1.4273389633955134
aF1.4178264281810136
aF1.4242411060548834
aF1.4107485098906083
aF1.4105986334627887
aF1.405794888600561
aF1.3901203719126096
aF1.387040391908172
aF1.3908258062892873
aF1.3757395053061752
aF1.3818965802514487
aF1.372129760476608
aF1.377617849742175
aF1.3794669408858482
aF1.3714835257223403
aF1.366089412525848
aF1.3589283160246344
aF1.3681284809428687
aF1.3659698187841736
aF1.3592183164320417
aF1.3501899124414538
aF1.354996506887737
aF1.350143366666785
aF1.3510795626519596
aF1.3495612606019811
aF1.342040281261863
aF1.3418784398492858
aF1.3419428087874414
aF1.3460812408744063
aF1.3380628507815246
aF1.33499709921387
aF1.3303382088639304
aF1.324099588023315
aF1.3158791230832239
aF1.3193696012860614
aF1.3217054773163086
aF1.3252723008579224
aF1.3130011031396114
aF1.3117104078970057
aF1.3079470976813337
aF1.3101851381463032
aF1.3128578456729656
aF1.2982770462966917
aF1.2960158306099723
aF1.2967407800418025
aF1.2976581629672015
aF1.2986441363758674
aF1.2978124052730888
aF1.2941667384413793
aF1.2910632422341284
aF1.2895999846129642
aF1.287851618286862
aF1.2761948421277873
aF1.286227667817605
aF1.281123943092831
aF1.279446629565343
aF1.291392065539025
aF1.2776841349033288
aF1.2779769855203922
aF1.2718816775992892
aF1.2688316446200494
aF1.268104064357464
aF1.2672552660078824
aF1.2646823201806883
aF1.264607949121138
aF1.2612680359911779
aF1.2607002868067292
aF1.2515152740502657
aF1.2483361288730799
aF1.2480786219750308
aF1.246728455334798
aF1.2409414250532675
aF1.2356572209778052
aF1.2408981802648484
aF1.2398592811173297
aF1.236259517327796
aF1.230824349686697
aF1.2241970333238825
aF1.234223728963823
aF1.2286416755165943
aF1.2268865946890526
aF1.2181807168188759
aF1.232804897478719
aF1.2179437244036027
aF1.2131749595274015
aF1.2183623532827235
aF1.2175437205489033
aF1.215454935649587
aF1.2143771964239292
aF1.2238756949816356
aF1.2125988098650073
aF1.2103373213077098
aF1.2091112706931813
aF1.2073418370648619
aF1.202895355522678
aF1.2080345371002807
aF1.1991228055769816
aF1.1989028447607484
aF1.1972640823349638
aF1.2076284840650187
aF1.2006000453356198
aF1.2042380858147412
aF1.19402269968167
aF1.2085603545285166
aF1.205176261912459
aF1.1978059280751416
aF1.2039829165844096
aF1.205165572147972
aF1.2047504518799177
aF1.203134893295744
aF1.193884146442907
aF1.2075826926212876
aF1.2046659750865
aF1.208760351370702
aF1.1995324348886882
aF1.2050361712910946
aF1.2206748385340043
aF1.1957616523630068
aF1.1984025278344321
aF1.1984025278344321
aF1.2330986721894623
aF1.2138723869743315
aF1.2284377757162763
aF1.2204142273568885
aF1.210974494161487
aF1.2096201347575646
aF1.2084087168783397
aF1.2046836679752213
aF1.2040689373313276
aF1.2202271934593605
aF1.21607414199578
aF1.2192195178493128
aF1.2171274504299963
aF1.216438901011053
aF1.215908441420027
aF1.2167064199631474
aF1.2365628219952316
aF1.2205823712685477
aF1.2179791761959124
aF1.22953118586195
aF1.2348626948890717
aF1.229365944604587
aF1.2299680149104482
aF1.2336022888944267
aF1.2560406763738405
aF1.2636211438419638
aF1.2629612532408647
aF1.2629612532408647
aF1.2629612532408647
aF1.2629612523243416
aasS'individuals'
p1552
(lp1553
(lp1554
F3.3312499177637935
aF0.0
aF5.20020754429291
aF0.0
aF29.53813572043446
aF0.0
aF0.016159869613784548
aa(lp1555
F3.3717072618322206
aF0.0
aF5.263216767236229
aF0.0
aF29.38918575366992
aF0.0
aF0.013299189234629088
aa(lp1556
F3.394029001554217
aF0.0
aF5.258348617267675
aF0.0
aF29.322391010009206
aF0.0
aF0.03767342078171921
aa(lp1557
F3.4058868850876105
aF0.0
aF5.24216885679394
aF0.0
aF29.252798550391663
aF0.0
aF0.022772119750658022
aa(lp1558
F3.3827071935663797
aF0.0
aF5.233458300967741
aF0.0
aF29.18442403267934
aF0.0
aF0.03644943681338013
aa(lp1559
F3.441137029890939
aF0.0
aF5.331673639613275
aF0.0
aF29.00683131748648
aF0.0
aF0.0
aa(lp1560
F3.3975189559136285
aF0.0
aF5.275438197775536
aF0.0
aF28.890961613358954
aF0.0
aF0.03377252506864055
aa(lp1561
F3.3921756310085236
aF0.0
aF5.262018056500338
aF0.0
aF28.83168023998867
aF0.0
aF0.019094018553614558
aa(lp1562
F3.389117702821196
aF0.0
aF5.286353574754678
aF0.0
aF28.79108253691329
aF0.0
aF0.04718841881847924
aa(lp1563
F3.418184873678602
aF0.0
aF5.263304667679837
aF0.0
aF28.70957597240058
aF0.0
aF0.05410057355169249
aa(lp1564
F3.3912431687005693
aF0.0
aF5.292447529688065
aF0.0
aF28.621820403977708
aF0.0
aF0.03277185386401021
aa(lp1565
F3.3922747068718486
aF0.0
aF5.238437330447303
aF0.0
aF28.624782387651948
aF0.0
aF0.0
aa(lp1566
F3.388984027108292
aF0.0
aF5.254253632172593
aF0.0
aF28.555623988494627
aF0.0
aF0.023279790576369933
aa(lp1567
F3.3928624385112074
aF0.0
aF5.263648240236962
aF0.0
aF28.42797377959207
aF0.0
aF0.0
aa(lp1568
F3.39887928156789
aF0.0
aF5.255646873108555
aF0.0
aF28.415232547755522
aF0.0
aF0.02067663040300451
aa(lp1569
F3.394050355182366
aF0.0
aF5.2763998991474725
aF0.0
aF28.393896232013738
aF0.0
aF0.028916008239510835
aa(lp1570
F3.4011192846437592
aF0.0
aF5.253062385648802
aF0.0
aF28.35684234970222
aF0.0
aF0.018328025492701024
aa(lp1571
F3.395005148058239
aF0.0
aF5.325941088422858
aF0.0
aF28.21070822541344
aF0.0
aF0.017475906670077552
aa(lp1572
F3.385700631615583
aF0.0
aF5.270526069745953
aF0.0
aF28.188059880258017
aF0.0
aF8.849676056897279e-05
aa(lp1573
F3.3861590933260164
aF0.0
aF5.259678402716873
aF0.0
aF28.178792367818627
aF0.0
aF0.0
aa(lp1574
F3.3673471665799513
aF0.0
aF5.282623129827903
aF0.0
aF28.11068234558211
aF0.0
aF0.06952571559782605
aa(lp1575
F3.350962731504663
aF0.0
aF5.240868811825184
aF0.0
aF27.922036085171307
aF0.0
aF0.010129840655493714
aa(lp1576
F3.394582351610662
aF0.0
aF5.260028929518984
aF0.0
aF27.879640855313323
aF0.0
aF0.024733726223127195
aa(lp1577
F3.3920504664395934
aF0.0
aF5.265853579690609
aF0.0
aF27.84766173455227
aF0.0
aF0.0246738906965392
aa(lp1578
F3.3434824614000087
aF0.0
aF5.471712056573718
aF0.0
aF27.508314783583103
aF0.3379979482340747
aF0.0
aa(lp1579
F3.396052276391392
aF0.0
aF5.258043505472086
aF0.0
aF27.537064706185692
aF0.0
aF0.03154553694649924
aa(lp1580
F3.394124824041886
aF0.0
aF5.257692564414054
aF0.0
aF27.47935008372044
aF0.0
aF0.02834386367942121
aa(lp1581
F3.370887709873462
aF0.0
aF5.266475225916631
aF0.0
aF27.259494492139446
aF0.0
aF0.05659675708736006
aa(lp1582
F3.386835733554778
aF0.0
aF5.289108427002902
aF0.0
aF27.183627912925477
aF0.0
aF0.0
aa(lp1583
F3.3847385223950153
aF0.0
aF5.303276702149232
aF0.0
aF26.935721426113723
aF0.0
aF0.0
aa(lp1584
F3.3941993619304847
aF0.0
aF5.255812406510628
aF0.0
aF26.890099360603642
aF0.0
aF0.02715100821108269
aa(lp1585
F3.342315764932697
aF0.0
aF5.576493252655853
aF0.0
aF26.698188834047606
aF0.379850463054787
aF0.0
aa(lp1586
F3.3751387792135272
aF0.0
aF5.239182041770561
aF0.0
aF26.772517224042833
aF0.0
aF0.03647001795395114
aa(lp1587
F3.34464594106705
aF0.0
aF5.256818073909036
aF0.0
aF26.558232832715024
aF0.0
aF0.04102758869618817
aa(lp1588
F3.354452251970823
aF0.0
aF5.2936391774710625
aF0.0
aF26.45631845418847
aF0.0
aF0.0
aa(lp1589
F3.3792374227440565
aF0.0
aF5.261586950608278
aF0.0
aF26.450659863010515
aF0.0
aF0.03897539875970875
aa(lp1590
F3.3398743714629227
aF0.012971481038913466
aF5.500789209468213
aF0.0
aF26.197817810734964
aF0.0
aF0.0
aa(lp1591
F3.316449456329865
aF0.0
aF5.365023256410887
aF0.0
aF26.10244511870167
aF0.0
aF0.0
aa(lp1592
F3.395711749355933
aF0.0
aF5.191464254606874
aF0.0
aF26.22964260462105
aF0.017282312764246813
aF0.0
aa(lp1593
F3.3895941854122156
aF0.0
aF5.223735680619987
aF0.0
aF26.186184445479682
aF0.0
aF0.0031469395316493514
aa(lp1594
F3.3812201970347058
aF0.0
aF5.252480712373596
aF0.0
aF26.153089053665106
aF0.0
aF0.0
aa(lp1595
F3.3270660325909445
aF0.0
aF5.246852767617511
aF0.0
aF26.03912807874576
aF0.0
aF0.0024868694914498427
aa(lp1596
F3.3971478672869995
aF0.0
aF5.277025172324802
aF0.0
aF25.991288335188887
aF0.0
aF0.0
aa(lp1597
F3.4267484915816095
aF0.0
aF5.251019953203965
aF0.0
aF25.837087156707618
aF0.0
aF0.046266495799371185
aa(lp1598
F3.374504726914339
aF0.0
aF5.256890373795748
aF0.0
aF25.67823213585487
aF0.0
aF0.031502649661789665
aa(lp1599
F3.444893438450031
aF0.0
aF5.2319721293600505
aF0.0
aF25.680596587033012
aF0.0
aF0.0
aa(lp1600
F3.3540795313807608
aF0.0
aF5.287999210641949
aF0.0
aF25.459611723199238
aF0.0
aF0.00011052970282615289
aa(lp1601
F3.405392263016518
aF0.0
aF5.254449561697218
aF0.0
aF25.329179706679607
aF0.0
aF0.03579149125703112
aa(lp1602
F3.395711177693273
aF0.0
aF5.200236120215063
aF0.0
aF25.235100862642426
aF0.0
aF0.0007557388915879992
aa(lp1603
F3.300671489864948
aF0.0
aF5.370750399814606
aF0.0
aF25.026680201241142
aF0.47666924527229393
aF0.0
aa(lp1604
F3.336552954019884
aF0.0
aF5.202549104651496
aF0.0
aF24.87329786886524
aF0.29012956270983603
aF0.023189198592103142
aa(lp1605
F3.3778953229772015
aF0.0
aF5.263412391021809
aF0.0
aF24.670153800599177
aF0.0
aF0.0
aa(lp1606
F3.3004558890103883
aF0.0
aF5.5272570898756435
aF0.0
aF24.326045626034137
aF0.4610949374256388
aF0.0
aa(lp1607
F3.3835669746917625
aF0.0
aF5.243037757232617
aF0.0
aF24.50433907521883
aF0.4179294643503577
aF0.0
aa(lp1608
F3.3338781565399827
aF0.0
aF5.290583751239658
aF0.0
aF24.25420652036288
aF0.40450793595281315
aF0.0
aa(lp1609
F3.4017481900115727
aF0.0
aF5.258152507075167
aF0.0
aF24.0697381460823
aF0.0
aF0.03394178832136718
aa(lp1610
F3.432952704629335
aF0.0
aF5.252648248618632
aF0.0
aF24.03401330493476
aF0.0
aF0.046451939969536345
aa(lp1611
F3.3824573853753828
aF0.0
aF5.237342621706003
aF0.0
aF23.91403289360724
aF0.0
aF0.0369353210661637
aa(lp1612
F3.3061045991424307
aF0.11792398209046004
aF5.607129434955979
aF0.0
aF23.650702360751833
aF0.33238056225456086
aF0.0
aa(lp1613
F3.336552954019884
aF0.0
aF5.202549104651496
aF0.0
aF23.622363690167063
aF0.07590003329979085
aF0.0
aa(lp1614
F3.4423452868068845
aF0.0
aF5.259399644166847
aF0.0
aF23.489306442078952
aF0.0
aF0.0
aa(lp1615
F3.4364135632273864
aF0.0
aF5.245519725315409
aF0.0
aF23.43472800414866
aF0.0
aF4.350541219964518e-05
aa(lp1616
F3.3887012528165084
aF0.0
aF5.271503548068927
aF0.0
aF23.321773281957313
aF0.0
aF0.03027379437574009
aa(lp1617
F3.3333175568251057
aF0.0
aF5.417642819675603
aF0.0
aF23.176641045585683
aF0.34831307034801656
aF0.0
aa(lp1618
F3.401505565602757
aF0.0
aF5.217217815199699
aF0.0
aF23.12592900128132
aF0.0
aF0.0
aa(lp1619
F3.379482429943978
aF0.0
aF5.18945393384155
aF0.0
aF23.03095825712883
aF0.0
aF0.0
aa(lp1620
F3.392089372960922
aF0.0
aF5.256550309508757
aF0.0
aF22.960831689702097
aF0.0
aF0.031694206824253286
aa(lp1621
F3.394797043381386
aF0.0
aF5.579381169156601
aF0.0
aF22.830890164495898
aF0.5117999465910367
aF0.0
aa(lp1622
F3.354943450992483
aF0.0
aF5.184091445252753
aF0.0
aF22.77212097682898
aF0.0
aF0.00015025403267110608
aa(lp1623
F3.378275430197873
aF0.0
aF5.251685529381369
aF0.0
aF22.613758865991205
aF0.0
aF0.05384294056169235
aa(lp1624
F3.3846228952386586
aF0.0
aF5.277779606214984
aF0.0
aF22.554360160414845
aF0.0
aF0.03906444461708515
aa(lp1625
F3.445216354549175
aF0.0
aF5.218354018304018
aF0.0
aF22.528262361207332
aF0.0
aF0.0
aa(lp1626
F3.3956374496971864
aF0.0
aF5.2563501711329295
aF0.0
aF22.347156998403932
aF0.0
aF0.038451180990974734
aa(lp1627
F3.392541992808116
aF0.0
aF5.260964859457321
aF0.0
aF22.2105011868174
aF0.0
aF0.03781943760377118
aa(lp1628
F3.383345850801658
aF0.0
aF5.307423699088174
aF0.0
aF21.976825528620438
aF0.0
aF0.03415856534407113
aa(lp1629
F3.349777324680727
aF0.0
aF5.263440472124038
aF0.0
aF21.8627283509422
aF0.0
aF0.009639585459466755
aa(lp1630
F3.3221615694351296
aF0.0
aF5.226133578096556
aF0.0
aF21.63982463101761
aF0.0
aF0.03714084429549415
aa(lp1631
F3.3992302649155177
aF0.0
aF5.254761613273404
aF0.0
aF21.412794525145685
aF0.0
aF0.008458481229663578
aa(lp1632
F3.4264786498386304
aF0.0
aF5.254636441094311
aF0.0
aF21.398764751254348
aF0.0
aF0.0
aa(lp1633
F3.4669117097278734
aF0.0
aF5.2588767445201405
aF0.0
aF21.383441868919945
aF0.0
aF0.0
aa(lp1634
F3.382934299014452
aF0.0
aF5.254224345606058
aF0.0
aF21.169390924187535
aF0.0
aF0.007043212855738043
aa(lp1635
F3.378853359808807
aF0.0
aF5.265764114200037
aF0.0
aF21.12823827236324
aF0.0
aF0.043682957983143526
aa(lp1636
F3.3527509841368097
aF0.0
aF5.282240158279755
aF0.0
aF21.020319295994163
aF0.0
aF8.120884410688445e-05
aa(lp1637
F3.384739807985972
aF0.0
aF5.249360462710265
aF0.0
aF21.02013391873202
aF0.0
aF0.0
aa(lp1638
F3.4311177088016485
aF0.0
aF5.199953635267172
aF0.0
aF20.99850800439425
aF0.0
aF0.01632008603836382
aa(lp1639
F3.316694450336891
aF0.0
aF5.230292747352055
aF0.0
aF20.752661371790218
aF0.0
aF0.0
aa(lp1640
F3.3428046095867185
aF0.0
aF5.397237908905151
aF0.0
aF20.56890731493958
aF0.3678586867381452
aF0.0
aa(lp1641
F3.3538192687997777
aF0.0
aF5.161550855247386
aF0.0
aF20.571657235702137
aF0.0
aF0.0
aa(lp1642
F3.377859647780731
aF0.0
aF5.520933117394744
aF0.0
aF20.35944624535139
aF0.3649065091311129
aF0.0
aa(lp1643
F3.3937100128852693
aF0.0
aF5.297520911194607
aF0.0
aF20.340551941626103
aF0.0
aF0.030898905334543793
aa(lp1644
F3.3943390248143124
aF0.0
aF5.655945652382852
aF0.0
aF20.26635597614411
aF0.5137663833456061
aF0.0
aa(lp1645
F3.37042206734837
aF0.0
aF5.416566207289704
aF0.0
aF20.144846676179252
aF0.11406355920877066
aF0.0
aa(lp1646
F3.3644306052695594
aF0.0
aF5.256888435546873
aF0.0
aF20.112051577051524
aF0.0
aF0.0024585004525248732
aa(lp1647
F3.3506713059735396
aF0.0
aF5.245217912213095
aF0.08249608525940147
aF20.01933714757262
aF0.0
aF0.0
aa(lp1648
F3.3506713059735396
aF0.0
aF5.245217912213095
aF0.0
aF20.01933714757262
aF0.0
aF0.0
aa(lp1649
F3.3285872366277434
aF0.0
aF5.193353388010956
aF0.0
aF19.55520917323443
aF0.0
aF0.008811392785785714
aa(lp1650
F3.447942560111918
aF0.0
aF5.24911242952059
aF0.0
aF19.593892080778822
aF0.2506596886685185
aF0.0
aa(lp1651
F3.3927547459230984
aF0.0
aF5.221252071966651
aF0.0
aF19.467140136778212
aF0.0
aF0.005281786115593452
aa(lp1652
F3.3812033143144693
aF0.0
aF5.336476761666706
aF0.0
aF19.431430993201772
aF0.19340866163784617
aF0.0
aa(lp1653
F3.521464126295009
aF0.0
aF5.194880703888864
aF0.0
aF19.401235561695053
aF0.0
aF0.0
aa(lp1654
F3.3603211987124073
aF0.0
aF5.51538008698205
aF0.0
aF19.094762452234587
aF0.0
aF0.0
aa(lp1655
F3.3924599839359915
aF0.07544985857445524
aF5.523391115934541
aF0.0
aF19.09917533944935
aF0.3100161375668578
aF0.0
aa(lp1656
F3.390701715042019
aF0.0
aF5.279246478865423
aF0.0
aF18.88136812060242
aF0.0
aF0.003613765308107352
aa(lp1657
F3.388283262599438
aF0.0
aF5.269288409107306
aF0.0
aF18.74695338689719
aF0.0
aF0.04020084969351864
aa(lp1658
F3.3911860666630647
aF0.0
aF5.229359282291345
aF0.0
aF18.715224823073086
aF0.0
aF0.002958767126491557
aa(lp1659
F3.3829004571868504
aF0.0
aF5.241831193795782
aF0.0
aF18.695640102299862
aF0.0
aF0.004076895919003527
aa(lp1660
F3.381794569046368
aF0.0
aF5.23638052318717
aF0.0
aF18.558485750696846
aF0.0
aF0.01169656206359386
aa(lp1661
F3.401419863206696
aF0.0
aF5.250599072651614
aF0.0
aF18.44896565265187
aF0.0
aF0.04960772980078154
aa(lp1662
F3.3836242785954482
aF0.0
aF5.282833586149526
aF0.0
aF18.27886464617067
aF0.0
aF0.0026786194990769535
aa(lp1663
F3.4102512138210663
aF0.0
aF5.271878301712568
aF0.0
aF18.109446324587157
aF0.0
aF0.009696873544420144
aa(lp1664
F3.3501072843394457
aF0.0
aF5.244548430379644
aF0.0
aF17.903111679047424
aF0.0
aF0.0
aa(lp1665
F3.3975322454417283
aF0.0
aF5.27163256294893
aF0.0
aF17.370996204342564
aF0.0
aF0.0
aa(lp1666
F3.4302280908515073
aF0.0
aF5.269452554976889
aF0.0
aF17.158040855444803
aF0.0
aF0.015211578124239447
aa(lp1667
F3.370401228754907
aF0.0
aF5.677004442311162
aF0.0
aF16.89250559425975
aF0.0
aF0.0
aa(lp1668
F3.399037794957175
aF0.0
aF5.2558130996703785
aF0.0
aF16.887278517647207
aF0.0
aF0.04419709906809552
aa(lp1669
F3.349459806329358
aF0.1434178693729093
aF5.608343083937086
aF0.0
aF16.751190422593254
aF0.5403940706429295
aF0.0
aa(lp1670
F3.4270503908190832
aF0.0
aF5.293090451907815
aF0.0
aF16.61288036383454
aF0.0
aF0.00013180803392765308
aa(lp1671
F3.3874487390245664
aF0.0
aF5.5828474682025675
aF0.0
aF16.40492195897796
aF0.0
aF0.0
aa(lp1672
F3.3967238005181146
aF0.07440421565152393
aF5.595026684263229
aF0.0
aF16.313569611642887
aF0.3181245438382649
aF0.0
aa(lp1673
F3.3217061933665257
aF0.0
aF5.630313572680411
aF0.0
aF16.090933286756027
aF0.0
aF0.0
aa(lp1674
F3.336044566099047
aF0.0
aF5.800610037823803
aF0.0
aF15.958498438790144
aF0.5637896578996824
aF0.0
aa(lp1675
F3.4452769639565552
aF0.0
aF5.245360906082036
aF0.0
aF16.013501015550837
aF0.0
aF0.003389395115654921
aa(lp1676
F3.4316412420185043
aF0.0
aF5.281902854223528
aF0.0
aF15.572286427067391
aF0.0
aF0.0
aa(lp1677
F3.4149523122229146
aF0.0
aF5.299084335459314
aF0.0
aF15.52461611594012
aF0.0
aF0.0
aa(lp1678
F3.323586952649272
aF0.0
aF5.753359528396697
aF0.0
aF15.322402869467327
aF0.3610845126767178
aF0.0
aa(lp1679
F3.503067453995809
aF0.0
aF5.405470257103042
aF0.0
aF15.404095678653976
aF0.2008599032147037
aF0.0
aa(lp1680
F3.395621893370368
aF0.0
aF5.582457352354781
aF0.0
aF15.122280538194985
aF0.5141463904335174
aF0.0
aa(lp1681
F3.3303718477069477
aF0.0
aF5.259865826095993
aF0.0
aF14.985736277601568
aF0.0
aF0.004143713788564649
aa(lp1682
F3.4014981215496873
aF0.0
aF5.234672565807115
aF0.0
aF14.88522634858368
aF0.0
aF0.00561257717884371
aa(lp1683
F3.40316884560324
aF0.0
aF5.259365681206996
aF0.0
aF14.757691464629406
aF0.0
aF0.03253121528200533
aa(lp1684
F3.3891333773054626
aF0.0
aF5.3011399931604135
aF0.0
aF14.551634269154402
aF0.0
aF0.0
aa(lp1685
F3.3864279963792145
aF0.0
aF5.316232151521686
aF0.0
aF14.425614585384565
aF0.0
aF0.007030543879226901
aa(lp1686
F3.5069546281482555
aF0.059748299042531636
aF5.577893167677383
aF0.0
aF14.252549192351045
aF0.31846048148495176
aF0.0
aa(lp1687
F3.3993217248251844
aF0.0
aF5.272491472280048
aF0.0
aF14.076067764455093
aF0.0
aF0.0
aa(lp1688
F3.3915092081982534
aF0.0
aF5.256511188554323
aF0.0
aF13.886470015909598
aF0.0
aF0.02390448152267373
aa(lp1689
F3.332776255017284
aF0.0
aF5.620924594224389
aF0.0
aF13.769347648501459
aF0.0
aF0.0
aa(lp1690
F3.3618389193224933
aF0.0
aF5.675040956852469
aF0.0
aF13.666359454144557
aF0.2792542400674494
aF0.0
aa(lp1691
F3.30702214936952
aF0.0
aF5.410583597867969
aF0.0
aF13.54897092332746
aF0.0
aF0.0
aa(lp1692
F3.3912560283082898
aF0.0
aF5.249959839094606
aF0.0
aF13.437411213359614
aF0.0
aF0.021880764660261575
aa(lp1693
F3.328263102179254
aF0.0
aF5.716217987516507
aF0.0
aF13.261765714577972
aF0.47775777428177374
aF0.0
aa(lp1694
F3.3145711940626863
aF0.09388295011113708
aF5.185777614261113
aF0.0
aF13.226707324858761
aF0.1351666440663153
aF0.0
aa(lp1695
F3.3176853985547314
aF0.0
aF5.617483588529877
aF0.0
aF13.073699897907508
aF0.42844744966951104
aF0.0
aa(lp1696
F3.409141583689321
aF0.0
aF5.234235050384935
aF0.0
aF12.793032154483832
aF0.0
aF0.0
aa(lp1697
F3.387108117400842
aF0.0
aF5.602647140264419
aF0.0
aF12.684461804583663
aF0.531763178605319
aF0.0
aa(lp1698
F3.392770221834664
aF0.0
aF5.548508440391248
aF0.0
aF12.34635751364646
aF0.2502152861840651
aF0.0
aa(lp1699
F3.3270585299969353
aF0.12009167049948302
aF5.6239308710153555
aF0.0
aF12.185768499695357
aF0.5590210650806642
aF0.0
aa(lp1700
F3.4271520870914474
aF0.0
aF5.33927347618056
aF0.0
aF11.971746575954581
aF0.0
aF0.050869374801747545
aa(lp1701
F3.4301916037623186
aF0.0
aF5.169542087234355
aF0.0
aF11.841652288076585
aF0.23838287997252666
aF0.0
aa(lp1702
F3.3240612144930006
aF0.0
aF5.166145340853335
aF0.0
aF11.522563134969355
aF0.032054440599720166
aF0.0
aa(lp1703
F3.37712941879949
aF0.0
aF5.264171177033258
aF0.0
aF11.13745730794166
aF0.0
aF0.007370597022194984
aa(lp1704
F3.3894310759043047
aF0.0
aF5.249994714925059
aF0.0
aF11.074159564667262
aF0.0
aF0.0
aa(lp1705
F3.4343091739643685
aF0.0
aF5.333832483929222
aF0.0
aF11.079883132363232
aF0.38364591644049184
aF0.0
aa(lp1706
F3.3707398435529186
aF0.13603762557322938
aF5.542691355077586
aF0.0
aF10.706596744586037
aF0.20598945834505228
aF0.0
aa(lp1707
F3.308972885113758
aF0.0
aF5.20662640323732
aF0.0
aF10.532590139049377
aF0.3267714452268749
aF0.0
aa(lp1708
F3.4513623577387036
aF0.0
aF5.51912956158761
aF0.0
aF9.942067649605583
aF0.4555619068547554
aF0.0
aa(lp1709
F3.4015325618696997
aF0.0
aF5.52092692065025
aF0.0
aF9.791021192948293
aF0.3537170813233873
aF0.0
aa(lp1710
F3.4088265807840927
aF0.0
aF5.203345966654039
aF0.0
aF9.785592241443617
aF0.023731580088067233
aF0.0
aa(lp1711
F3.3475967340654282
aF0.0
aF5.4778177738211316
aF0.0
aF9.691945613917333
aF0.3611883164881361
aF0.0
aa(lp1712
F3.411505402835414
aF0.0
aF5.6812029571277165
aF0.0
aF9.483198780769314
aF0.45769536269538513
aF0.0
aa(lp1713
F3.567878859491115
aF0.0
aF5.574106120129125
aF0.0
aF9.466039400216564
aF0.4140910577989316
aF0.0
aa(lp1714
F3.3013359013687995
aF0.0
aF5.631240562837065
aF0.0
aF9.163364790604415
aF0.4263663578548226
aF0.0
aa(lp1715
F3.316347089004207
aF0.0
aF5.168564335950208
aF0.0
aF9.19292351600286
aF0.2583412981995252
aF0.0
aa(lp1716
F3.316347089004207
aF0.0
aF5.168564335950208
aF0.0
aF9.19292351600286
aF0.2583412981995253
aF0.0
aa(lp1717
F3.6878527993470565
aF0.0
aF5.240997753837431
aF0.0
aF9.043657642115452
aF0.4354324606656659
aF0.0
aa(lp1718
F3.419525662692121
aF0.0
aF5.258059669245063
aF0.0
aF8.583807058545872
aF0.0
aF0.0
aa(lp1719
F3.6064371742487777
aF0.0
aF5.234419342672601
aF0.0
aF8.444616200974782
aF0.3214856707957225
aF0.0
aa(lp1720
F3.5310853423600426
aF1.1125653724018927
aF4.049399184377639
aF0.0
aF8.333091972328713
aF0.3951791269303379
aF0.0
aa(lp1721
F3.3773737138804734
aF0.0
aF5.195660788902385
aF0.0
aF8.18293065995816
aF0.0
aF0.0
aa(lp1722
F3.3573257975100987
aF0.0
aF5.260460768547359
aF0.0
aF8.112404703305446
aF0.0
aF0.0
aa(lp1723
F3.3812681439206305
aF0.0
aF5.658546448526
aF0.0
aF7.977720634881854
aF0.3544751018836713
aF0.0
aa(lp1724
F3.3389136215492736
aF0.0
aF5.735478430090956
aF0.0
aF7.878563249121779
aF0.36476401212455434
aF0.0
aa(lp1725
F3.3389136215492736
aF0.0
aF5.41628020105939
aF0.0
aF7.878563249121779
aF0.36476401212455434
aF0.0
aa(lp1726
F3.5119682153588423
aF0.0
aF5.59936777671675
aF0.0
aF7.491949321857227
aF0.5318017869553758
aF0.0
aa(lp1727
F3.3993496725253802
aF0.0
aF5.197350076232938
aF0.0
aF7.4376143974726645
aF0.0
aF0.0
aa(lp1728
F3.4266546668096423
aF0.0
aF5.222358821056597
aF0.0
aF7.347693622677035
aF0.0
aF0.0
aa(lp1729
F3.3965715309172593
aF0.0
aF5.271260059568803
aF0.0
aF7.197402353993581
aF0.0
aF0.007824759206844997
aa(lp1730
F3.378852015313566
aF0.0
aF5.164738437022585
aF0.0
aF6.840242084700559
aF0.01916618280523744
aF0.0
aa(lp1731
F3.374608808056416
aF0.4424760260290914
aF4.926531324084178
aF0.0
aF6.6169414603911685
aF0.16491412576964848
aF0.0
aa(lp1732
F3.3605180299498776
aF0.0
aF5.239123645458386
aF0.0
aF6.543836865879154
aF0.0
aF0.0016468263429698122
aa(lp1733
F3.532972277550164
aF0.0
aF5.307049066037268
aF0.0
aF6.024019581291965
aF0.0
aF0.03397224686431976
aa(lp1734
F3.41146316194399
aF0.0
aF5.278858282302065
aF0.0
aF5.938175204940951
aF0.34374922812272846
aF0.0
aa(lp1735
F3.35078522908982
aF0.0991005291319054
aF5.612454532556991
aF0.0
aF5.135938182768353
aF0.4926422996069947
aF0.0
aa(lp1736
F3.3858474842350947
aF0.0
aF5.224535947962943
aF0.0
aF4.913535528353911
aF0.0
aF0.01738841070218724
aa(lp1737
F3.474420274605656
aF0.0
aF5.386579078212238
aF0.0
aF4.81617062917514
aF0.35874411251697336
aF0.0
aa(lp1738
F3.374998216188688
aF0.0
aF5.410836342764593
aF0.0
aF4.624811995686958
aF0.16582822012108614
aF0.0
aa(lp1739
F3.3633895276171053
aF0.0
aF5.257204025752135
aF0.0
aF4.6135838246227365
aF0.0
aF0.02063669991893152
aa(lp1740
F3.389903262392849
aF0.0
aF5.172651915250558
aF0.0
aF4.4833287335327086
aF0.0
aF0.002685689130532083
aa(lp1741
F3.534554188830965
aF0.0
aF5.41565070671551
aF0.0
aF3.569700677745433
aF0.27148149814999445
aF0.0
aa(lp1742
F3.5366405919531645
aF0.0
aF5.4132082089715245
aF0.0
aF3.057671839950546
aF0.35012746119322846
aF0.0
aa(lp1743
F3.5366405919531645
aF0.0
aF5.413208208971523
aF0.0
aF3.0576718399505456
aF0.39639204544854806
aF0.0
aa(lp1744
F3.536640591953165
aF0.0
aF5.413208208971523
aF0.0
aF3.0576718399505456
aF0.3963920454485481
aF0.0
aa(lp1745
F3.5366405919531645
aF0.0
aF5.413208208971523
aF0.0
aF3.0576718399505456
aF0.3963920454485481
aF0.0
aa(lp1746
F3.536640591953164
aF0.0
aF5.413208208971523
aF0.0
aF3.0576718399505456
aF0.3963920454485481
aF0.0
aasS'measure_names_units'
p1747
(lp1748
(g230
g231
tp1749
a(g233
g234
tp1750
a(g236
g237
tp1751
asbsS'dev_dv_list'
p1752
(lp1753
(lp1754
g319
aa(lp1755
g351
aasS'tol_constraints'
p1756
(lp1757
sS'bondwires'
p1758
(lp1759
g356
ag299
ag344
ag326
asS'trace_graph'
p1760
g130
(g1135
g132
Ntp1761
Rp1762
(dp1763
g1139
(dp1764
g333
(dp1765
sg398
(dp1766
sg402
(dp1767
sg406
(dp1768
sg268
(dp1769
sg278
(dp1770
sg274
(dp1771
ssg1220
(dp1772
sg1222
(dp1773
g333
(dp1774
sg398
(dp1775
g402
(dp1776
ssg402
(dp1777
g398
g1776
sg406
(dp1778
ssg406
(dp1779
g402
g1778
ssg268
(dp1780
g274
(dp1781
ssg278
(dp1782
g274
(dp1783
ssg274
(dp1784
g268
g1781
sg278
g1783
sssg1307
g1773
sbsbsS'tbl_bondwire_connect'
p1785
g130
(g826
g132
Ntp1786
Rp1787
(dp1788
g830
g831
sg832
g833
sg834
g130
(g835
g132
Ntp1789
Rp1790
((lp1791
g839
(g1385
(dp1792
g842
g843
(g844
(I0
tp1793
g382
tp1794
Rp1795
(I1
(I9
tp1796
g885
I00
(lp1797
S'bw_type'
p1798
aS'start'
p1799
aS'stop'
p1800
aS'obj'
p1801
aI0
aI1
aI2
aI3
aI4
atp1802
bsg16
Nstp1803
Rp1804
ag839
(g840
(dp1805
g842
g843
(g844
(I0
tp1806
g382
tp1807
Rp1808
(I1
(I4
tp1809
g851
I00
S'\x00\x00\x00\x00\x00\x00\x00\x00\x01\x00\x00\x00\x00\x00\x00\x00\x02\x00\x00\x00\x00\x00\x00\x00\x03\x00\x00\x00\x00\x00\x00\x00'
p1810
tp1811
bsg16
Nstp1812
Rp1813
a(lp1814
g843
(g844
(I0
tp1815
g382
tp1816
Rp1817
(I1
(I9
I4
tp1818
g885
I01
(lp1819
Fnan
aFnan
aFnan
aFnan
aFnan
aFnan
aFnan
aFnan
aFnan
aFnan
aFnan
aFnan
aFnan
aFnan
aFnan
aFnan
aVPOWER
p1820
aVPOWER
p1821
aVSIGNAL
p1822
aVSIGNAL
p1823
aVM1
p1824
aVM2
p1825
aVM1
p1826
aVM2
p1827
aVT7
p1828
aVT2
p1829
aVT5
p1830
aVT5
p1831
aV Copper Power Bondwire 0.15mm.p
p1832
aV Copper Power Bondwire 0.15mm.p
p1833
aV Copper Signal Bondwire 0.15mm.p
p1834
aV Copper Signal Bondwire 0.15mm.p
p1835
ag377
ag604
ag524
ag570
atp1836
ba(lp1837
g839
(g1385
(dp1838
g842
g843
(g844
(I0
tp1839
g382
tp1840
Rp1841
(I1
(I9
tp1842
g885
I00
(lp1843
g1798
ag1799
ag1800
ag1801
aI0
aI1
aI2
aI3
aI4
atp1844
bsg16
Nstp1845
Rp1846
a(dp1847
g912
(dp1848
g914
g1791
sg915
(lp1849
(dp1850
g918
g919
(I0
I9
I1
tp1851
Rp1852
sg922
g1817
sasstp1853
bsbsb.