(ipowercad.design.library_structures
Baseplate
p0
(dp1
S'properties'
p2
(ipowercad.design.library_structures
MaterialProperties
p3
(dp4
S'name'
p5
S'MarkeTech Mo70Cu Moly'
p6
sS'density'
p7
F9700.0
sS'electrical_res'
p8
F1.7e-08
sS'rel_permeab'
p9
F1.0
sS'rel_permit'
p10
NsS'thermal_cond'
p11
F190.0
sS'spec_heat_cap'
p12
F385.0
sbsb.