(ipowercad.design.library_structures
BondWire
p0
(dp1
S'a'
p2
F0.2
sS'wire_type'
p3
I2
sS'name'
p4
S'Aluminium Signal Bondwire 0.1mm'
p5
sS'shape'
p6
I1
sS'b'
p7
F0.125
sS'properties'
p8
(ipowercad.design.library_structures
MaterialProperties
p9
(dp10
g4
S'Aluminium'
p11
sS'density'
p12
NsS'electrical_res'
p13
F3e-08
sS'rel_permeab'
p14
NsS'rel_permit'
p15
NsS'thermal_cond'
p16
NsS'spec_heat_cap'
p17
NsbsS'dimensions'
p18
F0.1
sb.