(ipowercad.design.library_structures
BondWire
p0
(dp1
S'a'
p2
F0.7
sS'wire_type'
p3
I1
sS'name'
p4
S'Copper Power Bondwire 0.15mm'
p5
sS'shape'
p6
I1
sS'b'
p7
F0.125
sS'properties'
p8
(ipowercad.design.library_structures
MaterialProperties
p9
(dp10
g4
S'Copper'
p11
sS'density'
p12
NsS'electrical_res'
p13
F1.7e-08
sS'rel_permeab'
p14
NsS'rel_permit'
p15
NsS'thermal_cond'
p16
NsS'spec_heat_cap'
p17
NsbsS'dimensions'
p18
F0.15
sb.