(ipowercad.project_builder.project
Project
p0
(dp1
S'deviceTable'
p2
(lp3
(lp4
V  CPM2-1200-0080B-MOS.p
p5
a(ipowercad.design.project_structures
DeviceInstance
p6
(dp7
S'attach_thickness'
p8
F0.01
sS'heat_flow'
p9
F3.0
sS'attach_tech'
p10
(ipowercad.design.library_structures
DieAttach
p11
(dp12
S'properties'
p13
(ipowercad.design.library_structures
MaterialProperties
p14
(dp15
S'name'
p16
S'Pb-Sn Solder Alloy'
p17
sS'density'
p18
F11020.0
sS'electrical_res'
p19
NsS'rel_permeab'
p20
NsS'rel_permit'
p21
NsS'thermal_cond'
p22
F35.8
sS'spec_heat_cap'
p23
F130.0
sbsbsS'device_tech'
p24
(ipowercad.design.library_structures
Device
p25
(dp26
g16
S'CPM2-1200-0080B-MOS'
p27
sS'wire_landings'
p28
(lp29
(ipowercad.design.library_structures
BondwireLanding
p30
(dp31
S'position'
p32
(F1.0
F3.0
tp33
sS'bond_type'
p34
I2
sba(ipowercad.design.library_structures
BondwireLanding
p35
(dp36
g32
(F2.0
F1.5
tp37
sg34
I1
sba(ipowercad.design.library_structures
BondwireLanding
p38
(dp39
g32
(F2.0
F0.5
tp40
sg34
I1
sbasS'device_model'
p41
NsS'power_side'
p42
I1
sS'device_type'
p43
I1
sg13
(ipowercad.design.library_structures
MaterialProperties
p44
(dp45
S'young_mdl'
p46
NsS'poi_rat'
p47
Nsg16
Nsg18
F3100.0
sS'expansion_coeff'
p48
Nsg19
Nsg20
Nsg21
Nsg22
F370.0
sS'id'
p49
Nsg23
F750.0
sbsS'dimensions'
p50
(F3.1
F3.36
F0.22
tp51
sbsS'thermal_features'
p52
(ipowercad.thermal.fast_thermal
DieThermalFeatures
p53
(dp54
S'eff_power'
p55
F2.8803567721092507
sS'iso_top_temps'
p56
(lp57
(ipowercad.thermal.fast_thermal
ContourRect
p58
(dp59
S'width'
p60
F3.1
sS'avg_val'
p61
F11.135927995011654
sS'height'
p62
F3.203203203203203
sba(ipowercad.thermal.fast_thermal
ContourRect
p63
(dp64
g60
F7.199999999999999
sg61
F10.424856151001638
sg62
F7.4474474474474475
sba(ipowercad.thermal.fast_thermal
ContourRect
p65
(dp66
g60
F11.299999999999999
sg61
F10.104329798572278
sg62
F11.33133133133133
sba(ipowercad.thermal.fast_thermal
ContourRect
p67
(dp68
g60
F15.399999999999999
sg61
F10.000832993075269
sg62
F15.455455455455455
sba(ipowercad.thermal.fast_thermal
ContourRect
p69
(dp70
g60
F19.5
sg61
F9.948322259000724
sg62
F19.53953953953954
sba(ipowercad.thermal.fast_thermal
ContourRect
p71
(dp72
g60
F23.6
sg61
F9.915540716433187
sg62
F23.663663663663662
sba(ipowercad.thermal.fast_thermal
ContourRect
p73
(dp74
g60
F27.7
sg61
F9.89289302278341
sg62
F27.78778778778779
sba(ipowercad.thermal.fast_thermal
ContourRect
p75
(dp76
g60
F31.799999999999997
sg61
F9.876780427319675
sg62
F31.95195195195195
sba(ipowercad.thermal.fast_thermal
ContourRect
p77
(dp78
g60
F35.9
sg61
F9.865558924783212
sg62
F36.23623623623624
sba(ipowercad.thermal.fast_thermal
ContourRect
p79
(dp80
g60
F40.0
sg61
F9.85868328597557
sg62
F40.0
sbasS'iso_top_avg_temp'
p81
F9.92140265787432
sS'die_power'
p82
F3.0
sS'die_res'
p83
F0.08390209327315112
sS'self_temp'
p84
F11.102745320180356
sS'iso_top_fluxes'
p85
(lp86
(ipowercad.thermal.fast_thermal
ContourRect
p87
(dp88
g60
F3.1
sg61
F0.1324559693432667
sg62
F3.4034034034034035
sba(ipowercad.thermal.fast_thermal
ContourRect
p89
(dp90
g60
F4.827827827827828
sg61
F0.05639492358982629
sg62
F4.804804804804805
sba(ipowercad.thermal.fast_thermal
ContourRect
p91
(dp92
g60
F6.555655655655656
sg61
F0.010874169659527989
sg62
F8.72872872872873
sba(ipowercad.thermal.fast_thermal
ContourRect
p93
(dp94
g60
F8.283483483483483
sg61
F0.005381174749530869
sg62
F9.28928928928929
sba(ipowercad.thermal.fast_thermal
ContourRect
p95
(dp96
g60
F10.011311311311312
sg61
F0.0033777281465741933
sg62
F10.41041041041041
sba(ipowercad.thermal.fast_thermal
ContourRect
p97
(dp98
g60
F11.739139139139139
sg61
F0.0015598835927015276
sg62
F11.651651651651651
sba(ipowercad.thermal.fast_thermal
ContourRect
p99
(dp100
g60
F13.466966966966966
sg61
F0.0008803587277833781
sg62
F13.333333333333334
sba(ipowercad.thermal.fast_thermal
ContourRect
p101
(dp102
g60
F15.194794794794795
sg61
F0.0005446953774129279
sg62
F15.415415415415415
sba(ipowercad.thermal.fast_thermal
ContourRect
p103
(dp104
g60
F16.922622622622622
sg61
F0.0003540113466964481
sg62
F16.896896896896898
sba(ipowercad.thermal.fast_thermal
ContourRect
p105
(dp106
g60
F18.65045045045045
sg61
F0.00014926956415240117
sg62
F38.63863863863864
sbasbsbaa(lp107
V  Cylindrical Aluminium Lead 1.2mm Diam..p
p108
a(ipowercad.design.library_structures
Lead
p109
(dp110
S'lead_type'
p111
I2
sS'shape'
p112
I2
sg50
(F1.2
I10
tp113
sg16
S'Cylindrical Aluminium Lead 1.2mm Diam.'
p114
sg13
(ipowercad.design.library_structures
MaterialProperties
p115
(dp116
g16
S'Aluminium'
p117
sg18
Nsg19
F3e-08
sg20
Nsg21
Nsg22
Nsg23
NsbsbaasS'sym_info'
p118
(dp119
sg16
Vsimple_switch
p120
sS'netlist'
p121
NsS'module_data'
p122
ccopy_reg
_reconstructor
p123
(cpowercad.design.module_data
ModuleData
p124
c__builtin__
object
p125
Ntp126
Rp127
(dp128
S'substrate'
p129
(ipowercad.design.project_structures
SubstrateInstance
p130
(dp131
S'ledge_width'
p132
F1.0
sg50
(F40.0
F40.0
tp133
sS'substrate_tech'
p134
(ipowercad.design.library_structures
Substrate
p135
(dp136
S'isolation_properties'
p137
(ipowercad.design.library_structures
MaterialProperties
p138
(dp139
g46
F305000000000.0
sg47
Nsg16
S'Al_N'
p140
sg18
F3250.0
sg48
F5.2e-06
sg19
Nsg20
Nsg21
F8.8
sg22
F120.0
sg49
S'Al_N'
p141
sg23
F734.3
sbsS'metal_properties'
p142
(ipowercad.design.library_structures
MaterialProperties
p143
(dp144
g46
F120000000000.0
sg47
F0.38
sg16
S'copper'
p145
sg18
F8933.0
sg48
F1.77e-05
sg19
F1.72e-08
sg20
F0.999991
sg21
Nsg22
F400.0
sg49
S'copper'
p146
sg23
F385.0
sbsS'isolation_thickness'
p147
F0.64
sg16
NsS'metal_thickness'
p148
F0.41
sbsbsS'ambient_temp'
p149
F300.0
sS'sublayers_thermal'
p150
(ipowercad.thermal.fast_thermal
SublayerThermalFeatures
p151
(dp152
S't_amb'
p153
F300.0
sS'sub_res'
p154
cnumpy.core.multiarray
scalar
p155
(cnumpy
dtype
p156
(S'f8'
p157
I0
I1
tp158
Rp159
(I3
S'<'
p160
NNNI-1
I-1
I0
tp161
bS'\xd5\xb6\x1a\xc9\x02u\n@'
p162
tp163
Rp164
sg148
F0.41
sS'metal_cond'
p165
F400.0
sbsS'substrate_attach'
p166
(ipowercad.design.project_structures
SubstrateAttachInstance
p167
(dp168
g10
(ipowercad.design.library_structures
SubstrateAttach
p169
(dp170
g13
(ipowercad.design.library_structures
MaterialProperties
p171
(dp172
g46
F69000000000.0
sg47
F0.4
sg16
S'solder'
p173
sg18
F8000.0
sg48
F1.59e-06
sg19
F1.43e-07
sg20
Nsg21
Nsg22
F48.0
sg49
S'solder'
p174
sg23
F167.0
sbsbsS'thickness'
p175
F0.08
sbsS'frequency'
p176
F50.0
sS'baseplate'
p177
(ipowercad.design.project_structures
BaseplateInstance
p178
(dp179
S'baseplate_tech'
p180
(ipowercad.design.library_structures
Baseplate
p181
(dp182
g13
g143
sbsS'eff_conv_coeff'
p183
F150.0
sg50
(F45.0
F45.0
F6.0
tp184
sbsS'design_rules'
p185
(ipowercad.design.project_structures
ProcessDesignRules
p186
(dp187
S'min_trace_trace_width'
p188
F1.2
sS'signal_wire_component_dist'
p189
F0.2
sS'min_die_trace_dist'
p190
F0.1
sS'power_wire_trace_dist'
p191
F1.0
sS'power_wire_component_dist'
p192
F0.2
sS'min_die_die_dist'
p193
F0.2
sS'min_trace_width'
p194
F1.2
sS'signal_wire_trace_dist'
p195
F0.2
sbsbsS'layout_engine'
p196
S'SL'
p197
sS'tech_lib_dir'
p198
S'C:\\Users\\ialrazi\\PowerSynth\\CornerStitch_Dev\\PowerCAD-full\\tech_lib'
p199
sS'module_stack_edit'
p200
(lp201
Vcopper-Al_N-copper
p202
aV40.0
p203
aV40.0
p204
aV1.0
p205
aVsolder
p206
aV0.08
p207
aVcopper
p208
aV45.0
p209
aV45.0
p210
aV6.0
p211
aV150
p212
aV50
p213
aV300
p214
asS'layer_stack_file'
p215
VD:\u005cUI_UPDATE\u005cSample_Projects\u005csimple_switch\u005clayer_stack.csv
p216
sS'num_gen'
p217
I40
sS'solutions'
p218
(lp219
sS'directory'
p220
VD:\u005cUI_UPDATE\u005cSample_Projects\u005csimple_switch
p221
sS'symb_layout'
p222
g123
(cpowercad.sym_layout.symbolic_layout
SymbolicLayout
p223
g125
Ntp224
Rp225
(dp226
S'SymLine'
p227
cpowercad.sym_layout.symbolic_layout
SymLine
p228
sS'module'
p229
g127
sS'all_super_traces'
p230
(lp231
sS'symmetries'
p232
(lp233
sS'v_overflow'
p234
F0.0
sS'tmp_conn_dict'
p235
(dp236
c__builtin__
frozenset
p237
((lp238
g123
(g228
g125
Ntp239
Rp240
(dp241
S'num_wires'
p242
NsS'trace_connections'
p243
(lp244
g123
(g228
g125
Ntp245
Rp246
(dp247
g242
Nsg243
(lp248
g240
ag123
(g228
g125
Ntp249
Rp250
(dp251
g242
Nsg243
(lp252
g246
asS'dev_pt'
p253
NsS'land_pt2'
p254
NsS'wire'
p255
I00
sS'raw_element'
p256
g123
(cpowercad.sym_layout.svg
LayoutLine
p257
g125
Ntp258
Rp259
(dp260
S'path_id'
p261
S'T6'
p262
sS'vertical'
p263
I01
sS'pt2'
p264
(F1.0
F6.0
tp265
sS'pt1'
p266
(F1.0
F1.0
tp267
sbsS'conn_bonds'
p268
(lp269
sS'start_pt_conn'
p270
NsS'end_pts'
p271
NsS'has_rect'
p272
I01
sS'trace2'
p273
NsS'wire_sep'
p274
NsS'child_pts'
p275
(lp276
g123
(cpowercad.sym_layout.symbolic_layout
SymPoint
p277
g125
Ntp278
Rp279
(dp280
S'center_position'
p281
(F12.96214463502139
F24.059393381258364
tp282
sS'sym_bondwires'
p283
(lp284
g123
(g228
g125
Ntp285
Rp286
(dp287
g242
I2
sg243
(lp288
sg253
I1
sg254
Nsg255
I01
sg256
Nsg268
(lp289
sg270
Nsg271
(lp290
(F7.528783831221833
F24.239393381258363
tp291
a(F7.528783831221833
F25.239393381258363
tp292
asg272
I01
sg273
Nsg274
F0.1
sg275
NsS'trace'
p293
g123
(g228
g125
Ntp294
Rp295
(dp296
g242
Nsg243
(lp297
g123
(g228
g125
Ntp298
Rp299
(dp300
g242
Nsg243
(lp301
g123
(g228
g125
Ntp302
Rp303
(dp304
g242
Nsg243
(lp305
g299
asg253
Nsg254
Nsg255
I00
sg256
g123
(g257
g125
Ntp306
Rp307
(dp308
g261
S'T2'
p309
sg263
I01
sg264
(F4.0
F5.0
tp310
sg266
(F4.0
F0.0
tp311
sbsg268
(lp312
g123
(g228
g125
Ntp313
Rp314
(dp315
g242
I2
sg243
(lp316
sg253
I1
sg254
Nsg255
I01
sg256
Nsg268
(lp317
sg270
Nsg271
(lp318
(F34.19841957237942
F23.879393381258364
tp319
a(F34.19841957237942
F22.879393381258364
tp320
asg272
I01
sg273
Nsg274
F0.1
sg275
Nsg293
g303
sS'trace_rect'
p321
NsS'dv_index'
p322
NsS'intersecting_trace'
p323
NsS'device'
p324
g123
(g277
g125
Ntp325
Rp326
(dp327
g281
(F29.50204705079537
F24.059393381258364
tp328
sg283
(lp329
g314
ag123
(g228
g125
Ntp330
Rp331
(dp332
g242
I2
sg243
(lp333
sg253
I2
sg254
Nsg255
I01
sg256
Nsg268
(lp334
sg270
Nsg271
(lp335
(F25.605674529211313
F25.379393381258364
tp336
asg272
I01
sg273
Nsg274
F0.1
sg275
Nsg293
g123
(g228
g125
Ntp337
Rp338
(dp339
g242
Nsg243
(lp340
sg253
Nsg254
Nsg255
I00
sg256
g123
(g257
g125
Ntp341
Rp342
(dp343
g261
S'T5'
p344
sg263
I01
sg264
(F2.0
F4.0
tp345
sg266
(F2.0
F1.0
tp346
sbsg268
(lp347
g123
(g228
g125
Ntp348
Rp349
(dp350
g242
I2
sg243
(lp351
sg253
I2
sg254
Nsg255
I01
sg256
Nsg268
(lp352
sg270
Nsg271
(lp353
(F17.595505438820947
F22.739393381258363
tp354
asg272
I01
sg273
Nsg274
F0.1
sg275
Nsg293
g338
sg321
Nsg322
Nsg323
Nsg324
g279
sS'land_pt'
p355
(F17.595505438820947
F24.059393381258364
tp356
sS'long_contacts'
p357
(dp358
sS'super_connections'
p359
(lp360
sS'constraint'
p361
NsS'end_pt_conn'
p362
NsS'start_pts'
p363
(lp364
(F13.512144635021391
F22.739393381258363
tp365
asS'element'
p366
NsS'tech'
p367
(ipowercad.design.library_structures
BondWire
p368
(dp369
S'a'
p370
F0.2
sS'wire_type'
p371
I2
sg16
S'Aluminium Signal Bondwire 0.1mm'
p372
sg112
I1
sS'b'
p373
F0.125
sg13
(ipowercad.design.library_structures
MaterialProperties
p374
(dp375
g16
S'Aluminium'
p376
sg18
Nsg19
F3e-08
sg20
Nsg21
Nsg22
Nsg23
Nsbsg50
F0.1
sbsS'normal_connections'
p377
(lp378
sS'trace_line'
p379
Nsbag331
asg270
Nsg271
Nsg272
I01
sg273
Nsg274
Nsg275
(lp380
g123
(g277
g125
Ntp381
Rp382
(dp383
g281
(lp384
F21.600589984016132
aF24.292768172208433
asg283
(lp385
sg256
g123
(cpowercad.sym_layout.svg
LayoutPoint
p386
g125
Ntp387
Rp388
(dp389
g261
S'L2'
p390
sg16
NsS'pt'
p391
(F2.0
F2.0
tp392
sbsg16
g390
sg361
Nsg322
NsS'parent_line'
p393
g338
sg366
g123
(g386
g125
Ntp394
Rp395
(dp396
g261
g390
sg16
Nsg391
(I2
I2
tp397
sbsS'states'
p398
(lp399
sg367
g109
sS'footprint_rect'
p400
(ipowercad.general.data_struct.util
Rect
p401
(dp402
S'right'
p403
F22.200589984016133
sS'bottom'
p404
F23.69276817220843
sS'top'
p405
F24.892768172208434
sg62
F1.2000000000000028
sg60
F1.2000000000000028
sS'left'
p406
F21.00058998401613
sbsS'lumped_node'
p407
I13
sS'orientation'
p408
Nsbasg293
Nsg321
(ipowercad.general.data_struct.util
Rect
p409
(dp410
g403
F25.805674529211313
sg404
F22.279393381258362
sg405
F26.306142963158504
sg62
F4.026749581900141
sg60
F8.410169090390365
sg406
F17.395505438820948
sbsg322
I2
sg323
Nsg324
Nsg355
Nsg357
(dp411
sg359
(lp412
sg16
g344
sg361
Nsg362
Nsg363
Nsg366
g123
(g257
g125
Ntp413
Rp414
(dp415
g261
g344
sg263
I01
sg264
(I2
I4
tp416
sg266
(I2
I1
tp417
sbsg367
Nsg377
(lp418
sg379
g123
(g257
g125
Ntp419
Rp420
(dp421
g261
g344
sg266
(I2
I1
tp422
sg264
(I2
I2
tp423
sg263
I01
sbsbsg321
Nsg322
Nsg323
Nsg324
g326
sg355
(F25.605674529211313
F24.059393381258364
tp424
sg357
(dp425
sg359
(lp426
sg361
Nsg362
Nsg363
(lp427
(F28.952047050795368
F25.379393381258364
tp428
asg366
Nsg367
(ipowercad.design.library_structures
BondWire
p429
(dp430
g370
F0.2
sg371
I2
sg16
S'Aluminium Signal Bondwire 0.1mm'
p431
sg112
I1
sg373
F0.125
sg13
(ipowercad.design.library_structures
MaterialProperties
p432
(dp433
g16
S'Aluminium'
p434
sg18
Nsg19
F3e-08
sg20
Nsg21
Nsg22
Nsg23
Nsbsg50
F0.1
sbsg377
(lp435
sg379
Nsbasg256
g123
(g386
g125
Ntp436
Rp437
(dp438
g261
S'M2'
p439
sg16
Nsg391
(F3.0
F3.0
tp440
sbsg16
g439
sg361
Nsg322
I0
sg393
g240
sg366
g123
(g386
g125
Ntp441
Rp442
(dp443
g261
g439
sg16
Nsg391
(I3
I3
tp444
sbsg398
(lp445
g155
(g159
S'\x00\x00\x00\x00\x00\x00\xf0?'
p446
tp447
Rp448
ag155
(g159
S'\x00\x00\x00\x00\x00\x00\x00\x00'
p449
tp450
Rp451
ag155
(g159
S'\x00\x00\x00\x00\x00\x00\x00\x00'
p452
tp453
Rp454
asg367
g6
sg400
(ipowercad.general.data_struct.util
Rect
p455
(dp456
g403
F31.05204705079537
sg404
F22.379393381258364
sg405
F25.739393381258363
sg62
F3.3599999999999994
sg60
F3.1000000000000014
sg406
F27.952047050795368
sbsg407
I1
sg408
I1
sbsg355
(F34.19841957237942
F24.059393381258364
tp457
sg357
(dp458
sg359
(lp459
sg361
Nsg362
Nsg363
(lp460
(F29.952047050795368
F23.879393381258364
tp461
a(F29.952047050795368
F22.879393381258364
tp462
asg366
Nsg367
(ipowercad.design.library_structures
BondWire
p463
(dp464
g370
F0.4
sg371
I1
sg16
S'Aluminium Power Bondwire 0.3x0.2mm'
p465
sg112
I2
sg373
F0.25
sg13
(ipowercad.design.library_structures
MaterialProperties
p466
(dp467
g16
S'Aluminium'
p468
sg18
Nsg19
F3e-08
sg20
Nsg21
Nsg22
Nsg23
Nsbsg50
(F0.3
F0.2
tp469
sbsg377
(lp470
sg379
Nsbasg270
Nsg271
Nsg272
I01
sg273
Nsg274
Nsg275
(lp471
sg293
Nsg321
(ipowercad.general.data_struct.util
Rect
p472
(dp473
g403
F38.0
sg404
F21.079393381258363
sg405
F26.306142963158504
sg62
F5.22674958190014
sg60
F4.8015804276205785
sg406
F33.19841957237942
sbsg322
I4
sg323
Nsg324
Nsg355
Nsg357
(dp474
sg359
(lp475
sg16
g309
sg361
Nsg362
Nsg363
Nsg366
g123
(g257
g125
Ntp476
Rp477
(dp478
g261
g309
sg263
I01
sg264
(I4
I5
tp479
sg266
(I4
I0
tp480
sbsg367
Nsg377
(lp481
sg379
g123
(g257
g125
Ntp482
Rp483
(dp484
g261
g309
sg266
(I4
I0
tp485
sg264
(I4
I3
tp486
sg263
I01
sbsbag295
asg253
Nsg254
Nsg255
I00
sg256
g123
(g257
g125
Ntp487
Rp488
(dp489
g261
S'T3'
p490
sg263
I00
sg264
(F4.0
F0.0
tp491
sg266
(F0.0
F0.0
tp492
sbsg268
(lp493
sg270
Nsg271
Nsg272
I01
sg273
Nsg274
Nsg275
(lp494
g123
(g277
g125
Ntp495
Rp496
(dp497
g281
(lp498
F19.0
aF10.539696690629182
asg283
(lp499
sg256
g123
(g386
g125
Ntp500
Rp501
(dp502
g261
S'L1'
p503
sg16
Nsg391
(F2.0
F0.0
tp504
sbsg16
g503
sg361
Nsg322
Nsg393
g299
sg366
g123
(g386
g125
Ntp505
Rp506
(dp507
g261
g503
sg16
Nsg391
(I2
I0
tp508
sbsg398
(lp509
sg367
g109
sg400
(ipowercad.general.data_struct.util
Rect
p510
(dp511
g403
F19.6
sg404
F9.939696690629182
sg405
F11.139696690629181
sg62
F1.1999999999999993
sg60
F1.2000000000000028
sg406
F18.4
sbsg407
I12
sg408
Nsbasg293
Nsg321
(ipowercad.general.data_struct.util
Rect
p512
(dp513
g403
F38.0
sg404
F0.0
sg405
F21.079393381258363
sg62
F21.079393381258363
sg60
F38.0
sg406
F0.0
sbsg322
I0
sg323
Nsg324
Nsg355
Nsg357
(dp514
sg359
(lp515
sg16
g490
sg361
Nsg362
Nsg363
Nsg366
g123
(g257
g125
Ntp516
Rp517
(dp518
g261
g490
sg263
I00
sg264
(I4
I0
tp519
sg266
(I0
I0
tp520
sbsg367
Nsg377
(lp521
sg379
g123
(g257
g125
Ntp522
Rp523
(dp524
g261
g490
sg266
(I0
I0
tp525
sg264
(I4
I0
tp526
sg263
I00
sbsbasg253
Nsg254
Nsg255
I00
sg256
g123
(g257
g125
Ntp527
Rp528
(dp529
g261
S'T7'
p530
sg263
I01
sg264
(F0.0
F5.0
tp531
sg266
(F0.0
F0.0
tp532
sbsg268
(lp533
g286
asg270
Nsg271
Nsg272
I01
sg273
Nsg274
Nsg275
(lp534
sg293
Nsg321
(ipowercad.general.data_struct.util
Rect
p535
(dp536
g403
F8.528783831221833
sg404
F21.079393381258363
sg405
F26.306142963158504
sg62
F5.22674958190014
sg60
F8.528783831221833
sg406
F0.0
sbsg322
I0
sg323
Nsg324
Nsg355
Nsg357
(dp537
sg359
(lp538
sg16
g530
sg361
Nsg362
Nsg363
Nsg366
g123
(g257
g125
Ntp539
Rp540
(dp541
g261
g530
sg263
I01
sg264
(I0
I5
tp542
sg266
(I0
I0
tp543
sbsg367
Nsg377
(lp544
sg379
g123
(g257
g125
Ntp545
Rp546
(dp547
g261
g530
sg266
(I0
I0
tp548
sg264
(I0
I3
tp549
sg263
I01
sbsbsg321
Nsg322
Nsg323
Nsg324
g279
sg355
(F7.528783831221833
F24.059393381258364
tp550
sg357
(dp551
sg359
(lp552
sg361
Nsg362
Nsg363
(lp553
(F12.512144635021391
F24.239393381258363
tp554
a(F12.512144635021391
F25.239393381258363
tp555
asg366
Nsg367
(ipowercad.design.library_structures
BondWire
p556
(dp557
g370
F0.4
sg371
I1
sg16
S'Aluminium Power Bondwire 0.3x0.2mm'
p558
sg112
I2
sg373
F0.25
sg13
(ipowercad.design.library_structures
MaterialProperties
p559
(dp560
g16
S'Aluminium'
p561
sg18
Nsg19
F3e-08
sg20
Nsg21
Nsg22
Nsg23
Nsbsg50
(F0.3
F0.2
tp562
sbsg377
(lp563
sg379
Nsbag349
asg256
g123
(g386
g125
Ntp564
Rp565
(dp566
g261
S'M1'
p567
sg16
Nsg391
(F1.0
F3.0
tp568
sbsg16
g567
sg361
Nsg322
I1
sg393
g250
sg366
g123
(g386
g125
Ntp569
Rp570
(dp571
g261
g567
sg16
Nsg391
(I1
I3
tp572
sbsg398
(lp573
g155
(g159
S'\x00\x00\x00\x00\x00\x00\xf0?'
p574
tp575
Rp576
ag155
(g159
S'\x00\x00\x00\x00\x00\x00\x00\x00'
p577
tp578
Rp579
ag155
(g159
S'\x00\x00\x00\x00\x00\x00\x00\x00'
p580
tp581
Rp582
asg367
g6
sg400
(ipowercad.general.data_struct.util
Rect
p583
(dp584
g403
F14.512144635021391
sg404
F22.379393381258364
sg405
F25.739393381258363
sg62
F3.3599999999999994
sg60
F3.1000000000000014
sg406
F11.41214463502139
sbsg407
I6
sg408
I2
sbasg293
Nsg321
(ipowercad.general.data_struct.util
Rect
p585
(dp586
g403
F16.19550543882095
sg404
F22.279393381258362
sg405
F27.506142963158503
sg62
F5.22674958190014
sg60
F6.466721607599116
sg406
F9.728783831221833
sbsg322
I1
sg323
Nsg324
Nsg355
Nsg357
(dp587
sg359
(lp588
sg16
g262
sg361
Nsg362
Nsg363
Nsg366
g123
(g257
g125
Ntp589
Rp590
(dp591
g261
g262
sg263
I01
sg264
(I1
I6
tp592
sg266
(I1
I1
tp593
sbsg367
Nsg377
(lp594
sg379
g123
(g257
g125
Ntp595
Rp596
(dp597
g261
g262
sg266
(I1
I1
tp598
sg264
(I1
I4
tp599
sg263
I01
sbsbasg253
Nsg254
Nsg255
I00
sg256
g123
(g257
g125
Ntp600
Rp601
(dp602
g261
S'T1'
p603
sg263
I00
sg264
(F3.0
F6.0
tp604
sg266
(F1.0
F6.0
tp605
sbsg268
(lp606
sg270
Nsg271
Nsg272
I01
sg273
Nsg274
Nsg275
(lp607
g123
(g277
g125
Ntp608
Rp609
(dp610
g281
(lp611
F20.863601701800626
aF32.753071481579255
asg283
(lp612
sg256
g123
(g386
g125
Ntp613
Rp614
(dp615
g261
S'L3'
p616
sg16
Nsg391
(F2.0
F6.0
tp617
sbsg16
g616
sg361
Nsg322
Nsg393
g246
sg366
g123
(g386
g125
Ntp618
Rp619
(dp620
g261
g616
sg16
Nsg391
(I2
I6
tp621
sbsg398
(lp622
sg367
g109
sg400
(ipowercad.general.data_struct.util
Rect
p623
(dp624
g403
F21.463601701800627
sg404
F32.15307148157925
sg405
F33.353071481579256
sg62
F1.2000000000000028
sg60
F1.2000000000000028
sg406
F20.263601701800624
sbsg407
I11
sg408
Nsbasg293
Nsg321
(ipowercad.general.data_struct.util
Rect
p625
(dp626
g403
F31.998419572379422
sg404
F27.506142963158503
sg405
F38.0
sg62
F10.493857036841497
sg60
F22.26963574115759
sg406
F9.728783831221833
sbsg322
I4
sg323
Nsg324
Nsg355
Nsg357
(dp627
sg359
(lp628
sg16
g603
sg361
Nsg362
Nsg363
Nsg366
g123
(g257
g125
Ntp629
Rp630
(dp631
g261
g603
sg263
I00
sg264
(I3
I6
tp632
sg266
(I1
I6
tp633
sbsg367
Nsg377
(lp634
sg379
g123
(g257
g125
Ntp635
Rp636
(dp637
g261
g603
sg266
(I1
I4
tp638
sg264
(I3
I4
tp639
sg263
I00
sbsbasg253
Nsg254
Nsg255
I00
sg256
g123
(g257
g125
Ntp640
Rp641
(dp642
g261
S'T4'
p643
sg263
I01
sg264
(F3.0
F6.0
tp644
sg266
(F3.0
F1.0
tp645
sbsg268
(lp646
sg270
Nsg271
Nsg272
I01
sg273
Nsg274
Nsg275
(lp647
g326
asg293
Nsg321
(ipowercad.general.data_struct.util
Rect
p648
(dp649
g403
F31.998419572379422
sg404
F22.279393381258362
sg405
F27.506142963158503
sg62
F5.22674958190014
sg60
F4.99274504316811
sg406
F27.005674529211312
sbsg322
I3
sg323
Nsg324
Nsg355
Nsg357
(dp650
sg359
(lp651
sg16
g643
sg361
Nsg362
Nsg363
Nsg366
g123
(g257
g125
Ntp652
Rp653
(dp654
g261
g643
sg263
I01
sg264
(I3
I6
tp655
sg266
(I3
I1
tp656
sbsg367
Nsg377
(lp657
sg379
g123
(g257
g125
Ntp658
Rp659
(dp660
g261
g643
sg266
(I3
I1
tp661
sg264
(I3
I4
tp662
sg263
I01
sbsbag246
atp663
Rp664
I1
sg237
((lp665
g299
ag303
atp666
Rp667
I1
sg237
((lp668
g299
ag295
atp669
Rp670
I1
sg237
((lp671
g250
ag246
atp672
Rp673
I1
ssS'opt_dv_list'
p674
(lp675
g123
(cpowercad.opt.optimizer
DesignVar
p676
g125
Ntp677
Rp678
(dp679
S'init_values'
p680
(F5.066666666666666
F10.133333333333333
tp681
sS'constraints'
p682
(F1.2
F38.0
tp683
sbag123
(g676
g125
Ntp684
Rp685
(dp686
g680
(F5.066666666666666
F10.133333333333333
tp687
sg682
(F1.2
F38.0
tp688
sbag123
(g676
g125
Ntp689
Rp690
(dp691
g680
(F5.066666666666666
F10.133333333333333
tp692
sg682
(F1.2
F38.0
tp693
sbag123
(g676
g125
Ntp694
Rp695
(dp696
g680
(F5.066666666666666
F10.133333333333333
tp697
sg682
(F1.2
F38.0
tp698
sbag123
(g676
g125
Ntp699
Rp700
(dp701
g680
(F5.066666666666666
F10.133333333333333
tp702
sg682
(F0.0
F38.0
tp703
sbag123
(g676
g125
Ntp704
Rp705
(dp706
g680
(F5.066666666666666
F10.133333333333333
tp707
sg682
(F0.0
F38.0
tp708
sbag123
(g676
g125
Ntp709
Rp710
(dp711
g680
(F5.066666666666666
F10.133333333333333
tp712
sg682
(F0.0
F38.0
tp713
sbag123
(g676
g125
Ntp714
Rp715
(dp716
g680
(F5.066666666666666
F10.133333333333333
tp717
sg682
(F1.2
F38.0
tp718
sbag123
(g676
g125
Ntp719
Rp720
(dp721
g680
(F0.0
F1.0
tp722
sg682
(F0.0
F1.0
tp723
sbag123
(g676
g125
Ntp724
Rp725
(dp726
g680
g722
sg682
g723
sbasS'trace_xlen'
p727
I5
sS'all_sym'
p728
(lp729
g246
ag303
ag299
ag240
ag338
ag250
ag295
ag279
ag326
ag496
ag382
ag609
ag286
ag314
ag349
ag331
asS'v_dv_list'
p730
(lp731
(lp732
g123
(cpowercad.sym_layout.symbolic_layout
RowCol
p733
g125
Ntp734
Rp735
(dp736
S'phantom'
p737
I00
sg403
F22.279393381258362
sS'all_super'
p738
I00
sS'phantom_constraint'
p739
NsS'undef_width'
p740
F21.079393381258363
sg322
I0
sS'mid'
p741
F10.539696690629182
sS'elements'
p742
(dp743
g299
I1
ssS'definable'
p744
I01
sS'removed'
p745
I01
sg406
F0.0
sbaa(lp746
g123
(g733
g125
Ntp747
Rp748
(dp749
g737
I01
sg403
F24.83925086651849
sg738
I01
sg739
Nsg322
I1
sg741
F23.55932212388843
sg742
(dp750
sg744
I01
sg745
Nsg406
F22.279393381258362
sbaa(lp751
g123
(g733
g125
Ntp752
Rp753
(dp754
g737
I01
sg403
F27.506142963158503
sg738
I01
sg739
Nsg322
I2
sg741
F26.172696914838497
sg742
(dp755
sg744
I01
sg745
Nsg406
F24.83925086651849
sbaa(lp756
g123
(g733
g125
Ntp757
Rp758
(dp759
g737
I01
sg403
F27.506142963158503
sg738
I01
sg739
Nsg322
I3
sg741
F27.506142963158503
sg742
(dp760
sg744
I01
sg745
Nsg406
F27.506142963158503
sbaa(lp761
g123
(g733
g125
Ntp762
Rp763
(dp764
g737
I00
sg403
F38.0
sg738
I00
sg739
Nsg322
I4
sg741
F32.753071481579255
sS'max_width'
p765
F10.493857036841497
sg742
(dp766
g246
I1
ssg744
I01
sg745
Nsg406
F27.506142963158503
sbaasS'leads'
p767
(lp768
g609
ag496
ag382
asS'xlen'
p769
I5
sS'seed'
p770
NsS'vg_matrix'
p771
(lp772
(lp773
(dp774
g299
I01
sg295
I01
sa(dp775
g295
I00
sa(dp776
g295
I00
sa(dp777
g295
I01
sa(dp778
aa(lp779
(dp780
g299
I00
sa(dp781
g250
I01
sa(dp782
g250
I00
sa(dp783
g250
I00
sa(dp784
g250
I01
sg246
I01
saa(lp785
(dp786
g299
I00
sa(dp787
g338
I01
sa(dp788
g338
I01
sa(dp789
a(dp790
g246
I00
saa(lp791
(dp792
g299
I00
sa(dp793
g240
I01
sa(dp794
g240
I00
sa(dp795
g240
I00
sa(dp796
g240
I01
sg246
I01
saa(lp797
(dp798
g299
I01
sg303
I01
sa(dp799
g303
I00
sa(dp800
g303
I00
sa(dp801
g303
I01
sa(dp802
aasS'v_rowcol_list'
p803
(lp804
g735
ag748
ag753
ag758
ag763
asS'mdl_type'
p805
(dp806
S'E'
p807
S'MS'
p808
sS'T'
p809
NssS'h_min_max_overflow'
p810
(F0.0
F0.0
tp811
sS'perf_measures'
p812
(lp813
g123
(cpowercad.sym_layout.symbolic_layout
ElectricalMeasure
p814
g125
Ntp815
Rp816
(dp817
S'disp'
p818
(VElectrical
p819
VInductance
p820
tp821
sS'sink_term'
p822
S'Lead'
p823
sg16
V1
p824
sS'mdl'
p825
g808
sS'src_term'
p826
g823
sS'lines'
p827
NsS'dev_state'
p828
g123
(cpandas.core.frame
DataFrame
p829
g125
Ntp830
Rp831
(dp832
S'_metadata'
p833
(lp834
sS'_typ'
p835
S'dataframe'
p836
sS'_data'
p837
g123
(cpandas.core.internals
BlockManager
p838
g125
Ntp839
Rp840
((lp841
cpandas.core.indexes.base
_new_Index
p842
(cpandas.core.indexes.numeric
Int64Index
p843
(dp844
S'data'
p845
cnumpy.core.multiarray
_reconstruct
p846
(cnumpy
ndarray
p847
(I0
tp848
g373
tp849
Rp850
(I1
(I4
tp851
g156
(S'i8'
p852
I0
I1
tp853
Rp854
(I3
S'<'
p855
NNNI-1
I-1
I0
tp856
bI00
S'\x00\x00\x00\x00\x00\x00\x00\x00\x01\x00\x00\x00\x00\x00\x00\x00\x02\x00\x00\x00\x00\x00\x00\x00\x03\x00\x00\x00\x00\x00\x00\x00'
p857
tp858
bsg16
Nstp859
Rp860
ag842
(g843
(dp861
g845
g846
(g847
(I0
tp862
g373
tp863
Rp864
(I1
(I2
tp865
g854
I00
S'\x00\x00\x00\x00\x00\x00\x00\x00\x01\x00\x00\x00\x00\x00\x00\x00'
p866
tp867
bsg16
Nstp868
Rp869
a(lp870
g846
(g847
(I0
tp871
g373
tp872
Rp873
(I1
(I3
I2
tp874
g159
I01
S'\x00\x00\x00\x00\x00\x00\xf0?\x00\x00\x00\x00\x00\x00\x00\x00\x00\x00\x00\x00\x00\x00\x00\x00\x00\x00\x00\x00\x00\x00\xf0?\x00\x00\x00\x00\x00\x00\x00\x00\x00\x00\x00\x00\x00\x00\x00\x00'
p875
tp876
bag846
(g847
(I0
tp877
g373
tp878
Rp879
(I1
(I1
I2
tp880
g156
(S'O4'
p881
I0
I1
tp882
Rp883
(I3
S'|'
p884
NNNI-1
I-1
I63
tp885
bI00
(lp886
VM1
p887
aVM2
p888
atp889
ba(lp890
g842
(g843
(dp891
g845
g846
(g847
(I0
tp892
g373
tp893
Rp894
(I1
(I3
tp895
g854
I00
S'\x01\x00\x00\x00\x00\x00\x00\x00\x02\x00\x00\x00\x00\x00\x00\x00\x03\x00\x00\x00\x00\x00\x00\x00'
p896
tp897
bsg16
Nstp898
Rp899
ag842
(g843
(dp900
g845
g846
(g847
(I0
tp901
g373
tp902
Rp903
(I1
(I1
tp904
g854
I00
S'\x00\x00\x00\x00\x00\x00\x00\x00'
p905
tp906
bsg16
Nstp907
Rp908
a(dp909
S'0.14.1'
p910
(dp911
S'axes'
p912
g841
sS'blocks'
p913
(lp914
(dp915
S'mgr_locs'
p916
c__builtin__
slice
p917
(I1
I4
L1L
tp918
Rp919
sS'values'
p920
g873
sa(dp921
g916
g917
(L0L
L1L
I1
tp922
Rp923
sg920
g879
sasstp924
bsbsS'measure'
p925
I2
sS'units'
p926
S'nH'
p927
sg264
g496
sg266
g609
sbag123
(cpowercad.sym_layout.symbolic_layout
ThermalMeasure
p928
g125
Ntp929
Rp930
(dp931
g818
(VThermal
p932
VMax
p933
tp934
sg16
V2
p935
sg825
S'RECT_FLUX_MODEL'
p936
sS'stat_fn'
p937
I1
sS'devices'
p938
(lp939
g279
ag326
asg926
S'K'
p940
sbasS'E_graph'
p941
(ipowercad.sym_layout.Electrical_meshing.Lumped_Graph
E_graph
p942
(dp943
S'sym_layout'
p944
g225
sg805
g806
sg230
g231
sS'trace_info'
p945
(lp946
(lp947
F5.22674958190014
aF0.0
aa(lp948
F8.410169090390365
aF5.246928518420752
aa(lp949
F8.410169090390365
aF5.246928518420752
aa(lp950
F8.410169090390365
aF10.539696690629182
aa(lp951
F10.493857036841497
aF3.233360803799558
aa(lp952
F10.493857036841497
aF7.901457066779235
aa(lp953
F10.493857036841497
aF8.638445348994743
aa(lp954
F10.493857036841497
aF2.4963725215840533
aa(lp955
F4.8015804276205785
aF2.9800000000000004
aa(lp956
F4.8015804276205785
aF2.24674958190014
aa(lp957
F21.079393381258363
aF4.264391915610917
aa(lp958
F21.079393381258363
aF14.735608084389083
aa(lp959
F21.079393381258363
aF16.59920978618971
aa(lp960
F21.079393381258363
aF2.4007902138102892
aa(lp961
F4.99274504316811
aF1.7800000000000011
aa(lp962
F4.99274504316811
aF3.4467495819001392
aa(lp963
F8.410169090390365
aF1.7800000000000011
aa(lp964
F8.410169090390365
aF0.0
aa(lp965
F8.410169090390365
aF0.2333747909500694
aa(lp966
F8.410169090390365
aF2.0133747909500705
aa(lp967
F6.466721607599116
aF1.7800000000000011
aa(lp968
F6.466721607599116
aF3.4467495819001392
aa(lp969
F8.528783831221833
aF2.9800000000000004
aa(lp970
F8.528783831221833
aF2.24674958190014
aasS'trace_nodes'
p971
(lp972
(lp973
I16
aI17
aa(lp974
I14
aI19
aa(lp975
I15
aI20
aa(lp976
I18
aI21
aa(lp977
I23
aI15
aa(lp978
I15
aI11
aa(lp979
I11
aI14
aa(lp980
I14
aI22
aa(lp981
I16
aI2
aa(lp982
I2
aI24
aa(lp983
I26
aI18
aa(lp984
I18
aI12
aa(lp985
I12
aI17
aa(lp986
I17
aI25
aa(lp987
I27
aI1
aa(lp988
I1
aI19
aa(lp989
I29
aI4
aa(lp990
I4
aI7
aa(lp991
I7
aI13
aa(lp992
I13
aI28
aa(lp993
I30
aI6
aa(lp994
I6
aI20
aa(lp995
I21
aI9
aa(lp996
I9
aI31
aasS'corner_info'
p997
(lp998
(lp999
F5.22674958190014
aF0.0
aa(lp1000
F8.410169090390365
aF10.493857036841504
aa(lp1001
F8.410169090390365
aF10.493857036841504
aa(lp1002
F8.410169090390365
aF21.079393381258363
aasS'corner_nodes'
p1003
(lp1004
(lp1005
I16
aI17
aa(lp1006
I14
aI19
aa(lp1007
I15
aI20
aa(lp1008
I18
aI21
aasg229
g127
sS'normal_trace_df'
p1009
g123
(g829
g125
Ntp1010
Rp1011
(dp1012
g833
g834
sg835
g836
sg837
g123
(g838
g125
Ntp1013
Rp1014
((lp1015
g842
(cpandas.core.indexes.base
Index
p1016
(dp1017
g845
g846
(g847
(I0
tp1018
g373
tp1019
Rp1020
(I1
(I9
tp1021
g883
I00
(lp1022
S'ID'
p1023
aS'POI_Type'
p1024
aS'Data_Type'
p1025
aS'Point'
p1026
aS'Condition'
p1027
aS'node'
p1028
aS'i'
p1029
aS'j'
p1030
aS'side'
p1031
atp1032
bsg16
Nstp1033
Rp1034
ag842
(g843
(dp1035
g845
g846
(g847
(I0
tp1036
g373
tp1037
Rp1038
(I1
(I27
tp1039
g854
I00
S'\x00\x00\x00\x00\x00\x00\x00\x00\x01\x00\x00\x00\x00\x00\x00\x00\x02\x00\x00\x00\x00\x00\x00\x00\x03\x00\x00\x00\x00\x00\x00\x00\x04\x00\x00\x00\x00\x00\x00\x00\x05\x00\x00\x00\x00\x00\x00\x00\x06\x00\x00\x00\x00\x00\x00\x00\x07\x00\x00\x00\x00\x00\x00\x00\x08\x00\x00\x00\x00\x00\x00\x00\t\x00\x00\x00\x00\x00\x00\x00\n\x00\x00\x00\x00\x00\x00\x00\x0b\x00\x00\x00\x00\x00\x00\x00\x0c\x00\x00\x00\x00\x00\x00\x00\r\x00\x00\x00\x00\x00\x00\x00\x0e\x00\x00\x00\x00\x00\x00\x00\x0f\x00\x00\x00\x00\x00\x00\x00\x10\x00\x00\x00\x00\x00\x00\x00\x11\x00\x00\x00\x00\x00\x00\x00\x12\x00\x00\x00\x00\x00\x00\x00\x13\x00\x00\x00\x00\x00\x00\x00\x14\x00\x00\x00\x00\x00\x00\x00\x15\x00\x00\x00\x00\x00\x00\x00\x16\x00\x00\x00\x00\x00\x00\x00\x17\x00\x00\x00\x00\x00\x00\x00\x18\x00\x00\x00\x00\x00\x00\x00\x19\x00\x00\x00\x00\x00\x00\x00\x1a\x00\x00\x00\x00\x00\x00\x00'
p1040
tp1041
bsg16
Nstp1042
Rp1043
a(lp1044
g846
(g847
(I0
tp1045
g373
tp1046
Rp1047
(I1
(I9
I27
tp1048
g883
I01
(lp1049
I0
aI0
aI0
aI0
aI0
aI1
aI1
aI1
aI2
aI2
aI2
aI2
aI2
aI3
aI3
aI3
aI4
aI4
aI4
aI4
aI4
aI5
aI5
aI5
aI6
aI6
aI6
aI3
aI4
aI4
aI9
aI9
aI5
aI4
aI9
aI3
aI4
aI4
aI9
aI9
aI1
aI4
aI9
aI3
aI5
aI5
aI9
aI9
aI1
aI4
aI9
aI5
aI4
aI9
ag609
ag240
ag250
aNaNag314
ag299
aNag496
ag303
ag295
aNaNag326
ag246
aNag382
ag349
ag331
aNaNag279
ag246
aNag286
ag299
aNa(F20.863601701800626
F32.753071481579255
tp1050
a(F29.50204705079537
F32.753071481579255
tp1051
a(F12.96214463502139
F32.753071481579255
tp1052
a(F31.998419572379422
F32.753071481579255
tp1053
a(F9.728783831221833
F32.753071481579255
tp1054
a(F35.59920978618971
F24.059393381258364
tp1055
a(F35.59920978618971
F21.079393381258363
tp1056
a(F35.59920978618971
F26.306142963158504
tp1057
a(F19.0
F10.539696690629182
tp1058
a(F35.59920978618971
F10.539696690629182
tp1059
a(F4.264391915610917
F10.539696690629182
tp1060
a(F38.0
F10.539696690629182
tp1061
a(F0.0
F10.539696690629182
tp1062
ag328
a(F29.50204705079537
F27.506142963158503
tp1063
a(F29.50204705079537
F22.279393381258362
tp1064
a(F21.600589984016132
F24.292768172208433
tp1065
a(F21.600589984016132
F24.059393381258364
tp1066
a(F21.600589984016132
F24.059393381258364
tp1067
a(F21.600589984016132
F26.306142963158504
tp1068
a(F21.600589984016132
F22.279393381258362
tp1069
ag282
a(F12.96214463502139
F27.506142963158503
tp1070
a(F12.96214463502139
F22.279393381258362
tp1071
a(F4.264391915610917
F24.059393381258364
tp1072
a(F4.264391915610917
F21.079393381258363
tp1073
a(F4.264391915610917
F26.306142963158504
tp1074
aNaI01
aI01
aNaNaNaI01
aNaNaI01
aI01
aNaNaNaI01
aNaNaNaNaNaNaNaI01
aNaNaI01
aNaFnan
aFnan
aFnan
aFnan
aFnan
aFnan
aFnan
aFnan
aFnan
aFnan
aFnan
aFnan
aFnan
aFnan
aFnan
aFnan
aFnan
aFnan
aFnan
aFnan
aFnan
aFnan
aFnan
aFnan
aFnan
aFnan
aFnan
aFnan
aFnan
aFnan
aFnan
aFnan
aFnan
aFnan
aFnan
aFnan
aFnan
aFnan
aFnan
aFnan
aFnan
aFnan
aFnan
aFnan
aFnan
aFnan
aFnan
aFnan
aFnan
aFnan
aFnan
aFnan
aFnan
aFnan
aFnan
aFnan
aFnan
aFnan
aFnan
aFnan
aFnan
aFnan
aFnan
aFnan
aFnan
aFnan
aFnan
aFnan
aFnan
aFnan
aFnan
aFnan
aFnan
aFnan
aFnan
aFnan
aFnan
aFnan
aFnan
aFnan
aFnan
aFnan
aFnan
aFnan
aFnan
aFnan
aFnan
aFnan
aFnan
aFnan
aFnan
aFnan
aFnan
aFnan
aFnan
aFnan
aFnan
aFnan
aFnan
aFnan
aFnan
aFnan
aFnan
aFnan
aFnan
aFnan
aFnan
aFnan
atp1075
ba(lp1076
g842
(g1016
(dp1077
g845
g846
(g847
(I0
tp1078
g373
tp1079
Rp1080
(I1
(I9
tp1081
g883
I00
(lp1082
g1023
ag1024
ag1025
ag1026
ag1027
ag1028
ag1029
ag1030
ag1031
atp1083
bsg16
Nstp1084
Rp1085
a(dp1086
g910
(dp1087
g912
g1015
sg913
(lp1088
(dp1089
g916
g917
(I0
I9
L1L
tp1090
Rp1091
sg920
g1047
sasstp1092
bsbsS'all_trace_lines'
p1093
(lp1094
g246
ag303
ag299
ag240
ag338
ag250
ag295
asS'boundary_connections'
p1095
(dp1096
sS'super_traces'
p1097
g231
sbsS'layout'
p1098
(lp1099
g630
ag477
ag517
ag653
ag414
ag590
ag540
ag570
ag442
ag506
ag395
ag619
asg971
g972
sS'raw_layout'
p1100
(lp1101
g601
ag307
ag488
ag641
ag342
ag259
ag528
ag565
ag437
ag501
ag388
ag614
asS'all_lines'
p1102
(lp1103
g630
ag477
ag517
ag653
ag414
ag590
ag540
asS'sub_dim'
p1104
(F38.0
F38.0
tp1105
sS'temp_dir'
p1106
S'C:\\Users\\ialrazi\\PowerSynth\\CornerStitch_Dev\\PowerCAD-full\\export_data\\temp'
p1107
sS'trace_trace_connections'
p1108
(lp1109
(lp1110
g303
ag299
a(I4
I0
tp1111
aI00
aa(lp1112
g240
ag246
a(I3
I4
tp1113
aI00
aa(lp1114
g250
ag246
a(I1
I4
tp1115
aI00
aa(lp1116
g295
ag299
a(I0
I0
tp1117
aI00
aasS'h_dv_list'
p1118
(lp1119
(lp1120
g123
(g733
g125
Ntp1121
Rp1122
(dp1123
g737
I00
sg403
F9.728783831221833
sg738
I00
sg739
Nsg740
F8.528783831221833
sg322
I0
sg741
F4.264391915610917
sg742
(dp1124
g295
I1
ssg744
I01
sg745
I01
sg406
F0.0
sbaa(lp1125
g123
(g733
g125
Ntp1126
Rp1127
(dp1128
g737
I00
sg403
F17.395505438820948
sg738
I00
sg739
Nsg322
I1
sg741
F12.96214463502139
sg765
F6.466721607599115
sg742
(dp1129
g250
I1
ssg744
I01
sg745
Nsg406
F9.728783831221833
sbaa(lp1130
g123
(g733
g125
Ntp1131
Rp1132
(dp1133
g737
I00
sg403
F27.005674529211312
sg738
I00
sg739
Nsg322
I2
sg741
F21.600589984016132
sg765
F8.410169090390365
sg742
(dp1134
g338
I1
ssg744
I01
sg745
Nsg406
F17.395505438820948
sbaa(lp1135
g123
(g733
g125
Ntp1136
Rp1137
(dp1138
g737
I00
sg403
F33.19841957237942
sg738
I00
sg739
Nsg322
I3
sg741
F29.50204705079537
sg765
F4.992745043168111
sg742
(dp1139
g240
I1
ssg744
I01
sg745
Nsg406
F27.005674529211312
sbaa(lp1140
g123
(g733
g125
Ntp1141
Rp1142
(dp1143
g737
I00
sg403
F38.0
sg738
I00
sg739
Nsg322
I4
sg741
F35.59920978618971
sg765
F4.801580427620577
sg742
(dp1144
g303
I1
ssg744
I01
sg745
Nsg406
F33.19841957237942
sbaasS'h_overflow'
p1145
F0.0
sS'eval_count'
p1146
I397
sS'fixed_constraints'
p1147
(lp1148
sS'trace_rects'
p1149
(lp1150
g625
ag472
ag512
ag648
ag409
ag585
ag535
asg185
g186
sS'bondwire_dv_list'
p1151
(lp1152
sS'h_design_values'
p1153
(lp1154
NaF6.466721607599115
aF8.410169090390365
aF4.992745043168111
aF4.801580427620577
asS'eval_total'
p1155
I1200
sS'lumped_graph'
p1156
g123
(cnetworkx.classes.graph
Graph
p1157
g125
Ntp1158
Rp1159
(dp1160
g1028
(dp1161
I1
(dp1162
S'obj'
p1163
g326
sS'type'
p1164
S'deviceD'
p1165
sS'point'
p1166
g328
ssI2
(dp1167
g1164
S'bw_spine'
p1168
sg1166
g1055
ssI3
(dp1169
g1164
S'bw_land'
p1170
sg1166
g457
ssI4
(dp1171
g1164
g1168
sg1166
g1067
ssI5
(dp1172
g1164
g1170
sg1166
g424
ssI6
(dp1173
g1163
g279
sg1164
g1165
sg1166
g282
ssI7
(dp1174
g1164
g1168
sg1166
g1066
ssI8
(dp1175
g1164
g1170
sg1166
g356
ssI9
(dp1176
g1164
g1168
sg1166
g1072
ssI10
(dp1177
g1164
g1170
sg1166
g550
ssI11
(dp1178
g1163
g609
sg1164
S'lead'
p1179
sg1166
g1050
ssI12
(dp1180
g1163
g496
sg1164
g1179
sg1166
g1058
ssI13
(dp1181
g1163
g382
sg1164
g1179
sg1166
g1065
ssI14
(dp1182
g1164
S'trace-to-trace'
p1183
sg1166
g1051
ssI15
(dp1184
g1164
g1183
sg1166
g1052
ssI16
(dp1185
g1164
g1183
sg1166
g1056
ssI17
(dp1186
g1164
g1183
sg1166
g1059
ssI18
(dp1187
g1164
g1183
sg1166
g1060
ssI19
(dp1188
g1164
g1183
sg1166
g1063
ssI20
(dp1189
g1164
g1183
sg1166
g1070
ssI21
(dp1190
g1164
g1183
sg1166
g1073
ssI22
(dp1191
g1164
S'end_pt'
p1192
sg1166
g1053
ssI23
(dp1193
g1164
g1192
sg1166
g1054
ssI24
(dp1194
g1164
g1192
sg1166
g1057
ssI25
(dp1195
g1164
g1192
sg1166
g1061
ssI26
(dp1196
g1164
g1192
sg1166
g1062
ssI27
(dp1197
g1164
g1192
sg1166
g1064
ssI28
(dp1198
g1164
g1192
sg1166
g1068
ssI29
(dp1199
g1164
g1192
sg1166
g1069
ssI30
(dp1200
g1164
g1192
sg1166
g1071
ssI31
(dp1201
g1164
g1192
sg1166
g1074
ssI1001
(dp1202
g1163
g326
sg1166
(lp1203
F31.50204705079537
aF26.059393381258364
asg1164
S'deviceS'
p1204
ssI1002
(dp1205
g1163
g326
sg1166
(lp1206
F27.50204705079537
aF22.059393381258364
asg1164
S'deviceG'
p1207
ssI6001
(dp1208
g1163
g279
sg1166
(lp1209
F14.96214463502139
aF26.059393381258364
asg1164
g1204
ssI6002
(dp1210
g1163
g279
sg1166
(lp1211
F10.96214463502139
aF22.059393381258364
asg1164
g1207
sssS'graph'
p1212
(dp1213
sS'edge'
p1214
(dp1215
I1
(dp1216
I19
(dp1217
g60
F4.99274504316811
sS'length'
p1218
F3.4467495819001392
sS'ind'
p1219
F1.7586700722794462
sS'res'
p1220
F21.101796783977164
sS'cap'
p1221
F0.384833413648784
sg1164
g293
ssI1001
(dp1222
g1219
F10000000.0
sg1220
F10000000.0
sg1221
F10000000.0
sg1164
S'Drain_to_Source'
p1223
sg1163
NssI27
(dp1224
g60
F4.99274504316811
sg1218
F1.7800000000000011
sg1219
F4.272050341604
sg1220
F40.861016428379195
sg1221
F0.6728288986820458
sg1164
g293
sssI2
(dp1225
I16
(dp1226
g60
F4.8015804276205785
sg1218
F2.9800000000000004
sg1219
F2.1015187088789657
sg1220
F23.64544925755396
sg1221
F0.45375035337563496
sg1164
g293
ssI24
(dp1227
g60
F4.8015804276205785
sg1218
F2.24674958190014
sg1219
F3.0883202839448067
sg1220
F31.362390964781156
sg1221
F0.5774251831883052
sg1164
g293
ssI3
(dp1228
g60
F0.5527906391541367
sg1218
F1.4007902138102892
sg1219
F1000.0
sg1220
F1000.0
sg1221
F1000.0
sg1164
S'trace_bw'
p1229
sssI3
(dp1230
I1001
(dp1231
g1219
F0.4618937644341801
sg1220
F1.0255015105984586
sg1221
F1000.0
sg1164
S'bw power'
p1232
sg1163
g314
ssI2
g1228
ssI4
(dp1233
I7
(dp1234
g60
F8.410169090390365
sg1218
F0.0
sg1219
F1000000.0
sg1220
F1000000.0
sg1221
F1000.0
sg1164
g293
ssI5
(dp1235
g60
F0.1
sg1218
F4.0050845451951815
sg1219
F1000.0
sg1220
F1000.0
sg1221
F1000.0
sg1164
g1229
ssI29
(dp1236
g60
F8.410169090390365
sg1218
F1.7800000000000011
sg1219
F5.2717525753380485
sg1220
F65.84187970501489
sg1221
F0.40468201931557424
sg1164
g293
sssI5
(dp1237
I1002
(dp1238
g1219
F0.23094688221709006
sg1220
F0.08712442990563779
sg1221
F1000.0
sg1164
S'bw signal'
p1239
sg1163
g331
ssI4
g1235
ssI6
(dp1240
I6001
(dp1241
g1219
F10000000.0
sg1220
F10000000.0
sg1221
F10000000.0
sg1164
g1223
sg1163
NssI20
(dp1242
g60
F6.466721607599116
sg1218
F3.4467495819001392
sg1219
F2.0663729921128695
sg1220
F26.282959493708198
sg1221
F0.30075695328526036
sg1164
g293
ssI30
(dp1243
g60
F6.466721607599116
sg1218
F1.7800000000000011
sg1219
F4.8498457153516945
sg1220
F50.893696430357856
sg1221
F0.5234655861125358
sg1164
g293
sssI7
(dp1244
I8
(dp1245
g60
F0.1
sg1218
F4.005084545195185
sg1219
F1000.0
sg1220
F1000.0
sg1221
F1000.0
sg1164
g1229
ssI4
g1234
sI13
(dp1246
g60
F8.410169090390365
sg1218
F0.2333747909500694
sg1219
F6.767699211720105
sg1220
F502.1902554162383
sg1221
F1.2663410183544188
sg1164
g293
sssI8
(dp1247
I6002
(dp1248
g1219
F0.23094688221709006
sg1220
F0.07158864485858461
sg1221
F1000.0
sg1164
g1239
sg1163
g349
ssI7
g1245
ssI9
(dp1249
I10
(dp1250
g60
F0.5527906391541367
sg1218
F3.2643919156109167
sg1219
F1000.0
sg1220
F1000.0
sg1221
F1000.0
sg1164
g1229
ssI21
(dp1251
g60
F8.528783831221833
sg1218
F2.9800000000000004
sg1219
F2.972680670820726
sg1220
F39.93833091445502
sg1221
F0.2612771836054969
sg1164
g293
ssI31
(dp1252
g60
F8.528783831221833
sg1218
F2.24674958190014
sg1219
F4.183335913949878
sg1220
F52.97262635937405
sg1221
F0.3311751191551695
sg1164
g293
sssI10
(dp1253
I9
g1250
sI6001
(dp1254
g1219
F0.4618937644341801
sg1220
F0.8785319789037968
sg1221
F1000.0
sg1164
g1232
sg1163
g286
sssI11
(dp1255
I14
(dp1256
g60
F10.493857036841497
sg1218
F8.638445348994743
sg1219
F0.7466174205048948
sg1220
F17.866813977043154
sg1221
F0.08143910514337423
sg1164
g293
ssI15
(dp1257
g60
F10.493857036841497
sg1218
F7.901457066779235
sg1219
F0.8508347596907007
sg1220
F19.53329554244542
sg1221
F0.08857455432742682
sg1164
g293
sssI12
(dp1258
I17
(dp1259
g60
F21.079393381258363
sg1218
F16.59920978618971
sg1219
F0.43301780465265527
sg1220
F17.796550683146048
sg1221
F0.022131972936866175
sg1164
g293
ssI18
(dp1260
g60
F21.079393381258363
sg1218
F14.735608084389083
sg1219
F0.5186104761838611
sg1220
F20.04726758260185
sg1221
F0.024829706254779586
sg1164
g293
sssI13
(dp1261
I28
(dp1262
g60
F8.410169090390365
sg1218
F2.0133747909500705
sg1219
F4.680178987028436
sg1220
F58.20999964920736
sg1221
F0.36700114036605563
sg1164
g293
ssI7
g1246
ssI14
(dp1263
I11
g1256
sI19
(dp1264
g60
F8.410169090390365
sg1218
F5.246928518420752
sg1219
F1.342999770466585
sg1220
F22.336600444139766
sg1221
F0.1602534547698746
sg1164
g293
ssI22
(dp1265
g60
F10.493857036841497
sg1218
F2.4963725215840533
sg1219
F4.008870561726959
sg1220
F61.82630787948527
sg1221
F0.2478195540604397
sg1164
g293
sssI15
(dp1266
I11
g1257
sI20
(dp1267
g60
F8.410169090390365
sg1218
F5.246928518420752
sg1219
F1.342999770466585
sg1220
F22.336600444139766
sg1221
F0.1602534547698746
sg1164
g293
ssI23
(dp1268
g60
F10.493857036841497
sg1218
F3.233360803799558
sg1219
F2.98332860147592
sg1220
F47.73407778060967
sg1221
F0.199029403221327
sg1164
g293
sssI16
(dp1269
I17
(dp1270
g60
F5.22674958190014
sg1218
F0.0
sg1219
F1000000.0
sg1220
F1000000.0
sg1221
F1000.0
sg1164
g293
ssI2
g1226
ssI17
(dp1271
I16
g1270
sI25
(dp1272
g60
F21.079393381258363
sg1218
F2.4007902138102892
sg1219
F3.5935219354757475
sg1220
F123.04643552809915
sg1221
F0.12850905198128743
sg1164
g293
ssI12
g1259
ssI18
(dp1273
I26
(dp1274
g60
F21.079393381258363
sg1218
F4.264391915610917
sg1219
F2.7130327923754147
sg1220
F69.27334168763397
sg1221
F0.07879777090236913
sg1164
g293
ssI12
g1260
sI21
(dp1275
g60
F8.410169090390365
sg1218
F10.539696690629182
sg1219
F0.4918494030478358
sg1220
F11.11972662165198
sg1221
F0.08337433369471484
sg1164
g293
sssI19
(dp1276
I1
g1217
sI14
g1264
ssI20
(dp1277
I6
g1242
sI15
g1267
ssI21
(dp1278
I9
g1251
sI18
g1275
ssI22
(dp1279
I14
g1265
ssI23
(dp1280
I15
g1268
ssI24
(dp1281
I2
g1227
ssI25
(dp1282
I17
g1272
ssI26
(dp1283
I18
g1274
ssI27
(dp1284
I1
g1224
ssI28
(dp1285
I13
g1262
ssI29
(dp1286
I4
g1236
ssI30
(dp1287
I6
g1243
ssI31
(dp1288
I9
g1252
ssI1001
(dp1289
I1
g1222
sI3
g1231
ssI1002
(dp1290
I5
g1238
ssI6001
(dp1291
I10
g1254
sI6
g1241
ssI6002
(dp1292
I8
g1248
sssS'adj'
p1293
g1215
sbsS'count'
p1294
I397
sS'dev_design_values'
p1295
(lp1296
F0.0
aF0.0
asS'removed_horiz_dv_index'
p1297
I0
sS'v_min_max_overflow'
p1298
(F0.0
F0.0
tp1299
sg997
g998
sS'cost_funcs'
p1300
(lp1301
sS'gap'
p1302
F1.2
sg1093
g1094
sS'v_design_values'
p1303
(lp1304
NaF2.559857485260129
aF2.6668920966400114
aF0.0
aF10.493857036841497
asS'opt_to_sym_index'
p1305
(lp1306
(I1
I1
tp1307
a(I1
I2
tp1308
a(I1
I3
tp1309
a(I1
I4
tp1310
a(I2
I1
tp1311
a(I2
I2
tp1312
a(I2
I3
tp1313
a(I2
I4
tp1314
a(I3
I0
tp1315
a(I3
I1
tp1316
asS'trace_graph'
p1317
g123
(g1157
g125
Ntp1318
Rp1319
(dp1320
g1028
(dp1321
g295
(dp1322
sg246
(dp1323
sg303
(dp1324
sg299
(dp1325
sg240
(dp1326
sg338
(dp1327
sg250
(dp1328
ssg1212
(dp1329
sg1214
(dp1330
g295
(dp1331
g299
(dp1332
ssg246
(dp1333
g240
(dp1334
sg250
(dp1335
ssg303
(dp1336
g299
(dp1337
ssg299
(dp1338
g295
g1332
sg303
g1337
ssg240
(dp1339
g246
g1334
ssg338
(dp1340
sg250
(dp1341
g246
g1335
sssg1293
g1330
sbsS'trace_layout'
p1342
(lp1343
g636
ag483
ag523
ag659
ag420
ag596
ag546
asS'layout_ready'
p1344
I01
sS'removed_vert_dv_index'
p1345
I0
sg1095
g1096
sS'ylen'
p1346
I7
sS'trace_graph_components'
p1347
(lp1348
(lp1349
(lp1350
g295
ag303
ag299
aa(lp1351
aa(lp1352
(lp1353
g240
ag250
ag246
aa(lp1354
g326
ag279
aaa(lp1355
(lp1356
g338
aa(lp1357
aasS'bondwire_design_values'
p1358
(lp1359
sS'h_rowcol_list'
p1360
(lp1361
g1122
ag1127
ag1132
ag1137
ag1142
asS'h_design_var_dict'
p1362
Nsg945
g946
sS'algorithm'
p1363
S'NSGAII'
p1364
sS'symbol_graph'
p1365
g123
(g1157
g125
Ntp1366
Rp1367
(dp1368
g1028
(dp1369
g295
(dp1370
sg279
(dp1371
sg326
(dp1372
sg609
(dp1373
sg286
(dp1374
sg349
(dp1375
sg382
(dp1376
sg314
(dp1377
sg496
(dp1378
sg246
(dp1379
sg303
(dp1380
sg331
(dp1381
sg299
(dp1382
sg240
(dp1383
sg338
(dp1384
sg250
(dp1385
ssg1212
(dp1386
sg1214
(dp1387
g295
(dp1388
g299
(dp1389
sg286
(dp1390
ssg279
(dp1391
g349
(dp1392
sg286
(dp1393
sg250
(dp1394
ssg326
(dp1395
g314
(dp1396
sg240
(dp1397
sg331
(dp1398
ssg609
(dp1399
g246
(dp1400
ssg286
(dp1401
g295
g1390
sg279
g1393
ssg349
(dp1402
g279
g1392
sg338
(dp1403
ssg382
(dp1404
g338
(dp1405
ssg314
(dp1406
g326
g1396
sg303
(dp1407
ssg496
(dp1408
g299
(dp1409
ssg246
(dp1410
g240
(dp1411
sg609
g1400
sg250
(dp1412
ssg303
(dp1413
g299
(dp1414
sg314
g1407
ssg331
(dp1415
g326
g1398
sg338
(dp1416
ssg299
(dp1417
g295
g1389
sg496
g1409
sg303
g1414
ssg240
(dp1418
g326
g1397
sg246
g1411
ssg338
(dp1419
g382
g1405
sg331
g1416
sg349
g1403
ssg250
(dp1420
g279
g1394
sg246
g1412
sssg1293
g1387
sbsg1003
g1004
sg938
(lp1421
g326
ag279
asS'SymPoint'
p1422
g277
sS'trial'
p1423
I1114
sS'trace_ylen'
p1424
I5
sS'points'
p1425
(lp1426
g279
ag326
ag496
ag382
ag609
asS'mode'
p1427
I7
sS'all_points'
p1428
(lp1429
g570
ag442
ag506
ag395
ag619
asS'solution_lib'
p1430
(ipowercad.sol_browser.solution_lib
SolutionLibrary
p1431
(dp1432
S'measure_data'
p1433
(lp1434
(lp1435
F3.936332526072553
aF4.011073525022554
aF4.088523335003637
aF4.090192864642215
aF4.093616324860497
aF4.094825951013882
aF4.102716580141016
aF4.158467461439077
aF4.185773569941274
aF5.3418134839308244
aF5.505420770693571
aF5.840629955580241
aF6.853383874962065
aF7.038115399323149
aF7.048108171996711
aF7.916760798078932
aa(lp1436
F321.4153413281479
aF321.4145896015784
aF321.4026609284075
aF321.3999450929423
aF321.38989579794736
aF321.38364611961964
aF321.377357688396
aF321.37389237133124
aF321.37263494316517
aF321.37060778728795
aF321.3674117958157
aF321.36456567853145
aF321.36054146829946
aF321.3597444343099
aF321.3576204151077
aF321.3561534455757
aasS'individuals'
p1437
(lp1438
(lp1439
F3.9622226566290646
aF5.996302511075445
aF5.043540558877907
aF5.110783433538968
aF5.392673632426211
aF0.0
aF0.0
aF6.8096441126607425
aF0.0
aF0.0
aa(lp1440
F5.4091402988713515
aF5.996302511075445
aF5.043540558877906
aF4.785645337572928
aF5.392673632426211
aF0.0
aF0.0
aF6.58130102875832
aF0.0
aF0.0
aa(lp1441
F6.466721607599107
aF8.410169090390365
aF4.992745043168111
aF4.756560954322746
aF2.5598574852601295
aF2.6668920966400114
aF0.0
aF7.971146405595022
aF0.0
aF0.0
aa(lp1442
F6.46672160759912
aF8.410169090390365
aF4.99274504316811
aF4.628641619888251
aF2.5598574852601295
aF2.6668920966400114
aF0.0
aF8.099964205555434
aF0.0
aF0.0
aa(lp1443
F6.466721607599115
aF8.410169090390365
aF4.992745043168111
aF4.801580427620577
aF2.559857485260129
aF2.6668920966400114
aF0.0
aF10.493857036841497
aF0.0
aF0.0
aa(lp1444
F6.466721607599113
aF8.410169090390365
aF4.992745043168112
aF4.533940456184753
aF2.559857485260129
aF2.6668920966400114
aF0.0
aF10.141981679783573
aF0.0
aF0.0
aa(lp1445
F6.466721607599112
aF8.410169090390365
aF4.992745043168107
aF4.0732841421191806
aF2.559857485260129
aF2.6668920966400114
aF0.0
aF9.746269197810959
aF0.0
aF0.0
aa(lp1446
F6.4667216075991165
aF8.410169090390365
aF4.992745043168109
aF3.1101456285300726
aF2.559857485260129
aF2.6668920966400114
aF0.0
aF11.447132462830174
aF0.0
aF0.0
aa(lp1447
F6.466721607599114
aF8.410169090390365
aF4.992745043168107
aF2.9713280224671346
aF2.559857485260129
aF2.6668920966400114
aF0.0
aF12.301094113660323
aF0.0
aF0.0
aa(lp1448
F9.056166882425108
aF7.693679226569982
aF3.6952131249230464
aF5.003851677679429
aF9.0561668824251
aF4.176433728533622
aF0.0
aF8.335714278970634
aF0.0
aF0.787401358373374
aa(lp1449
F9.056166882425112
aF7.440602189163379
aF3.695213124923045
aF5.003851677679431
aF9.0561668824251
aF5.216404775195551
aF0.0
aF8.335714278970636
aF0.0
aF0.7874013583733739
aa(lp1450
F9.309354999094
aF7.693679226569982
aF3.6952131249230464
aF5.163077116599889
aF11.551877519200083
aF4.176433728533622
aF0.0
aF8.335714278970634
aF0.0
aF0.787401358373374
aa(lp1451
F10.291888944350221
aF3.4894893278624872
aF4.930539470701533
aF4.991013216052234
aF7.826274857920088
aF11.51534199778202
aF2.7314487862257413
aF2.2592184574907037
aF0.013668125596644652
aF0.7874013583733739
aa(lp1452
F10.29188894435022
aF4.152931927358923
aF4.930539470701534
aF4.991013216052233
aF8.225209558596411
aF11.515341997782022
aF2.835480703455579
aF2.2592184574907033
aF0.013668125596644654
aF0.787401358373374
aa(lp1453
F10.29188894435022
aF3.7525114843516167
aF4.930539470701535
aF4.991013216052233
aF8.09122056475793
aF11.51534199778202
aF3.3240439020005814
aF2.259218457490704
aF0.013668125596644654
aF0.7874013583733739
aa(lp1454
F10.29188894435022
aF6.1240222276133425
aF4.930539470701535
aF4.991013216052234
aF8.964182279741049
aF11.51534199778202
aF4.434675834530291
aF2.2592184574907033
aF0.013668125596644654
aF0.7874013583733741
aasS'measure_names_units'
p1455
(lp1456
(g824
g927
tp1457
a(g935
g940
tp1458
asbsS'dev_dv_list'
p1459
(lp1460
(lp1461
g326
aa(lp1462
g279
aasS'tol_constraints'
p1463
(lp1464
sS'bondwires'
p1465
(lp1466
g286
ag314
ag349
ag331
asS'v_design_var_dict'
p1467
NsbsS'tbl_bondwire_connect'
p1468
g123
(g829
g125
Ntp1469
Rp1470
(dp1471
g833
g834
sg835
g836
sg837
g123
(g838
g125
Ntp1472
Rp1473
((lp1474
g842
(g1016
(dp1475
g845
g846
(g847
(I0
tp1476
g373
tp1477
Rp1478
(I1
(I9
tp1479
g883
I00
(lp1480
S'bw_type'
p1481
aS'start'
p1482
aS'stop'
p1483
ag1163
aI0
aI1
aI2
aI3
aI4
atp1484
bsg16
Nstp1485
Rp1486
ag842
(g843
(dp1487
g845
g846
(g847
(I0
tp1488
g373
tp1489
Rp1490
(I1
(I4
tp1491
g854
I00
S'\x00\x00\x00\x00\x00\x00\x00\x00\x01\x00\x00\x00\x00\x00\x00\x00\x02\x00\x00\x00\x00\x00\x00\x00\x03\x00\x00\x00\x00\x00\x00\x00'
p1492
tp1493
bsg16
Nstp1494
Rp1495
a(lp1496
g846
(g847
(I0
tp1497
g373
tp1498
Rp1499
(I1
(I9
I4
tp1500
g883
I01
(lp1501
Fnan
aFnan
aFnan
aFnan
aFnan
aFnan
aFnan
aFnan
aFnan
aFnan
aFnan
aFnan
aFnan
aFnan
aFnan
aFnan
aVPOWER
p1502
aVPOWER
p1503
aVSIGNAL
p1504
aVSIGNAL
p1505
aVM1
p1506
aVM2
p1507
aVM1
p1508
aVM2
p1509
aVT7
p1510
aVT2
p1511
aVT5
p1512
aVT5
p1513
aV Aluminium Power Bondwire 0.3x0.2mm.p
p1514
aV Aluminium Power Bondwire 0.3x0.2mm.p
p1515
aV Aluminium Signal Bondwire 0.1mm.p
p1516
aV Aluminium Signal Bondwire 0.1mm.p
p1517
ag556
ag463
ag368
ag429
atp1518
ba(lp1519
g842
(g1016
(dp1520
g845
g846
(g847
(I0
tp1521
g373
tp1522
Rp1523
(I1
(I9
tp1524
g883
I00
(lp1525
g1481
ag1482
ag1483
ag1163
aI0
aI1
aI2
aI3
aI4
atp1526
bsg16
Nstp1527
Rp1528
a(dp1529
g910
(dp1530
g912
g1474
sg913
(lp1531
(dp1532
g916
g917
(I0
I9
L1L
tp1533
Rp1534
sg920
g1499
sasstp1535
bsbsb.