(ipowercad.design.library_structures
DieAttach
p0
(dp1
S'properties'
p2
(ipowercad.design.library_structures
MaterialProperties
p3
(dp4
S'name'
p5
S'testPaste'
p6
sS'density'
p7
F800.0
sS'electrical_res'
p8
NsS'rel_permeab'
p9
NsS'rel_permit'
p10
NsS'thermal_cond'
p11
F3.0
sS'spec_heat_cap'
p12
F100.0
sbsb.