(ipowercad.project_builder.project
Project
p0
(dp1
S'deviceTable'
p2
(lp3
(lp4
V  CPM2-1200-0080B-MOS.p
p5
a(ipowercad.design.project_structures
DeviceInstance
p6
(dp7
S'attach_thickness'
p8
F0.01
sS'heat_flow'
p9
F3.0
sS'attach_tech'
p10
(ipowercad.design.library_structures
DieAttach
p11
(dp12
S'properties'
p13
(ipowercad.design.library_structures
MaterialProperties
p14
(dp15
S'name'
p16
S'Pb-Sn Solder Alloy'
p17
sS'density'
p18
F11020.0
sS'electrical_res'
p19
NsS'rel_permeab'
p20
NsS'rel_permit'
p21
NsS'thermal_cond'
p22
F35.8
sS'spec_heat_cap'
p23
F130.0
sbsbsS'device_tech'
p24
(ipowercad.design.library_structures
Device
p25
(dp26
g16
S'CPM2-1200-0080B-MOS'
p27
sS'wire_landings'
p28
(lp29
(ipowercad.design.library_structures
BondwireLanding
p30
(dp31
S'position'
p32
(F1.0
F3.0
tp33
sS'bond_type'
p34
I2
sba(ipowercad.design.library_structures
BondwireLanding
p35
(dp36
g32
(F2.0
F1.5
tp37
sg34
I1
sba(ipowercad.design.library_structures
BondwireLanding
p38
(dp39
g32
(F2.0
F0.5
tp40
sg34
I1
sbasS'device_model'
p41
NsS'power_side'
p42
I1
sS'device_type'
p43
I1
sg13
(ipowercad.design.library_structures
MaterialProperties
p44
(dp45
S'young_mdl'
p46
NsS'poi_rat'
p47
Nsg16
Nsg18
F3100.0
sS'expansion_coeff'
p48
Nsg19
Nsg20
Nsg21
Nsg22
F370.0
sS'id'
p49
Nsg23
F750.0
sbsS'dimensions'
p50
(F3.1
F3.36
F0.22
tp51
sbsS'thermal_features'
p52
(ipowercad.thermal.fast_thermal
DieThermalFeatures
p53
(dp54
S'eff_power'
p55
F2.815810317738009
sS'iso_top_temps'
p56
(lp57
(ipowercad.thermal.fast_thermal
ContourRect
p58
(dp59
S'width'
p60
F3.1
sS'avg_val'
p61
F7.122843879714676
sS'height'
p62
F3.2032032032032034
sba(ipowercad.thermal.fast_thermal
ContourRect
p63
(dp64
g60
F7.199999999999999
sg61
F6.195886377251021
sg62
F7.257257257257257
sba(ipowercad.thermal.fast_thermal
ContourRect
p65
(dp66
g60
F11.299999999999999
sg61
F5.82479632383603
sg62
F11.361361361361363
sba(ipowercad.thermal.fast_thermal
ContourRect
p67
(dp68
g60
F15.399999999999999
sg61
F5.719809716328077
sg62
F15.365365365365367
sba(ipowercad.thermal.fast_thermal
ContourRect
p69
(dp70
g60
F19.5
sg61
F5.665395068731171
sg62
F19.46946946946947
sba(ipowercad.thermal.fast_thermal
ContourRect
p71
(dp72
g60
F23.6
sg61
F5.628904479651517
sg62
F23.523523523523526
sba(ipowercad.thermal.fast_thermal
ContourRect
p73
(dp74
g60
F27.7
sg61
F5.60182383903479
sg62
F27.57757757757758
sba(ipowercad.thermal.fast_thermal
ContourRect
p75
(dp76
g60
F31.799999999999997
sg61
F5.580976751553924
sg62
F31.481481481481485
sba(ipowercad.thermal.fast_thermal
ContourRect
p77
(dp78
g60
F35.9
sg61
F5.565404840807914
sg62
F34.88488488488489
sba(ipowercad.thermal.fast_thermal
ContourRect
p79
(dp80
g60
F40.0
sg61
F5.553110320150989
sg62
F38.38838838838839
sbasS'iso_top_avg_temp'
p81
F5.612647129999999
sS'die_power'
p82
F3.0
sS'die_res'
p83
F0.08390209327315112
sS'self_temp'
p84
F7.0795867466334075
sS'iso_top_fluxes'
p85
(lp86
(ipowercad.thermal.fast_thermal
ContourRect
p87
(dp88
g60
F3.1
sg61
F0.1490142399808351
sg62
F2.752752752752753
sba(ipowercad.thermal.fast_thermal
ContourRect
p89
(dp90
g60
F4.253253253253254
sg61
F0.08143094757300282
sg62
F4.054054054054054
sba(ipowercad.thermal.fast_thermal
ContourRect
p91
(dp92
g60
F5.406506506506506
sg61
F0.03177977525900483
sg62
F5.405405405405406
sba(ipowercad.thermal.fast_thermal
ContourRect
p93
(dp94
g60
F6.5597597597597606
sg61
F0.011957215287250638
sg62
F6.406406406406407
sba(ipowercad.thermal.fast_thermal
ContourRect
p95
(dp96
g60
F7.713013013013013
sg61
F0.006323006347286486
sg62
F7.357357357357357
sba(ipowercad.thermal.fast_thermal
ContourRect
p97
(dp98
g60
F8.866266266266267
sg61
F0.004067180676208915
sg62
F7.807807807807809
sba(ipowercad.thermal.fast_thermal
ContourRect
p99
(dp100
g60
F10.01951951951952
sg61
F0.0030276207000371437
sg62
F8.358358358358359
sba(ipowercad.thermal.fast_thermal
ContourRect
p101
(dp102
g60
F11.172772772772772
sg61
F0.002137082119879503
sg62
F9.50950950950951
sba(ipowercad.thermal.fast_thermal
ContourRect
p103
(dp104
g60
F12.326026026026026
sg61
F0.001101283879651085
sg62
F11.211211211211213
sba(ipowercad.thermal.fast_thermal
ContourRect
p105
(dp106
g60
F13.479279279279279
sg61
F0.000394061760365258
sg62
F15.915915915915917
sbasbsbaa(lp107
V  Cylindrical Aluminium Lead 1.2mm Diam..p
p108
a(ipowercad.design.library_structures
Lead
p109
(dp110
S'lead_type'
p111
I2
sS'shape'
p112
I2
sg50
(F1.2
I10
tp113
sg16
S'Cylindrical Aluminium Lead 1.2mm Diam.'
p114
sg13
(ipowercad.design.library_structures
MaterialProperties
p115
(dp116
g16
S'Aluminium'
p117
sg18
Nsg19
F3e-08
sg20
Nsg21
Nsg22
Nsg23
Nsbsbaa(lp118
V  CPW4-1200S020B SiC-Diode.p
p119
a(ipowercad.design.project_structures
DeviceInstance
p120
(dp121
g8
F0.01
sg9
F3.0
sg10
(ipowercad.design.library_structures
DieAttach
p122
(dp123
g13
(ipowercad.design.library_structures
MaterialProperties
p124
(dp125
g16
S'Pb-Sn Solder Alloy'
p126
sg18
F11020.0
sg19
Nsg20
Nsg21
Nsg22
F35.8
sg23
F130.0
sbsbsg24
(ipowercad.design.library_structures
Device
p127
(dp128
g16
S'CPW4-1200S020B SiC-Diode'
p129
sg28
(lp130
(ipowercad.design.library_structures
BondwireLanding
p131
(dp132
g32
(F0.84
F0.94
tp133
sg34
I1
sbasg41
Nsg42
I1
sg43
I2
sg13
(ipowercad.design.library_structures
MaterialProperties
p134
(dp135
g16
Nsg18
F3200.0
sg19
Nsg20
Nsg21
Nsg22
F120.0
sg23
F750.0
sbsg50
(F3.08
F3.08
F0.377
tp136
sbsg52
(ipowercad.thermal.fast_thermal
DieThermalFeatures
p137
(dp138
g55
F2.8382217536309233
sg56
(lp139
(ipowercad.thermal.fast_thermal
ContourRect
p140
(dp141
g60
F3.08
sg61
F7.216718163628425
sg62
F3.0030030030030033
sba(ipowercad.thermal.fast_thermal
ContourRect
p142
(dp143
g60
F7.182222222222222
sg61
F6.201372454139829
sg62
F7.157157157157157
sba(ipowercad.thermal.fast_thermal
ContourRect
p144
(dp145
g60
F11.284444444444444
sg61
F5.827007593837798
sg62
F11.161161161161163
sba(ipowercad.thermal.fast_thermal
ContourRect
p146
(dp147
g60
F15.386666666666667
sg61
F5.720826348934478
sg62
F15.265265265265267
sba(ipowercad.thermal.fast_thermal
ContourRect
p148
(dp149
g60
F19.488888888888887
sg61
F5.665737706646163
sg62
F19.41941941941942
sba(ipowercad.thermal.fast_thermal
ContourRect
p150
(dp151
g60
F23.59111111111111
sg61
F5.629078594652856
sg62
F23.473473473473476
sba(ipowercad.thermal.fast_thermal
ContourRect
p152
(dp153
g60
F27.693333333333335
sg61
F5.602043669753269
sg62
F27.47747747747748
sba(ipowercad.thermal.fast_thermal
ContourRect
p154
(dp155
g60
F31.795555555555552
sg61
F5.581064549554261
sg62
F31.481481481481485
sba(ipowercad.thermal.fast_thermal
ContourRect
p156
(dp157
g60
F35.897777777777776
sg61
F5.565375469027432
sg62
F34.88488488488489
sba(ipowercad.thermal.fast_thermal
ContourRect
p158
(dp159
g60
F40.0
sg61
F5.553074492150306
sg62
F38.38838838838839
sbasg81
F5.612626814999999
sg82
F3.0
sg83
F0.3606211287322076
sg84
F7.191335510854267
sg85
(lp160
(ipowercad.thermal.fast_thermal
ContourRect
p161
(dp162
g60
F3.08
sg61
F0.16157931425689082
sg62
F2.702702702702703
sba(ipowercad.thermal.fast_thermal
ContourRect
p163
(dp164
g60
F4.209240351462574
sg61
F0.08574608272227874
sg62
F3.753753753753754
sba(ipowercad.thermal.fast_thermal
ContourRect
p165
(dp166
g60
F5.338480702925148
sg61
F0.03471426674440198
sg62
F4.954954954954955
sba(ipowercad.thermal.fast_thermal
ContourRect
p167
(dp168
g60
F6.467721054387721
sg61
F0.012655633755992862
sg62
F6.106106106106107
sba(ipowercad.thermal.fast_thermal
ContourRect
p169
(dp170
g60
F7.596961405850295
sg61
F0.006781958030982951
sg62
F7.207207207207207
sba(ipowercad.thermal.fast_thermal
ContourRect
p171
(dp172
g60
F8.726201757312868
sg61
F0.0043983680166397995
sg62
F7.7077077077077085
sba(ipowercad.thermal.fast_thermal
ContourRect
p173
(dp174
g60
F9.855442108775442
sg61
F0.0032033147250979336
sg62
F8.208208208208209
sba(ipowercad.thermal.fast_thermal
ContourRect
p175
(dp176
g60
F10.984682460238016
sg61
F0.0021805843682154917
sg62
F9.50950950950951
sba(ipowercad.thermal.fast_thermal
ContourRect
p177
(dp178
g60
F12.11392281170059
sg61
F0.0010440508748991663
sg62
F11.611611611611613
sba(ipowercad.thermal.fast_thermal
ContourRect
p179
(dp180
g60
F13.243163163163164
sg61
F0.00038127798578774117
sg62
F15.765765765765767
sbasbsbaasS'sym_info'
p181
(dp182
sg16
Vp_cell_n_cell
p183
sS'netlist'
p184
NsS'module_data'
p185
ccopy_reg
_reconstructor
p186
(cpowercad.design.module_data
ModuleData
p187
c__builtin__
object
p188
Ntp189
Rp190
(dp191
S'substrate'
p192
(ipowercad.design.project_structures
SubstrateInstance
p193
(dp194
S'ledge_width'
p195
F2.0
sg50
(F70.0
F60.0
tp196
sS'substrate_tech'
p197
(ipowercad.design.library_structures
Substrate
p198
(dp199
S'isolation_properties'
p200
(ipowercad.design.library_structures
MaterialProperties
p201
(dp202
g46
F305000000000.0
sg47
Nsg16
S'Al_N'
p203
sg18
F3250.0
sg48
F5.2e-06
sg19
Nsg20
Nsg21
F8.8
sg22
F120.0
sg49
S'Al_N'
p204
sg23
F734.3
sbsS'metal_properties'
p205
(ipowercad.design.library_structures
MaterialProperties
p206
(dp207
g46
F120000000000.0
sg47
F0.38
sg16
S'copper'
p208
sg18
F8933.0
sg48
F1.77e-05
sg19
F1.72e-08
sg20
F0.999991
sg21
Nsg22
F400.0
sg49
S'copper'
p209
sg23
F385.0
sbsS'isolation_thickness'
p210
F0.64
sg16
NsS'metal_thickness'
p211
F0.2
sbsbsS'ambient_temp'
p212
F300.0
sS'sublayers_thermal'
p213
(ipowercad.thermal.fast_thermal
SublayerThermalFeatures
p214
(dp215
S't_amb'
p216
F300.0
sS'sub_res'
p217
cnumpy.core.multiarray
scalar
p218
(cnumpy
dtype
p219
(S'f8'
p220
I0
I1
tp221
Rp222
(I3
S'<'
p223
NNNI-1
I-1
I0
tp224
bS'U#\xe7["\xef\xfd?'
p225
tp226
Rp227
sg211
F0.2
sS'metal_cond'
p228
F400.0
sbsS'substrate_attach'
p229
(ipowercad.design.project_structures
SubstrateAttachInstance
p230
(dp231
g10
(ipowercad.design.library_structures
SubstrateAttach
p232
(dp233
g13
(ipowercad.design.library_structures
MaterialProperties
p234
(dp235
g46
F69000000000.0
sg47
F0.4
sg16
S'solder'
p236
sg18
F8000.0
sg48
F1.59e-06
sg19
F1.43e-07
sg20
Nsg21
Nsg22
F48.0
sg49
S'solder'
p237
sg23
F167.0
sbsbsS'thickness'
p238
F0.08
sbsS'frequency'
p239
F50.0
sS'baseplate'
p240
(ipowercad.design.project_structures
BaseplateInstance
p241
(dp242
S'baseplate_tech'
p243
(ipowercad.design.library_structures
Baseplate
p244
(dp245
g13
g206
sbsS'eff_conv_coeff'
p246
F150.0
sg50
(F60.0
F60.0
F6.0
tp247
sbsS'design_rules'
p248
(ipowercad.design.project_structures
ProcessDesignRules
p249
(dp250
S'min_trace_trace_width'
p251
F1.2
sS'signal_wire_component_dist'
p252
F0.2
sS'min_die_trace_dist'
p253
F0.1
sS'power_wire_trace_dist'
p254
F1.0
sS'power_wire_component_dist'
p255
F0.2
sS'min_die_die_dist'
p256
F0.2
sS'min_trace_width'
p257
F1.2
sS'signal_wire_trace_dist'
p258
F0.2
sbsbsS'layout_engine'
p259
S'SL'
p260
sS'tech_lib_dir'
p261
S'C:\\Users\\ialrazi\\PowerSynth\\CornerStitch_Dev\\PowerCAD-full\\tech_lib'
p262
sS'module_stack_edit'
p263
(lp264
Vcopper-Al_N-copper
p265
aV40.0
p266
aV50.0
p267
aV2.0
p268
aVsolder
p269
aV0.08
p270
aVcopper
p271
aV60.0
p272
aV60.0
p273
aV6.0
p274
aV150
p275
aV50
p276
aV300
p277
asS'layer_stack_file'
p278
VD:\u005cUI_UPDATE\u005cSample_Projects\u005cp_cell_n_cell\u005clayer_stack.csv
p279
sS'num_gen'
p280
I100
sS'solutions'
p281
(lp282
sS'directory'
p283
VD:\u005cUI_UPDATE\u005cSample_Projects\u005cp_cell_n_cell
p284
sS'symb_layout'
p285
g186
(cpowercad.sym_layout.symbolic_layout
SymbolicLayout
p286
g188
Ntp287
Rp288
(dp289
S'SymLine'
p290
cpowercad.sym_layout.symbolic_layout
SymLine
p291
sS'module'
p292
g190
sS'all_super_traces'
p293
(lp294
sS'symmetries'
p295
(lp296
sS'v_overflow'
p297
F2.3490879764941752
sS'tmp_conn_dict'
p298
(dp299
c__builtin__
frozenset
p300
((lp301
g186
(g291
g188
Ntp302
Rp303
(dp304
S'num_wires'
p305
NsS'trace_connections'
p306
(lp307
g186
(g291
g188
Ntp308
Rp309
(dp310
g305
Nsg306
(lp311
g303
asS'dev_pt'
p312
NsS'land_pt2'
p313
NsS'wire'
p314
I00
sS'raw_element'
p315
g186
(cpowercad.sym_layout.svg
LayoutLine
p316
g188
Ntp317
Rp318
(dp319
S'path_id'
p320
S'T4'
p321
sS'vertical'
p322
I00
sS'pt2'
p323
(F5.0
F7.0
tp324
sS'pt1'
p325
(F0.0
F7.0
tp326
sbsS'conn_bonds'
p327
(lp328
g186
(g291
g188
Ntp329
Rp330
(dp331
g305
I2
sg306
(lp332
sg312
I1
sg313
Nsg314
I01
sg315
Nsg327
(lp333
sS'start_pt_conn'
p334
NsS'end_pts'
p335
NsS'has_rect'
p336
I01
sS'trace2'
p337
NsS'wire_sep'
p338
F0.1
sS'child_pts'
p339
NsS'trace'
p340
g309
sS'trace_rect'
p341
NsS'dv_index'
p342
NsS'intersecting_trace'
p343
NsS'device'
p344
g186
(cpowercad.sym_layout.symbolic_layout
SymPoint
p345
g188
Ntp346
Rp347
(dp348
S'center_position'
p349
NsS'sym_bondwires'
p350
(lp351
g330
ag186
(g291
g188
Ntp352
Rp353
(dp354
g305
I2
sg306
(lp355
sg312
I2
sg313
Nsg314
I01
sg315
Nsg327
(lp356
sg334
Nsg335
Nsg336
I01
sg337
Nsg338
F0.1
sg339
Nsg340
g186
(g291
g188
Ntp357
Rp358
(dp359
g305
Nsg306
(lp360
sg312
Nsg313
Nsg314
I00
sg315
g186
(g316
g188
Ntp361
Rp362
(dp363
g320
S'T2'
p364
sg322
I00
sg323
(F5.0
F9.0
tp365
sg325
(F0.0
F9.0
tp366
sbsg327
(lp367
g353
ag186
(g291
g188
Ntp368
Rp369
(dp370
g305
I2
sg306
(lp371
sg312
I2
sg313
Nsg314
I01
sg315
Nsg327
(lp372
sg334
Nsg335
Nsg336
I01
sg337
Nsg338
F0.1
sg339
Nsg340
g358
sg341
Nsg342
Nsg343
Nsg344
g186
(g345
g188
Ntp373
Rp374
(dp375
g349
Nsg350
(lp376
g186
(g291
g188
Ntp377
Rp378
(dp379
g305
I2
sg306
(lp380
sg312
I1
sg313
Nsg314
I01
sg315
Nsg327
(lp381
sg334
Nsg335
Nsg336
I01
sg337
Nsg338
F0.1
sg339
Nsg340
g309
sg341
Nsg342
Nsg343
Nsg344
g374
sS'land_pt'
p382
NsS'long_contacts'
p383
(dp384
sS'super_connections'
p385
(lp386
sS'constraint'
p387
NsS'end_pt_conn'
p388
NsS'start_pts'
p389
NsS'element'
p390
NsS'tech'
p391
(ipowercad.design.library_structures
BondWire
p392
(dp393
S'a'
p394
F0.4
sS'wire_type'
p395
I1
sg16
S'Aluminium Power Bondwire 0.3x0.2mm'
p396
sg112
I2
sS'b'
p397
F0.25
sg13
(ipowercad.design.library_structures
MaterialProperties
p398
(dp399
g16
S'Aluminium'
p400
sg18
Nsg19
F3e-08
sg20
Nsg21
Nsg22
Nsg23
Nsbsg50
(F0.3
F0.2
tp401
sbsS'normal_connections'
p402
(lp403
sS'trace_line'
p404
Nsbag369
asg315
g186
(cpowercad.sym_layout.svg
LayoutPoint
p405
g188
Ntp406
Rp407
(dp408
g320
S'M2'
p409
sg16
NsS'pt'
p410
(F3.0
F8.0
tp411
sbsg16
g409
sg387
Nsg342
I1
sS'parent_line'
p412
g186
(g291
g188
Ntp413
Rp414
(dp415
g305
Nsg306
(lp416
g186
(g291
g188
Ntp417
Rp418
(dp419
g305
Nsg306
(lp420
g186
(g291
g188
Ntp421
Rp422
(dp423
g305
Nsg306
(lp424
g418
asg312
Nsg313
Nsg314
I00
sg315
g186
(g316
g188
Ntp425
Rp426
(dp427
g320
S'T9'
p428
sg322
I00
sg323
(F11.0
F8.0
tp429
sg325
(F7.0
F8.0
tp430
sbsg327
(lp431
sg334
Nsg335
Nsg336
I01
sg337
Nsg338
Nsg339
(lp432
g186
(g345
g188
Ntp433
Rp434
(dp435
g349
Nsg350
(lp436
g186
(g291
g188
Ntp437
Rp438
(dp439
g305
I2
sg306
(lp440
sg312
I1
sg313
Nsg314
I01
sg315
Nsg327
(lp441
sg334
Nsg335
Nsg336
I01
sg337
Nsg338
F0.1
sg339
Nsg340
g186
(g291
g188
Ntp442
Rp443
(dp444
g305
Nsg306
(lp445
g186
(g291
g188
Ntp446
Rp447
(dp448
g305
Nsg306
(lp449
g186
(g291
g188
Ntp450
Rp451
(dp452
g305
Nsg306
(lp453
g303
ag447
asg312
Nsg313
Nsg314
I00
sg315
g186
(g316
g188
Ntp454
Rp455
(dp456
g320
S'T6'
p457
sg322
I00
sg323
(F7.0
F0.0
tp458
sg325
(F5.0
F0.0
tp459
sbsg327
(lp460
sg334
Nsg335
Nsg336
I01
sg337
Nsg338
Nsg339
(lp461
g186
(g345
g188
Ntp462
Rp463
(dp464
g349
Nsg350
(lp465
sg315
g186
(g405
g188
Ntp466
Rp467
(dp468
g320
S'L5'
p469
sg16
Nsg410
(F6.0
F0.0
tp470
sbsg16
g469
sg387
Nsg342
Nsg412
g451
sg390
g186
(g405
g188
Ntp471
Rp472
(dp473
g320
g469
sg16
Nsg410
(I6
I0
tp474
sbsS'states'
p475
(lp476
sg391
g109
sS'footprint_rect'
p477
NsS'lumped_node'
p478
NsS'orientation'
p479
Nsbasg340
Nsg341
(ipowercad.general.data_struct.util
Rect
p480
(dp481
S'right'
p482
F0.0
sS'bottom'
p483
F0.0
sS'top'
p484
F0.0
sg62
F0.0
sg60
F0.0
sS'left'
p485
F0.0
sbsg342
I0
sg343
Nsg344
Nsg382
Nsg383
(dp486
sg385
(lp487
sg16
g457
sg387
Nsg388
Nsg389
Nsg390
g186
(g316
g188
Ntp488
Rp489
(dp490
g320
g457
sg322
I00
sg323
(I7
I0
tp491
sg325
(I5
I0
tp492
sbsg391
Nsg402
(lp493
sg404
g186
(g316
g188
Ntp494
Rp495
(dp496
g320
g457
sg325
(I1
I0
tp497
sg323
(I3
I0
tp498
sg322
I00
sbsbag443
asg312
Nsg313
Nsg314
I00
sg315
g186
(g316
g188
Ntp499
Rp500
(dp501
g320
S'T7'
p502
sg322
I01
sg323
(F7.0
F7.0
tp503
sg325
(F7.0
F0.0
tp504
sbsg327
(lp505
sg334
Nsg335
Nsg336
I01
sg337
Nsg338
Nsg339
(lp506
g186
(g345
g188
Ntp507
Rp508
(dp509
g349
Nsg350
(lp510
g186
(g291
g188
Ntp511
Rp512
(dp513
g305
I2
sg306
(lp514
sg312
I1
sg313
Nsg314
I01
sg315
Nsg327
(lp515
sg334
Nsg335
Nsg336
I01
sg337
Nsg338
F0.1
sg339
Nsg340
g186
(g291
g188
Ntp516
Rp517
(dp518
g305
Nsg306
(lp519
sg312
Nsg313
Nsg314
I00
sg315
g186
(g316
g188
Ntp520
Rp521
(dp522
g320
S'T11'
p523
sg322
I01
sg323
(F6.0
F7.0
tp524
sg325
(F6.0
F1.0
tp525
sbsg327
(lp526
g512
ag186
(g291
g188
Ntp527
Rp528
(dp529
g305
I2
sg306
(lp530
sg312
I1
sg313
Nsg314
I01
sg315
Nsg327
(lp531
sg334
Nsg335
Nsg336
I01
sg337
Nsg338
F0.1
sg339
Nsg340
g517
sg341
Nsg342
Nsg343
Nsg344
g186
(g345
g188
Ntp532
Rp533
(dp534
g349
Nsg350
(lp535
g528
ag186
(g291
g188
Ntp536
Rp537
(dp538
g305
I2
sg306
(lp539
sg312
I2
sg313
Nsg314
I01
sg315
Nsg327
(lp540
sg334
Nsg335
Nsg336
I01
sg337
Nsg338
F0.1
sg339
Nsg340
g517
sg341
Nsg342
Nsg343
Nsg344
g533
sg382
Nsg383
(dp541
sg385
(lp542
sg387
Nsg388
Nsg389
Nsg390
Nsg391
(ipowercad.design.library_structures
BondWire
p543
(dp544
g394
F0.2
sg395
I2
sg16
S'Aluminium Signal Bondwire 0.1mm'
p545
sg112
I1
sg397
F0.125
sg13
(ipowercad.design.library_structures
MaterialProperties
p546
(dp547
g16
S'Aluminium'
p548
sg18
Nsg19
F3e-08
sg20
Nsg21
Nsg22
Nsg23
Nsbsg50
F0.1
sbsg402
(lp549
sg404
Nsbasg315
g186
(g405
g188
Ntp550
Rp551
(dp552
g320
S'M5'
p553
sg16
Nsg410
(F7.0
F4.0
tp554
sbsg16
g553
sg387
Nsg342
I7
sg412
g447
sg390
g186
(g405
g188
Ntp555
Rp556
(dp557
g320
g553
sg16
Nsg410
(I7
I4
tp558
sbsg475
(lp559
sg391
g6
sg477
Nsg478
Nsg479
Nsbsg382
Nsg383
(dp560
sg385
(lp561
sg387
Nsg388
Nsg389
Nsg390
Nsg391
(ipowercad.design.library_structures
BondWire
p562
(dp563
g394
F0.4
sg395
I1
sg16
S'Aluminium Power Bondwire 0.3x0.2mm'
p564
sg112
I2
sg397
F0.25
sg13
(ipowercad.design.library_structures
MaterialProperties
p565
(dp566
g16
S'Aluminium'
p567
sg18
Nsg19
F3e-08
sg20
Nsg21
Nsg22
Nsg23
Nsbsg50
(F0.3
F0.2
tp568
sbsg402
(lp569
sg404
Nsbag186
(g291
g188
Ntp570
Rp571
(dp572
g305
I2
sg306
(lp573
sg312
I1
sg313
Nsg314
I01
sg315
Nsg327
(lp574
sg334
Nsg335
Nsg336
I01
sg337
Nsg338
F0.1
sg339
Nsg340
g517
sg341
Nsg342
Nsg343
Nsg344
g186
(g345
g188
Ntp575
Rp576
(dp577
g349
Nsg350
(lp578
g571
ag186
(g291
g188
Ntp579
Rp580
(dp581
g305
I2
sg306
(lp582
sg312
I2
sg313
Nsg314
I01
sg315
Nsg327
(lp583
sg334
Nsg335
Nsg336
I01
sg337
Nsg338
F0.1
sg339
Nsg340
g517
sg341
Nsg342
Nsg343
Nsg344
g576
sg382
Nsg383
(dp584
sg385
(lp585
sg387
Nsg388
Nsg389
Nsg390
Nsg391
(ipowercad.design.library_structures
BondWire
p586
(dp587
g394
F0.2
sg395
I2
sg16
S'Aluminium Signal Bondwire 0.1mm'
p588
sg112
I1
sg397
F0.125
sg13
(ipowercad.design.library_structures
MaterialProperties
p589
(dp590
g16
S'Aluminium'
p591
sg18
Nsg19
F3e-08
sg20
Nsg21
Nsg22
Nsg23
Nsbsg50
F0.1
sbsg402
(lp592
sg404
Nsbasg315
g186
(g405
g188
Ntp593
Rp594
(dp595
g320
S'M6'
p596
sg16
Nsg410
(F7.0
F3.0
tp597
sbsg16
g596
sg387
Nsg342
I8
sg412
g447
sg390
g186
(g405
g188
Ntp598
Rp599
(dp600
g320
g596
sg16
Nsg410
(I7
I3
tp601
sbsg475
(lp602
sg391
g6
sg477
Nsg478
Nsg479
Nsbsg382
Nsg383
(dp603
sg385
(lp604
sg387
Nsg388
Nsg389
Nsg390
Nsg391
(ipowercad.design.library_structures
BondWire
p605
(dp606
g394
F0.4
sg395
I1
sg16
S'Aluminium Power Bondwire 0.3x0.2mm'
p607
sg112
I2
sg397
F0.25
sg13
(ipowercad.design.library_structures
MaterialProperties
p608
(dp609
g16
S'Aluminium'
p610
sg18
Nsg19
F3e-08
sg20
Nsg21
Nsg22
Nsg23
Nsbsg50
(F0.3
F0.2
tp611
sbsg402
(lp612
sg404
Nsbag186
(g291
g188
Ntp613
Rp614
(dp615
g305
I2
sg306
(lp616
sg312
I2
sg313
Nsg314
I01
sg315
Nsg327
(lp617
sg334
Nsg335
Nsg336
I01
sg337
Nsg338
F0.1
sg339
Nsg340
g517
sg341
Nsg342
Nsg343
Nsg344
g508
sg382
Nsg383
(dp618
sg385
(lp619
sg387
Nsg388
Nsg389
Nsg390
Nsg391
(ipowercad.design.library_structures
BondWire
p620
(dp621
g394
F0.2
sg395
I2
sg16
S'Aluminium Signal Bondwire 0.1mm'
p622
sg112
I1
sg397
F0.125
sg13
(ipowercad.design.library_structures
MaterialProperties
p623
(dp624
g16
S'Aluminium'
p625
sg18
Nsg19
F3e-08
sg20
Nsg21
Nsg22
Nsg23
Nsbsg50
F0.1
sbsg402
(lp626
sg404
Nsbag537
ag580
ag186
(g291
g188
Ntp627
Rp628
(dp629
g305
I2
sg306
(lp630
sg312
I1
sg313
Nsg314
I01
sg315
Nsg327
(lp631
sg334
Nsg335
Nsg336
I01
sg337
Nsg338
F0.1
sg339
Nsg340
g517
sg341
Nsg342
Nsg343
Nsg344
g186
(g345
g188
Ntp632
Rp633
(dp634
g349
Nsg350
(lp635
g628
asg315
g186
(g405
g188
Ntp636
Rp637
(dp638
g320
S'D4'
p639
sg16
Nsg410
(F5.0
F3.0
tp640
sbsg16
g639
sg387
Nsg342
I3
sg412
g303
sg390
g186
(g405
g188
Ntp641
Rp642
(dp643
g320
g639
sg16
Nsg410
(I5
I3
tp644
sbsg475
(lp645
sg391
g120
sg477
Nsg478
Nsg479
Nsbsg382
Nsg383
(dp646
sg385
(lp647
sg387
Nsg388
Nsg389
Nsg390
Nsg391
(ipowercad.design.library_structures
BondWire
p648
(dp649
g394
F0.4
sg395
I1
sg16
S'Aluminium Power Bondwire 0.3x0.2mm'
p650
sg112
I2
sg397
F0.25
sg13
(ipowercad.design.library_structures
MaterialProperties
p651
(dp652
g16
S'Aluminium'
p653
sg18
Nsg19
F3e-08
sg20
Nsg21
Nsg22
Nsg23
Nsbsg50
(F0.3
F0.2
tp654
sbsg402
(lp655
sg404
Nsbag186
(g291
g188
Ntp656
Rp657
(dp658
g305
I2
sg306
(lp659
sg312
I1
sg313
Nsg314
I01
sg315
Nsg327
(lp660
sg334
Nsg335
Nsg336
I01
sg337
Nsg338
F0.1
sg339
Nsg340
g517
sg341
Nsg342
Nsg343
Nsg344
g186
(g345
g188
Ntp661
Rp662
(dp663
g349
Nsg350
(lp664
g657
asg315
g186
(g405
g188
Ntp665
Rp666
(dp667
g320
S'D5'
p668
sg16
Nsg410
(F5.0
F4.0
tp669
sbsg16
g668
sg387
Nsg342
I4
sg412
g303
sg390
g186
(g405
g188
Ntp670
Rp671
(dp672
g320
g668
sg16
Nsg410
(I5
I4
tp673
sbsg475
(lp674
sg391
g120
sg477
Nsg478
Nsg479
Nsbsg382
Nsg383
(dp675
sg385
(lp676
sg387
Nsg388
Nsg389
Nsg390
Nsg391
(ipowercad.design.library_structures
BondWire
p677
(dp678
g394
F0.4
sg395
I1
sg16
S'Aluminium Power Bondwire 0.3x0.2mm'
p679
sg112
I2
sg397
F0.25
sg13
(ipowercad.design.library_structures
MaterialProperties
p680
(dp681
g16
S'Aluminium'
p682
sg18
Nsg19
F3e-08
sg20
Nsg21
Nsg22
Nsg23
Nsbsg50
(F0.3
F0.2
tp683
sbsg402
(lp684
sg404
Nsbag186
(g291
g188
Ntp685
Rp686
(dp687
g305
I2
sg306
(lp688
sg312
I1
sg313
Nsg314
I01
sg315
Nsg327
(lp689
sg334
Nsg335
Nsg336
I01
sg337
Nsg338
F0.1
sg339
Nsg340
g517
sg341
Nsg342
Nsg343
Nsg344
g186
(g345
g188
Ntp690
Rp691
(dp692
g349
Nsg350
(lp693
g686
asg315
g186
(g405
g188
Ntp694
Rp695
(dp696
g320
S'D6'
p697
sg16
Nsg410
(F5.0
F5.0
tp698
sbsg16
g697
sg387
Nsg342
I5
sg412
g303
sg390
g186
(g405
g188
Ntp699
Rp700
(dp701
g320
g697
sg16
Nsg410
(I5
I5
tp702
sbsg475
(lp703
sg391
g120
sg477
Nsg478
Nsg479
Nsbsg382
Nsg383
(dp704
sg385
(lp705
sg387
Nsg388
Nsg389
Nsg390
Nsg391
(ipowercad.design.library_structures
BondWire
p706
(dp707
g394
F0.4
sg395
I1
sg16
S'Aluminium Power Bondwire 0.3x0.2mm'
p708
sg112
I2
sg397
F0.25
sg13
(ipowercad.design.library_structures
MaterialProperties
p709
(dp710
g16
S'Aluminium'
p711
sg18
Nsg19
F3e-08
sg20
Nsg21
Nsg22
Nsg23
Nsbsg50
(F0.3
F0.2
tp712
sbsg402
(lp713
sg404
Nsbasg334
Nsg335
Nsg336
I01
sg337
Nsg338
Nsg339
(lp714
g186
(g345
g188
Ntp715
Rp716
(dp717
g349
Nsg350
(lp718
sg315
g186
(g405
g188
Ntp719
Rp720
(dp721
g320
S'L4'
p722
sg16
Nsg410
(F6.0
F2.0
tp723
sbsg16
g722
sg387
Nsg342
Nsg412
g517
sg390
g186
(g405
g188
Ntp724
Rp725
(dp726
g320
g722
sg16
Nsg410
(I6
I2
tp727
sbsg475
(lp728
sg391
g109
sg477
Nsg478
Nsg479
Nsbasg340
Nsg341
(ipowercad.general.data_struct.util
Rect
p729
(dp730
g482
F0.0
sg483
F0.0
sg484
F0.0
sg62
F0.0
sg60
F0.0
sg485
F0.0
sbsg342
I2
sg343
Nsg344
Nsg382
Nsg383
(dp731
sg385
(lp732
sg16
g523
sg387
Nsg388
Nsg389
Nsg390
g186
(g316
g188
Ntp733
Rp734
(dp735
g320
g523
sg322
I01
sg323
(I6
I7
tp736
sg325
(I6
I1
tp737
sbsg391
Nsg402
(lp738
sg404
g186
(g316
g188
Ntp739
Rp740
(dp741
g320
g523
sg325
(I2
I1
tp742
sg323
(I2
I3
tp743
sg322
I01
sbsbsg341
Nsg342
Nsg343
Nsg344
g508
sg382
Nsg383
(dp744
sg385
(lp745
sg387
Nsg388
Nsg389
Nsg390
Nsg391
(ipowercad.design.library_structures
BondWire
p746
(dp747
g394
F0.4
sg395
I1
sg16
S'Aluminium Power Bondwire 0.3x0.2mm'
p748
sg112
I2
sg397
F0.25
sg13
(ipowercad.design.library_structures
MaterialProperties
p749
(dp750
g16
S'Aluminium'
p751
sg18
Nsg19
F3e-08
sg20
Nsg21
Nsg22
Nsg23
Nsbsg50
(F0.3
F0.2
tp752
sbsg402
(lp753
sg404
Nsbag614
asg315
g186
(g405
g188
Ntp754
Rp755
(dp756
g320
S'M4'
p757
sg16
Nsg410
(F7.0
F5.0
tp758
sbsg16
g757
sg387
Nsg342
I6
sg412
g447
sg390
g186
(g405
g188
Ntp759
Rp760
(dp761
g320
g757
sg16
Nsg410
(I7
I5
tp762
sbsg475
(lp763
sg391
g6
sg477
Nsg478
Nsg479
Nsbag533
ag576
asg340
Nsg341
(ipowercad.general.data_struct.util
Rect
p764
(dp765
g482
F0.0
sg483
F0.0
sg484
F0.0
sg62
F0.0
sg60
F0.0
sg485
F0.0
sbsg342
I3
sg343
Nsg344
Nsg382
Nsg383
(dp766
sg385
(lp767
sg16
g502
sg387
Nsg388
Nsg389
Nsg390
g186
(g316
g188
Ntp768
Rp769
(dp770
g320
g502
sg322
I01
sg323
(I7
I7
tp771
sg325
(I7
I0
tp772
sbsg391
Nsg402
(lp773
sg404
g186
(g316
g188
Ntp774
Rp775
(dp776
g320
g502
sg325
(I3
I0
tp777
sg323
(I3
I3
tp778
sg322
I01
sbsbasg312
Nsg313
Nsg314
I00
sg315
g186
(g316
g188
Ntp779
Rp780
(dp781
g320
S'T8'
p782
sg322
I00
sg323
(F11.0
F7.0
tp783
sg325
(F7.0
F7.0
tp784
sbsg327
(lp785
g438
ag186
(g291
g188
Ntp786
Rp787
(dp788
g305
I2
sg306
(lp789
sg312
I1
sg313
Nsg314
I01
sg315
Nsg327
(lp790
sg334
Nsg335
Nsg336
I01
sg337
Nsg338
F0.1
sg339
Nsg340
g443
sg341
Nsg342
Nsg343
Nsg344
g186
(g345
g188
Ntp791
Rp792
(dp793
g349
Nsg350
(lp794
g787
asg315
g186
(g405
g188
Ntp795
Rp796
(dp797
g320
S'D2'
p798
sg16
Nsg410
(F9.0
F8.0
tp799
sbsg16
g798
sg387
Nsg342
I10
sg412
g422
sg390
g186
(g405
g188
Ntp800
Rp801
(dp802
g320
g798
sg16
Nsg410
(I9
I8
tp803
sbsg475
(lp804
sg391
g120
sg477
Nsg478
Nsg479
Nsbsg382
Nsg383
(dp805
sg385
(lp806
sg387
Nsg388
Nsg389
Nsg390
Nsg391
(ipowercad.design.library_structures
BondWire
p807
(dp808
g394
F0.4
sg395
I1
sg16
S'Aluminium Power Bondwire 0.3x0.2mm'
p809
sg112
I2
sg397
F0.25
sg13
(ipowercad.design.library_structures
MaterialProperties
p810
(dp811
g16
S'Aluminium'
p812
sg18
Nsg19
F3e-08
sg20
Nsg21
Nsg22
Nsg23
Nsbsg50
(F0.3
F0.2
tp813
sbsg402
(lp814
sg404
Nsbag186
(g291
g188
Ntp815
Rp816
(dp817
g305
I2
sg306
(lp818
sg312
I1
sg313
Nsg314
I01
sg315
Nsg327
(lp819
sg334
Nsg335
Nsg336
I01
sg337
Nsg338
F0.1
sg339
Nsg340
g443
sg341
Nsg342
Nsg343
Nsg344
g186
(g345
g188
Ntp820
Rp821
(dp822
g349
Nsg350
(lp823
g816
asg315
g186
(g405
g188
Ntp824
Rp825
(dp826
g320
S'D3'
p827
sg16
Nsg410
(F10.0
F8.0
tp828
sbsg16
g827
sg387
Nsg342
I11
sg412
g422
sg390
g186
(g405
g188
Ntp829
Rp830
(dp831
g320
g827
sg16
Nsg410
(I10
I8
tp832
sbsg475
(lp833
sg391
g120
sg477
Nsg478
Nsg479
Nsbsg382
Nsg383
(dp834
sg385
(lp835
sg387
Nsg388
Nsg389
Nsg390
Nsg391
(ipowercad.design.library_structures
BondWire
p836
(dp837
g394
F0.4
sg395
I1
sg16
S'Aluminium Power Bondwire 0.3x0.2mm'
p838
sg112
I2
sg397
F0.25
sg13
(ipowercad.design.library_structures
MaterialProperties
p839
(dp840
g16
S'Aluminium'
p841
sg18
Nsg19
F3e-08
sg20
Nsg21
Nsg22
Nsg23
Nsbsg50
(F0.3
F0.2
tp842
sbsg402
(lp843
sg404
Nsbasg334
Nsg335
Nsg336
I01
sg337
Nsg338
Nsg339
(lp844
sg340
Nsg341
(ipowercad.general.data_struct.util
Rect
p845
(dp846
g482
F0.0
sg483
F0.0
sg484
F0.0
sg62
F0.0
sg60
F0.0
sg485
F0.0
sbsg342
I3
sg343
Nsg344
Nsg382
Nsg383
(dp847
sg385
(lp848
sg16
g782
sg387
Nsg388
Nsg389
Nsg390
g186
(g316
g188
Ntp849
Rp850
(dp851
g320
g782
sg322
I00
sg323
(I11
I7
tp852
sg325
(I7
I7
tp853
sbsg391
Nsg402
(lp854
sg404
g186
(g316
g188
Ntp855
Rp856
(dp857
g320
g782
sg325
(I3
I3
tp858
sg323
(I6
I3
tp859
sg322
I00
sbsbsg341
Nsg342
Nsg343
Nsg344
g434
sg382
Nsg383
(dp860
sg385
(lp861
sg387
Nsg388
Nsg389
Nsg390
Nsg391
(ipowercad.design.library_structures
BondWire
p862
(dp863
g394
F0.4
sg395
I1
sg16
S'Aluminium Power Bondwire 0.3x0.2mm'
p864
sg112
I2
sg397
F0.25
sg13
(ipowercad.design.library_structures
MaterialProperties
p865
(dp866
g16
S'Aluminium'
p867
sg18
Nsg19
F3e-08
sg20
Nsg21
Nsg22
Nsg23
Nsbsg50
(F0.3
F0.2
tp868
sbsg402
(lp869
sg404
Nsbasg315
g186
(g405
g188
Ntp870
Rp871
(dp872
g320
S'D1'
p873
sg16
Nsg410
(F8.0
F8.0
tp874
sbsg16
g873
sg387
Nsg342
I9
sg412
g422
sg390
g186
(g405
g188
Ntp875
Rp876
(dp877
g320
g873
sg16
Nsg410
(I8
I8
tp878
sbsg475
(lp879
sg391
g120
sg477
Nsg478
Nsg479
Nsbag792
ag821
asg340
Nsg341
(ipowercad.general.data_struct.util
Rect
p880
(dp881
g482
F0.0
sg483
F0.0
sg484
F0.0
sg62
F0.0
sg60
F0.0
sg485
F0.0
sbsg342
I6
sg343
Nsg344
Nsg382
Nsg383
(dp882
sg385
(lp883
sg16
g428
sg387
Nsg388
Nsg389
Nsg390
g186
(g316
g188
Ntp884
Rp885
(dp886
g320
g428
sg322
I00
sg323
(I11
I8
tp887
sg325
(I7
I8
tp888
sbsg391
Nsg402
(lp889
sg404
g186
(g316
g188
Ntp890
Rp891
(dp892
g320
g428
sg325
(I3
I4
tp893
sg323
(I6
I4
tp894
sg322
I00
sbsbag414
asg312
Nsg313
Nsg314
I00
sg315
g186
(g316
g188
Ntp895
Rp896
(dp897
g320
S'T10'
p898
sg322
I00
sg323
(F7.0
F8.0
tp899
sg325
(F5.0
F8.0
tp900
sbsg327
(lp901
sg334
Nsg335
Nsg336
I01
sg337
Nsg338
Nsg339
(lp902
g186
(g345
g188
Ntp903
Rp904
(dp905
g349
Nsg350
(lp906
sg315
g186
(g405
g188
Ntp907
Rp908
(dp909
g320
S'L3'
p910
sg16
Nsg410
(F6.0
F8.0
tp911
sbsg16
g910
sg387
Nsg342
Nsg412
g418
sg390
g186
(g405
g188
Ntp912
Rp913
(dp914
g320
g910
sg16
Nsg410
(I6
I8
tp915
sbsg475
(lp916
sg391
g109
sg477
Nsg478
Nsg479
Nsbasg340
Nsg341
(ipowercad.general.data_struct.util
Rect
p917
(dp918
g482
F0.0
sg483
F0.0
sg484
F0.0
sg62
F0.0
sg60
F0.0
sg485
F0.0
sbsg342
I7
sg343
Nsg344
Nsg382
Nsg383
(dp919
sg385
(lp920
sg16
g898
sg387
Nsg388
Nsg389
Nsg390
g186
(g316
g188
Ntp921
Rp922
(dp923
g320
g898
sg322
I00
sg323
(I7
I8
tp924
sg325
(I5
I8
tp925
sbsg391
Nsg402
(lp926
sg404
g186
(g316
g188
Ntp927
Rp928
(dp929
g320
g898
sg325
(I1
I4
tp930
sg323
(I3
I4
tp931
sg322
I00
sbsbasg312
Nsg313
Nsg314
I00
sg315
g186
(g316
g188
Ntp932
Rp933
(dp934
g320
S'T3'
p935
sg322
I00
sg323
(F5.0
F8.0
tp936
sg325
(F0.0
F8.0
tp937
sbsg327
(lp938
sg334
Nsg335
Nsg336
I01
sg337
Nsg338
Nsg339
(lp939
g347
ag374
ag186
(g345
g188
Ntp940
Rp941
(dp942
g349
Nsg350
(lp943
g186
(g291
g188
Ntp944
Rp945
(dp946
g305
I2
sg306
(lp947
sg312
I1
sg313
Nsg314
I01
sg315
Nsg327
(lp948
sg334
Nsg335
Nsg336
I01
sg337
Nsg338
F0.1
sg339
Nsg340
g309
sg341
Nsg342
Nsg343
Nsg344
g941
sg382
Nsg383
(dp949
sg385
(lp950
sg387
Nsg388
Nsg389
Nsg390
Nsg391
(ipowercad.design.library_structures
BondWire
p951
(dp952
g394
F0.4
sg395
I1
sg16
S'Aluminium Power Bondwire 0.3x0.2mm'
p953
sg112
I2
sg397
F0.25
sg13
(ipowercad.design.library_structures
MaterialProperties
p954
(dp955
g16
S'Aluminium'
p956
sg18
Nsg19
F3e-08
sg20
Nsg21
Nsg22
Nsg23
Nsbsg50
(F0.3
F0.2
tp957
sbsg402
(lp958
sg404
Nsbag186
(g291
g188
Ntp959
Rp960
(dp961
g305
I2
sg306
(lp962
sg312
I2
sg313
Nsg314
I01
sg315
Nsg327
(lp963
sg334
Nsg335
Nsg336
I01
sg337
Nsg338
F0.1
sg339
Nsg340
g358
sg341
Nsg342
Nsg343
Nsg344
g941
sg382
Nsg383
(dp964
sg385
(lp965
sg387
Nsg388
Nsg389
Nsg390
Nsg391
(ipowercad.design.library_structures
BondWire
p966
(dp967
g394
F0.2
sg395
I2
sg16
S'Aluminium Signal Bondwire 0.1mm'
p968
sg112
I1
sg397
F0.125
sg13
(ipowercad.design.library_structures
MaterialProperties
p969
(dp970
g16
S'Aluminium'
p971
sg18
Nsg19
F3e-08
sg20
Nsg21
Nsg22
Nsg23
Nsbsg50
F0.1
sbsg402
(lp972
sg404
Nsbasg315
g186
(g405
g188
Ntp973
Rp974
(dp975
g320
S'M3'
p976
sg16
Nsg410
(F4.0
F8.0
tp977
sbsg16
g976
sg387
Nsg342
I2
sg412
g414
sg390
g186
(g405
g188
Ntp978
Rp979
(dp980
g320
g976
sg16
Nsg410
(I4
I8
tp981
sbsg475
(lp982
sg391
g6
sg477
Nsg478
Nsg479
Nsbasg340
Nsg341
(ipowercad.general.data_struct.util
Rect
p983
(dp984
g482
F0.0
sg483
F0.0
sg484
F0.0
sg62
F0.0
sg60
F0.0
sg485
F0.0
sbsg342
I5
sg343
Nsg344
Nsg382
Nsg383
(dp985
sg385
(lp986
sg16
g935
sg387
Nsg388
Nsg389
Nsg390
g186
(g316
g188
Ntp987
Rp988
(dp989
g320
g935
sg322
I00
sg323
(I5
I8
tp990
sg325
(I0
I8
tp991
sbsg391
Nsg402
(lp992
sg404
g186
(g316
g188
Ntp993
Rp994
(dp995
g320
g935
sg325
(I0
I4
tp996
sg323
(I1
I4
tp997
sg322
I00
sbsbsg390
g186
(g405
g188
Ntp998
Rp999
(dp1000
g320
g409
sg16
Nsg410
(I3
I8
tp1001
sbsg475
(lp1002
sg391
g6
sg477
Nsg478
Nsg479
Nsbsg382
Nsg383
(dp1003
sg385
(lp1004
sg387
Nsg388
Nsg389
Nsg390
Nsg391
(ipowercad.design.library_structures
BondWire
p1005
(dp1006
g394
F0.2
sg395
I2
sg16
S'Aluminium Signal Bondwire 0.1mm'
p1007
sg112
I1
sg397
F0.125
sg13
(ipowercad.design.library_structures
MaterialProperties
p1008
(dp1009
g16
S'Aluminium'
p1010
sg18
Nsg19
F3e-08
sg20
Nsg21
Nsg22
Nsg23
Nsbsg50
F0.1
sbsg402
(lp1011
sg404
Nsbag960
asg334
Nsg335
Nsg336
I01
sg337
Nsg338
Nsg339
(lp1012
g186
(g345
g188
Ntp1013
Rp1014
(dp1015
g349
Nsg350
(lp1016
sg315
g186
(g405
g188
Ntp1017
Rp1018
(dp1019
g320
S'L2'
p1020
sg16
Nsg410
(F1.0
F9.0
tp1021
sbsg16
g1020
sg387
Nsg342
Nsg412
g358
sg390
g186
(g405
g188
Ntp1022
Rp1023
(dp1024
g320
g1020
sg16
Nsg410
(I1
I9
tp1025
sbsg475
(lp1026
sg391
g109
sg477
Nsg478
Nsg479
Nsbasg340
Nsg341
(ipowercad.general.data_struct.util
Rect
p1027
(dp1028
g482
F0.0
sg483
F0.0
sg484
F0.0
sg62
F0.0
sg60
F0.0
sg485
F0.0
sbsg342
I8
sg343
Nsg344
Nsg382
Nsg383
(dp1029
sg385
(lp1030
sg16
g364
sg387
Nsg388
Nsg389
Nsg390
g186
(g316
g188
Ntp1031
Rp1032
(dp1033
g320
g364
sg322
I00
sg323
(I5
I9
tp1034
sg325
(I0
I9
tp1035
sbsg391
Nsg402
(lp1036
sg404
g186
(g316
g188
Ntp1037
Rp1038
(dp1039
g320
g364
sg325
(I0
I5
tp1040
sg323
(I1
I5
tp1041
sg322
I00
sbsbsg341
Nsg342
Nsg343
Nsg344
g347
sg382
Nsg383
(dp1042
sg385
(lp1043
sg387
Nsg388
Nsg389
Nsg390
Nsg391
(ipowercad.design.library_structures
BondWire
p1044
(dp1045
g394
F0.2
sg395
I2
sg16
S'Aluminium Signal Bondwire 0.1mm'
p1046
sg112
I1
sg397
F0.125
sg13
(ipowercad.design.library_structures
MaterialProperties
p1047
(dp1048
g16
S'Aluminium'
p1049
sg18
Nsg19
F3e-08
sg20
Nsg21
Nsg22
Nsg23
Nsbsg50
F0.1
sbsg402
(lp1050
sg404
Nsbasg315
g186
(g405
g188
Ntp1051
Rp1052
(dp1053
g320
S'M1'
p1054
sg16
Nsg410
(F2.0
F8.0
tp1055
sbsg16
g1054
sg387
Nsg342
I0
sg412
g414
sg390
g186
(g405
g188
Ntp1056
Rp1057
(dp1058
g320
g1054
sg16
Nsg410
(I2
I8
tp1059
sbsg475
(lp1060
sg391
g6
sg477
Nsg478
Nsg479
Nsbsg382
Nsg383
(dp1061
sg385
(lp1062
sg387
Nsg388
Nsg389
Nsg390
Nsg391
(ipowercad.design.library_structures
BondWire
p1063
(dp1064
g394
F0.4
sg395
I1
sg16
S'Aluminium Power Bondwire 0.3x0.2mm'
p1065
sg112
I2
sg397
F0.25
sg13
(ipowercad.design.library_structures
MaterialProperties
p1066
(dp1067
g16
S'Aluminium'
p1068
sg18
Nsg19
F3e-08
sg20
Nsg21
Nsg22
Nsg23
Nsbsg50
(F0.3
F0.2
tp1069
sbsg402
(lp1070
sg404
Nsbag378
ag945
asg334
Nsg335
Nsg336
I01
sg337
Nsg338
Nsg339
(lp1071
sg340
Nsg341
(ipowercad.general.data_struct.util
Rect
p1072
(dp1073
g482
F0.0
sg483
F0.0
sg484
F0.0
sg62
F0.0
sg60
F0.0
sg485
F0.0
sbsg342
I4
sg343
Nsg344
Nsg382
Nsg383
(dp1074
sg385
(lp1075
sg16
g321
sg387
Nsg388
Nsg389
Nsg390
g186
(g316
g188
Ntp1076
Rp1077
(dp1078
g320
g321
sg322
I00
sg323
(I5
I7
tp1079
sg325
(I0
I7
tp1080
sbsg391
Nsg402
(lp1081
sg404
g186
(g316
g188
Ntp1082
Rp1083
(dp1084
g320
g321
sg325
(I0
I3
tp1085
sg323
(I1
I3
tp1086
sg322
I00
sbsbag451
asg312
Nsg313
Nsg314
I00
sg315
g186
(g316
g188
Ntp1087
Rp1088
(dp1089
g320
S'T5'
p1090
sg322
I01
sg323
(F5.0
F7.0
tp1091
sg325
(F5.0
F0.0
tp1092
sbsg327
(lp1093
sg334
Nsg335
Nsg336
I01
sg337
Nsg338
Nsg339
(lp1094
g633
ag662
ag691
asg340
Nsg341
(ipowercad.general.data_struct.util
Rect
p1095
(dp1096
g482
F0.0
sg483
F0.0
sg484
F0.0
sg62
F0.0
sg60
F0.0
sg485
F0.0
sbsg342
I1
sg343
Nsg344
Nsg382
Nsg383
(dp1097
sg385
(lp1098
sg16
g1090
sg387
Nsg388
Nsg389
Nsg390
g186
(g316
g188
Ntp1099
Rp1100
(dp1101
g320
g1090
sg322
I01
sg323
(I5
I7
tp1102
sg325
(I5
I0
tp1103
sbsg391
Nsg402
(lp1104
sg404
g186
(g316
g188
Ntp1105
Rp1106
(dp1107
g320
g1090
sg325
(I1
I0
tp1108
sg323
(I1
I3
tp1109
sg322
I01
sbsbag451
atp1110
Rp1111
I1
sg300
((lp1112
g422
ag418
atp1113
Rp1114
I2
sg300
((lp1115
g414
ag418
atp1116
Rp1117
I2
sg300
((lp1118
g447
ag451
atp1119
Rp1120
I1
sg300
((lp1121
g447
ag443
atp1122
Rp1123
I1
sg300
((lp1124
g309
ag303
atp1125
Rp1126
I1
ssS'opt_dv_list'
p1127
(lp1128
g186
(cpowercad.opt.optimizer
DesignVar
p1129
g188
Ntp1130
Rp1131
(dp1132
S'init_values'
p1133
(F3.428571428571429
F6.857142857142858
tp1134
sS'constraints'
p1135
(F1.2
F36.0
tp1136
sbag186
(g1129
g188
Ntp1137
Rp1138
(dp1139
g1133
(F3.428571428571429
F6.857142857142858
tp1140
sg1135
(F1.2
F36.0
tp1141
sbag186
(g1129
g188
Ntp1142
Rp1143
(dp1144
g1133
(F3.428571428571429
F6.857142857142858
tp1145
sg1135
(F1.2
F36.0
tp1146
sbag186
(g1129
g188
Ntp1147
Rp1148
(dp1149
g1133
(F3.428571428571429
F6.857142857142858
tp1150
sg1135
(F1.2
F36.0
tp1151
sbag186
(g1129
g188
Ntp1152
Rp1153
(dp1154
g1133
(F3.428571428571429
F6.857142857142858
tp1155
sg1135
(F1.2
F36.0
tp1156
sbag186
(g1129
g188
Ntp1157
Rp1158
(dp1159
g1133
(F3.428571428571429
F6.857142857142858
tp1160
sg1135
(F0.0
F36.0
tp1161
sbag186
(g1129
g188
Ntp1162
Rp1163
(dp1164
g1133
(F4.380952380952381
F8.761904761904761
tp1165
sg1135
(F0.0
F46.0
tp1166
sbag186
(g1129
g188
Ntp1167
Rp1168
(dp1169
g1133
(F4.380952380952381
F8.761904761904761
tp1170
sg1135
(F0.0
F46.0
tp1171
sbag186
(g1129
g188
Ntp1172
Rp1173
(dp1174
g1133
(F4.380952380952381
F8.761904761904761
tp1175
sg1135
(F1.2
F46.0
tp1176
sbag186
(g1129
g188
Ntp1177
Rp1178
(dp1179
g1133
(F4.380952380952381
F8.761904761904761
tp1180
sg1135
(F1.2
F46.0
tp1181
sbag186
(g1129
g188
Ntp1182
Rp1183
(dp1184
g1133
(F4.380952380952381
F8.761904761904761
tp1185
sg1135
(F1.2
F46.0
tp1186
sbag186
(g1129
g188
Ntp1187
Rp1188
(dp1189
g1133
(F4.380952380952381
F8.761904761904761
tp1190
sg1135
(F1.2
F46.0
tp1191
sbag186
(g1129
g188
Ntp1192
Rp1193
(dp1194
g1133
(F4.380952380952381
F8.761904761904761
tp1195
sg1135
(F1.2
F46.0
tp1196
sbag186
(g1129
g188
Ntp1197
Rp1198
(dp1199
g1133
(F4.380952380952381
F8.761904761904761
tp1200
sg1135
(F1.2
F46.0
tp1201
sbag186
(g1129
g188
Ntp1202
Rp1203
(dp1204
g1133
(F4.380952380952381
F8.761904761904761
tp1205
sg1135
(F1.2
F46.0
tp1206
sbag186
(g1129
g188
Ntp1207
Rp1208
(dp1209
g1133
(F0.0
F1.0
tp1210
sg1135
(F0.0
F1.0
tp1211
sbag186
(g1129
g188
Ntp1212
Rp1213
(dp1214
g1133
g1210
sg1135
g1211
sbag186
(g1129
g188
Ntp1215
Rp1216
(dp1217
g1133
g1210
sg1135
g1211
sbag186
(g1129
g188
Ntp1218
Rp1219
(dp1220
g1133
g1210
sg1135
g1211
sbag186
(g1129
g188
Ntp1221
Rp1222
(dp1223
g1133
g1210
sg1135
g1211
sbag186
(g1129
g188
Ntp1224
Rp1225
(dp1226
g1133
g1210
sg1135
g1211
sbag186
(g1129
g188
Ntp1227
Rp1228
(dp1229
g1133
g1210
sg1135
g1211
sbag186
(g1129
g188
Ntp1230
Rp1231
(dp1232
g1133
g1210
sg1135
g1211
sbag186
(g1129
g188
Ntp1233
Rp1234
(dp1235
g1133
g1210
sg1135
g1211
sbag186
(g1129
g188
Ntp1236
Rp1237
(dp1238
g1133
g1210
sg1135
g1211
sbag186
(g1129
g188
Ntp1239
Rp1240
(dp1241
g1133
g1210
sg1135
g1211
sbag186
(g1129
g188
Ntp1242
Rp1243
(dp1244
g1133
g1210
sg1135
g1211
sbasS'trace_xlen'
p1245
I7
sS'all_sym'
p1246
(lp1247
g186
(g345
g188
Ntp1248
Rp1249
(dp1250
g349
Nsg350
(lp1251
sg315
g186
(g405
g188
Ntp1252
Rp1253
(dp1254
g320
S'L1'
p1255
sg16
Nsg410
(F1.0
F10.0
tp1256
sbsg16
g1255
sg387
Nsg342
Nsg412
g186
(g291
g188
Ntp1257
Rp1258
(dp1259
g305
Nsg306
(lp1260
sg312
Nsg313
Nsg314
I00
sg315
g186
(g316
g188
Ntp1261
Rp1262
(dp1263
g320
S'T1'
p1264
sg322
I00
sg323
(F5.0
F10.0
tp1265
sg325
(F0.0
F10.0
tp1266
sbsg327
(lp1267
sg334
Nsg335
Nsg336
I01
sg337
Nsg338
Nsg339
(lp1268
g1249
asg340
Nsg341
(ipowercad.general.data_struct.util
Rect
p1269
(dp1270
g482
F0.0
sg483
F0.0
sg484
F0.0
sg62
F0.0
sg60
F0.0
sg485
F0.0
sbsg342
I9
sg343
Nsg344
Nsg382
Nsg383
(dp1271
sg385
(lp1272
sg16
g1264
sg387
Nsg388
Nsg389
Nsg390
g186
(g316
g188
Ntp1273
Rp1274
(dp1275
g320
g1264
sg322
I00
sg323
(I5
I10
tp1276
sg325
(I0
I10
tp1277
sbsg391
Nsg402
(lp1278
sg404
g186
(g316
g188
Ntp1279
Rp1280
(dp1281
g320
g1264
sg325
(I0
I6
tp1282
sg323
(I1
I6
tp1283
sg322
I00
sbsbsg390
g186
(g405
g188
Ntp1284
Rp1285
(dp1286
g320
g1255
sg16
Nsg410
(I1
I10
tp1287
sbsg475
(lp1288
sg391
g109
sg477
Nsg478
Nsg479
Nsbag1014
ag904
ag716
ag463
ag186
(g345
g188
Ntp1289
Rp1290
(dp1291
g349
Nsg350
(lp1292
sg315
g186
(g405
g188
Ntp1293
Rp1294
(dp1295
g320
S'L6'
p1296
sg16
Nsg410
(F8.0
F2.0
tp1297
sbsg16
g1296
sg387
Nsg342
Nsg412
g186
(g291
g188
Ntp1298
Rp1299
(dp1300
g305
Nsg306
(lp1301
sg312
Nsg313
Nsg314
I00
sg315
g186
(g316
g188
Ntp1302
Rp1303
(dp1304
g320
S'T12'
p1305
sg322
I01
sg323
(F8.0
F6.0
tp1306
sg325
(F8.0
F1.0
tp1307
sbsg327
(lp1308
sg334
Nsg335
Nsg336
I01
sg337
Nsg338
Nsg339
(lp1309
g1290
asg340
Nsg341
(ipowercad.general.data_struct.util
Rect
p1310
(dp1311
g482
F0.0
sg483
F0.0
sg484
F0.0
sg62
F0.0
sg60
F0.0
sg485
F0.0
sbsg342
I4
sg343
Nsg344
Nsg382
Nsg383
(dp1312
sg385
(lp1313
sg16
g1305
sg387
Nsg388
Nsg389
Nsg390
g186
(g316
g188
Ntp1314
Rp1315
(dp1316
g320
g1305
sg322
I01
sg323
(I8
I6
tp1317
sg325
(I8
I1
tp1318
sbsg391
Nsg402
(lp1319
sg404
g186
(g316
g188
Ntp1320
Rp1321
(dp1322
g320
g1305
sg325
(I4
I1
tp1323
sg323
(I4
I2
tp1324
sg322
I01
sbsbsg390
g186
(g405
g188
Ntp1325
Rp1326
(dp1327
g320
g1296
sg16
Nsg410
(I8
I2
tp1328
sbsg475
(lp1329
sg391
g109
sg477
Nsg478
Nsg479
Nsbag186
(g345
g188
Ntp1330
Rp1331
(dp1332
g349
Nsg350
(lp1333
sg315
g186
(g405
g188
Ntp1334
Rp1335
(dp1336
g320
S'L7'
p1337
sg16
Nsg410
(F9.0
F2.0
tp1338
sbsg16
g1337
sg387
Nsg342
Nsg412
g186
(g291
g188
Ntp1339
Rp1340
(dp1341
g305
Nsg306
(lp1342
sg312
Nsg313
Nsg314
I00
sg315
g186
(g316
g188
Ntp1343
Rp1344
(dp1345
g320
S'T13'
p1346
sg322
I01
sg323
(F9.0
F6.0
tp1347
sg325
(F9.0
F1.0
tp1348
sbsg327
(lp1349
sg334
Nsg335
Nsg336
I01
sg337
Nsg338
Nsg339
(lp1350
g1331
asg340
Nsg341
(ipowercad.general.data_struct.util
Rect
p1351
(dp1352
g482
F0.0
sg483
F0.0
sg484
F0.0
sg62
F0.0
sg60
F0.0
sg485
F0.0
sbsg342
I5
sg343
Nsg344
Nsg382
Nsg383
(dp1353
sg385
(lp1354
sg16
g1346
sg387
Nsg388
Nsg389
Nsg390
g186
(g316
g188
Ntp1355
Rp1356
(dp1357
g320
g1346
sg322
I01
sg323
(I9
I6
tp1358
sg325
(I9
I1
tp1359
sbsg391
Nsg402
(lp1360
sg404
g186
(g316
g188
Ntp1361
Rp1362
(dp1363
g320
g1346
sg325
(I5
I1
tp1364
sg323
(I5
I2
tp1365
sg322
I01
sbsbsg390
g186
(g405
g188
Ntp1366
Rp1367
(dp1368
g320
g1337
sg16
Nsg410
(I9
I2
tp1369
sbsg475
(lp1370
sg391
g109
sg477
Nsg478
Nsg479
Nsbag347
ag374
ag941
ag508
ag533
ag576
ag434
ag792
ag821
ag633
ag662
ag691
ag1258
ag358
ag414
ag309
ag303
ag451
ag447
ag443
ag422
ag418
ag517
ag1299
ag1340
ag186
(g291
g188
Ntp1371
Rp1372
(dp1373
g305
I2
sg306
(lp1374
sg312
Nsg313
Nsg314
I01
sg315
Nsg327
(lp1375
sg334
Nsg335
Nsg336
I01
sg337
Nsg338
F0.1
sg339
Nsg340
Nsg341
Nsg342
Nsg343
Nsg344
Nsg382
Nsg383
(dp1376
sg385
(lp1377
sg387
Nsg388
Nsg389
Nsg390
Nsg391
g648
sg402
(lp1378
sg404
Nsbag186
(g291
g188
Ntp1379
Rp1380
(dp1381
g305
I2
sg306
(lp1382
sg312
Nsg313
Nsg314
I01
sg315
Nsg327
(lp1383
sg334
Nsg335
Nsg336
I01
sg337
Nsg338
F0.1
sg339
Nsg340
Nsg341
Nsg342
Nsg343
Nsg344
Nsg382
Nsg383
(dp1384
sg385
(lp1385
sg387
Nsg388
Nsg389
Nsg390
Nsg391
g1044
sg402
(lp1386
sg404
Nsbag186
(g291
g188
Ntp1387
Rp1388
(dp1389
g305
I2
sg306
(lp1390
sg312
Nsg313
Nsg314
I01
sg315
Nsg327
(lp1391
sg334
Nsg335
Nsg336
I01
sg337
Nsg338
F0.1
sg339
Nsg340
Nsg341
Nsg342
Nsg343
Nsg344
Nsg382
Nsg383
(dp1392
sg385
(lp1393
sg387
Nsg388
Nsg389
Nsg390
Nsg391
g836
sg402
(lp1394
sg404
Nsbag186
(g291
g188
Ntp1395
Rp1396
(dp1397
g305
I2
sg306
(lp1398
sg312
Nsg313
Nsg314
I01
sg315
Nsg327
(lp1399
sg334
Nsg335
Nsg336
I01
sg337
Nsg338
F0.1
sg339
Nsg340
Nsg341
Nsg342
Nsg343
Nsg344
Nsg382
Nsg383
(dp1400
sg385
(lp1401
sg387
Nsg388
Nsg389
Nsg390
Nsg391
g951
sg402
(lp1402
sg404
Nsbag186
(g291
g188
Ntp1403
Rp1404
(dp1405
g305
I2
sg306
(lp1406
sg312
Nsg313
Nsg314
I01
sg315
Nsg327
(lp1407
sg334
Nsg335
Nsg336
I01
sg337
Nsg338
F0.1
sg339
Nsg340
Nsg341
Nsg342
Nsg343
Nsg344
Nsg382
Nsg383
(dp1408
sg385
(lp1409
sg387
Nsg388
Nsg389
Nsg390
Nsg391
g1044
sg402
(lp1410
sg404
Nsbag186
(g291
g188
Ntp1411
Rp1412
(dp1413
g305
I2
sg306
(lp1414
sg312
Nsg313
Nsg314
I01
sg315
Nsg327
(lp1415
sg334
Nsg335
Nsg336
I01
sg337
Nsg338
F0.1
sg339
Nsg340
Nsg341
Nsg342
Nsg343
Nsg344
Nsg382
Nsg383
(dp1416
sg385
(lp1417
sg387
Nsg388
Nsg389
Nsg390
Nsg391
g543
sg402
(lp1418
sg404
Nsbag186
(g291
g188
Ntp1419
Rp1420
(dp1421
g305
I2
sg306
(lp1422
sg312
Nsg313
Nsg314
I01
sg315
Nsg327
(lp1423
sg334
Nsg335
Nsg336
I01
sg337
Nsg338
F0.1
sg339
Nsg340
Nsg341
Nsg342
Nsg343
Nsg344
Nsg382
Nsg383
(dp1424
sg385
(lp1425
sg387
Nsg388
Nsg389
Nsg390
Nsg391
g836
sg402
(lp1426
sg404
Nsbag186
(g291
g188
Ntp1427
Rp1428
(dp1429
g305
I2
sg306
(lp1430
sg312
Nsg313
Nsg314
I01
sg315
Nsg327
(lp1431
sg334
Nsg335
Nsg336
I01
sg337
Nsg338
F0.1
sg339
Nsg340
Nsg341
Nsg342
Nsg343
Nsg344
Nsg382
Nsg383
(dp1432
sg385
(lp1433
sg387
Nsg388
Nsg389
Nsg390
Nsg391
g1063
sg402
(lp1434
sg404
Nsbag186
(g291
g188
Ntp1435
Rp1436
(dp1437
g305
I2
sg306
(lp1438
sg312
Nsg313
Nsg314
I01
sg315
Nsg327
(lp1439
sg334
Nsg335
Nsg336
I01
sg337
Nsg338
F0.1
sg339
Nsg340
Nsg341
Nsg342
Nsg343
Nsg344
Nsg382
Nsg383
(dp1440
sg385
(lp1441
sg387
Nsg388
Nsg389
Nsg390
Nsg391
g951
sg402
(lp1442
sg404
Nsbag186
(g291
g188
Ntp1443
Rp1444
(dp1445
g305
I2
sg306
(lp1446
sg312
Nsg313
Nsg314
I01
sg315
Nsg327
(lp1447
sg334
Nsg335
Nsg336
I01
sg337
Nsg338
F0.1
sg339
Nsg340
Nsg341
Nsg342
Nsg343
Nsg344
Nsg382
Nsg383
(dp1448
sg385
(lp1449
sg387
Nsg388
Nsg389
Nsg390
Nsg391
g562
sg402
(lp1450
sg404
Nsbag186
(g291
g188
Ntp1451
Rp1452
(dp1453
g305
I2
sg306
(lp1454
sg312
Nsg313
Nsg314
I01
sg315
Nsg327
(lp1455
sg334
Nsg335
Nsg336
I01
sg337
Nsg338
F0.1
sg339
Nsg340
Nsg341
Nsg342
Nsg343
Nsg344
Nsg382
Nsg383
(dp1456
sg385
(lp1457
sg387
Nsg388
Nsg389
Nsg390
Nsg391
g1044
sg402
(lp1458
sg404
Nsbag186
(g291
g188
Ntp1459
Rp1460
(dp1461
g305
I2
sg306
(lp1462
sg312
Nsg313
Nsg314
I01
sg315
Nsg327
(lp1463
sg334
Nsg335
Nsg336
I01
sg337
Nsg338
F0.1
sg339
Nsg340
Nsg341
Nsg342
Nsg343
Nsg344
Nsg382
Nsg383
(dp1464
sg385
(lp1465
sg387
Nsg388
Nsg389
Nsg390
Nsg391
g966
sg402
(lp1466
sg404
Nsbag186
(g291
g188
Ntp1467
Rp1468
(dp1469
g305
I2
sg306
(lp1470
sg312
Nsg313
Nsg314
I01
sg315
Nsg327
(lp1471
sg334
Nsg335
Nsg336
I01
sg337
Nsg338
F0.1
sg339
Nsg340
Nsg341
Nsg342
Nsg343
Nsg344
Nsg382
Nsg383
(dp1472
sg385
(lp1473
sg387
Nsg388
Nsg389
Nsg390
Nsg391
g543
sg402
(lp1474
sg404
Nsbag186
(g291
g188
Ntp1475
Rp1476
(dp1477
g305
I2
sg306
(lp1478
sg312
Nsg313
Nsg314
I01
sg315
Nsg327
(lp1479
sg334
Nsg335
Nsg336
I01
sg337
Nsg338
F0.1
sg339
Nsg340
Nsg341
Nsg342
Nsg343
Nsg344
Nsg382
Nsg383
(dp1480
sg385
(lp1481
sg387
Nsg388
Nsg389
Nsg390
Nsg391
g862
sg402
(lp1482
sg404
Nsbag186
(g291
g188
Ntp1483
Rp1484
(dp1485
g305
I2
sg306
(lp1486
sg312
Nsg313
Nsg314
I01
sg315
Nsg327
(lp1487
sg334
Nsg335
Nsg336
I01
sg337
Nsg338
F0.1
sg339
Nsg340
Nsg341
Nsg342
Nsg343
Nsg344
Nsg382
Nsg383
(dp1488
sg385
(lp1489
sg387
Nsg388
Nsg389
Nsg390
Nsg391
g836
sg402
(lp1490
sg404
Nsbag186
(g291
g188
Ntp1491
Rp1492
(dp1493
g305
I2
sg306
(lp1494
sg312
Nsg313
Nsg314
I01
sg315
Nsg327
(lp1495
sg334
Nsg335
Nsg336
I01
sg337
Nsg338
F0.1
sg339
Nsg340
Nsg341
Nsg342
Nsg343
Nsg344
Nsg382
Nsg383
(dp1496
sg385
(lp1497
sg387
Nsg388
Nsg389
Nsg390
Nsg391
g677
sg402
(lp1498
sg404
Nsbag330
ag378
ag945
ag512
ag528
ag571
ag353
ag369
ag960
ag614
ag537
ag580
ag438
ag787
ag816
ag628
ag657
ag686
asS'v_dv_list'
p1499
(lp1500
(lp1501
g186
(cpowercad.sym_layout.symbolic_layout
RowCol
p1502
g188
Ntp1503
Rp1504
(dp1505
S'phantom'
p1506
I00
sg482
NsS'all_super'
p1507
I00
sS'phantom_constraint'
p1508
Nsg342
I0
sS'mid'
p1509
NsS'elements'
p1510
(dp1511
g451
I1
ssS'definable'
p1512
I01
sS'removed'
p1513
Nsg485
Nsbaa(lp1514
g186
(g1502
g188
Ntp1515
Rp1516
(dp1517
g1506
I01
sg482
Nsg1507
I00
sg1508
Nsg342
I1
sg1509
Nsg1510
(dp1518
sg1512
I01
sg1513
Nsg485
Nsbaa(lp1519
g186
(g1502
g188
Ntp1520
Rp1521
(dp1522
g1506
I01
sg482
Nsg1507
I00
sg1508
Nsg342
I2
sg1509
Nsg1510
(dp1523
sg1512
I01
sg1513
Nsg485
Nsbaa(lp1524
g443
aa(lp1525
g309
aa(lp1526
g414
aa(lp1527
g422
aa(lp1528
g418
aa(lp1529
g186
(g1502
g188
Ntp1530
Rp1531
(dp1532
g1506
I00
sg482
Nsg1507
I00
sg1508
Nsg342
I8
sg1509
Nsg1510
(dp1533
g358
I1
ssg1512
I01
sg1513
Nsg485
Nsbaa(lp1534
g186
(g1502
g188
Ntp1535
Rp1536
(dp1537
g1506
I00
sg482
Nsg1507
I00
sg1508
Nsg342
I9
sg1509
Nsg1510
(dp1538
g1258
I1
ssg1512
I01
sg1513
Nsg485
NsbaasS'leads'
p1539
(lp1540
g1249
ag1014
ag463
ag904
ag716
ag1290
ag1331
asS'xlen'
p1541
I12
sS'seed'
p1542
NsS'vg_matrix'
p1543
(lp1544
(lp1545
(dp1546
a(dp1547
a(dp1548
a(dp1549
g309
I01
sa(dp1550
g414
I01
sa(dp1551
g358
I01
sa(dp1552
g1258
I01
saa(lp1553
(dp1554
g303
I01
sg451
I01
sa(dp1555
g303
I00
sa(dp1556
g303
I00
sa(dp1557
g309
I01
sg303
I01
sa(dp1558
g414
I01
sg418
I01
sa(dp1559
g358
I01
sa(dp1560
g1258
I01
saa(lp1561
(dp1562
g451
I00
sa(dp1563
g517
I01
sa(dp1564
g517
I00
sa(dp1565
g517
I01
sa(dp1566
g418
I00
sa(dp1567
a(dp1568
aa(lp1569
(dp1570
g447
I01
sg451
I01
sa(dp1571
g447
I00
sa(dp1572
g447
I00
sa(dp1573
g447
I01
sg443
I01
sa(dp1574
g422
I01
sg418
I01
sa(dp1575
a(dp1576
aa(lp1577
(dp1578
a(dp1579
g1299
I01
sa(dp1580
g1299
I01
sa(dp1581
g443
I00
sa(dp1582
g422
I00
sa(dp1583
a(dp1584
aa(lp1585
(dp1586
a(dp1587
g1340
I01
sa(dp1588
g1340
I01
sa(dp1589
g443
I00
sa(dp1590
g422
I00
sa(dp1591
a(dp1592
aa(lp1593
(dp1594
a(dp1595
a(dp1596
a(dp1597
g443
I01
sa(dp1598
g422
I01
sa(dp1599
a(dp1600
aasS'v_rowcol_list'
p1601
(lp1602
g1504
ag1516
ag1521
ag186
(g1502
g188
Ntp1603
Rp1604
(dp1605
g1506
I00
sg482
Nsg1507
I00
sg1508
Nsg342
Nsg1509
Nsg1510
(dp1606
g443
I1
sg309
I1
ssg1512
I00
sg1513
Nsg485
Nsbag186
(g1502
g188
Ntp1607
Rp1608
(dp1609
g1506
I00
sg482
Nsg1507
I00
sg1508
Nsg342
Nsg1509
Nsg1510
(dp1610
g414
I1
sg422
I1
sg418
I1
ssg1512
I00
sg1513
Nsg485
Nsbag1531
ag1536
asS'mdl_type'
p1611
(dp1612
S'E'
p1613
S'MS'
p1614
sS'T'
p1615
NssS'h_min_max_overflow'
p1616
(F0.0
F0.0
tp1617
sS'perf_measures'
p1618
(lp1619
sS'E_graph'
p1620
NsS'layout'
p1621
(lp1622
g1285
ag1023
ag913
ag725
ag472
ag1326
ag1367
ag1057
ag999
ag979
ag760
ag556
ag599
ag876
ag801
ag830
ag642
ag671
ag700
ag1274
ag1032
ag988
ag1077
ag1100
ag489
ag769
ag850
ag885
ag922
ag734
ag1315
ag1356
asS'trace_nodes'
p1623
(lp1624
sS'raw_layout'
p1625
(lp1626
g1253
ag1018
ag908
ag720
ag467
ag1294
ag1335
ag1052
ag407
ag974
ag755
ag551
ag594
ag871
ag796
ag825
ag637
ag666
ag695
ag1262
ag362
ag933
ag318
ag1088
ag455
ag500
ag780
ag426
ag896
ag521
ag1303
ag1344
asS'all_lines'
p1627
(lp1628
g1274
ag1032
ag988
ag1077
ag1100
ag489
ag769
ag850
ag885
ag922
ag734
ag1315
ag1356
asS'sub_dim'
p1629
(F66.0
F56.0
tp1630
sS'temp_dir'
p1631
S'C:\\Users\\ialrazi\\PowerSynth\\CornerStitch_Dev\\PowerCAD-full\\export_data\\temp'
p1632
sS'trace_trace_connections'
p1633
(lp1634
(lp1635
g303
ag309
a(I1
I3
tp1636
aI00
aa(lp1637
g303
ag451
a(I1
I0
tp1638
aI00
aa(lp1639
g447
ag451
a(I3
I0
tp1640
aI00
aa(lp1641
g447
ag443
a(I3
I3
tp1642
aI00
aa(lp1643
g422
ag418
ag893
aI00
aa(lp1644
g418
ag414
ag930
aI00
aasS'h_dv_list'
p1645
(lp1646
(lp1647
g186
(g1502
g188
Ntp1648
Rp1649
(dp1650
g1506
I01
sg482
Nsg1507
I00
sg1508
Nsg342
I0
sg1509
Nsg1510
(dp1651
sg1512
I01
sg1513
Nsg485
Nsbaa(lp1652
g186
(g1502
g188
Ntp1653
Rp1654
(dp1655
g1506
I00
sg482
Nsg1507
I00
sg1508
Nsg342
I1
sg1509
Nsg1510
(dp1656
g303
I1
ssg1512
I01
sg1513
Nsg485
Nsbaa(lp1657
g186
(g1502
g188
Ntp1658
Rp1659
(dp1660
g1506
I00
sg482
Nsg1507
I00
sg1508
Nsg342
I2
sg1509
Nsg1510
(dp1661
g517
I1
ssg1512
I01
sg1513
Nsg485
Nsbaa(lp1662
g186
(g1502
g188
Ntp1663
Rp1664
(dp1665
g1506
I00
sg482
Nsg1507
I00
sg1508
Nsg342
I3
sg1509
Nsg1510
(dp1666
g447
I1
ssg1512
I01
sg1513
Nsg485
Nsbaa(lp1667
g186
(g1502
g188
Ntp1668
Rp1669
(dp1670
g1506
I00
sg482
Nsg1507
I00
sg1508
Nsg342
I4
sg1509
Nsg1510
(dp1671
g1299
I1
ssg1512
I01
sg1513
Nsg485
Nsbaa(lp1672
g186
(g1502
g188
Ntp1673
Rp1674
(dp1675
g1506
I00
sg482
Nsg1507
I00
sg1508
Nsg342
I5
sg1509
Nsg1510
(dp1676
g1340
I1
ssg1512
I01
sg1513
Nsg485
Nsbaa(lp1677
g186
(g1502
g188
Ntp1678
Rp1679
(dp1680
g1506
I01
sg482
Nsg1507
I00
sg1508
Nsg342
I6
sg1509
Nsg1510
(dp1681
sg1512
I01
sg1513
Nsg485
NsbaasS'h_overflow'
p1682
F0.0
sS'eval_count'
p1683
I0
sS'fixed_constraints'
p1684
(lp1685
sS'trace_rects'
p1686
(lp1687
(ipowercad.general.data_struct.util
Rect
p1688
(dp1689
g482
F16.4360453259194
sg483
F43.71633172092658
sg484
F46.00000000000001
sg62
F2.2836682790734244
sg60
F16.4360453259194
sg485
F0.0
sba(ipowercad.general.data_struct.util
Rect
p1690
(dp1691
g482
F16.4360453259194
sg483
F41.298425800579956
sg484
F42.51633172092658
sg62
F1.2179059203466238
sg60
F16.4360453259194
sg485
F0.0
sba(ipowercad.general.data_struct.util
Rect
p1692
(dp1693
g482
F12.607967512118563
sg483
F26.951651574493603
sg484
F40.09842580057995
sg62
F13.14677422608635
sg60
F12.607967512118563
sg485
F0.0
sba(ipowercad.general.data_struct.util
Rect
p1694
(dp1695
g482
F16.4360453259194
sg483
F21.098171802484604
sg484
F24.12931450062867
sg62
F3.031142698144066
sg60
F16.4360453259194
sg485
F0.0
sba(ipowercad.general.data_struct.util
Rect
p1696
(dp1697
g482
F16.4360453259194
sg483
F-2.3490879764941752
sg484
F21.098171802484604
sg62
F23.44725977897878
sg60
F3.8280778138008387
sg485
F12.607967512118563
sba(ipowercad.general.data_struct.util
Rect
p1698
(dp1699
g482
F28.395191643237922
sg483
F0.0
sg484
F-2.3490879764941752
sg62
F-2.3490879764941752
sg60
F15.787224131119359
sg485
F12.607967512118563
sba(ipowercad.general.data_struct.util
Rect
p1700
(dp1701
g482
F28.395191643237922
sg483
F-2.3490879764941752
sg484
F19.475834728619667
sg62
F21.824922705113842
sg60
F7.368020206797361
sg485
F21.02717143644056
sba(ipowercad.general.data_struct.util
Rect
p1702
(dp1703
g482
F36.00000000000001
sg483
F19.475834728619667
sg484
F25.751651574493607
sg62
F6.2758168458739405
sg60
F14.972828563559446
sg485
F21.02717143644056
sba(ipowercad.general.data_struct.util
Rect
p1704
(dp1705
g482
F36.00000000000001
sg483
F28.866430973894406
sg484
F38.183646401179146
sg62
F9.31721542728474
sg60
F14.972828563559446
sg485
F21.02717143644056
sba(ipowercad.general.data_struct.util
Rect
p1706
(dp1707
g482
F21.02717143644056
sg483
F32.76225418527794
sg484
F34.28782318979562
sg62
F1.5255690045176777
sg60
F8.419203924321998
sg485
F12.607967512118563
sba(ipowercad.general.data_struct.util
Rect
p1708
(dp1709
g482
F19.827171436440562
sg483
F-1.1490879764941753
sg484
F25.751651574493604
sg62
F26.90073955098778
sg60
F2.191126110521161
sg485
F17.6360453259194
sba(ipowercad.general.data_struct.util
Rect
p1710
(dp1711
g482
F32.4
sg483
F-1.1490879764941753
sg484
F18.275834728619667
sg62
F19.424922705113843
sg60
F2.804808356762077
sg485
F29.59519164323792
sba(ipowercad.general.data_struct.util
Rect
p1712
(dp1713
g482
F34.800000000000004
sg483
F-1.1490879764941753
sg484
F18.275834728619667
sg62
F19.424922705113843
sg60
F1.2000000000000028
sg485
F33.6
sbasg248
g249
sS'bondwire_dv_list'
p1714
(lp1715
sS'h_design_values'
p1716
(lp1717
NaNaNaNaNaNaNasS'eval_total'
p1718
I3000
sS'lumped_graph'
p1719
NsS'dev_design_values'
p1720
(lp1721
NaNaNaNaNaNaNaNaNaNaNaNasS'removed_horiz_dv_index'
p1722
I0
sS'v_min_max_overflow'
p1723
(F0.0
F0.0
tp1724
sS'corner_info'
p1725
(lp1726
sS'cost_funcs'
p1727
(lp1728
sS'gap'
p1729
F1.2
sS'all_trace_lines'
p1730
(lp1731
g1258
ag358
ag414
ag309
ag303
ag451
ag447
ag443
ag422
ag418
ag517
ag1299
ag1340
asS'v_design_values'
p1732
(lp1733
NaNaNaNaNaNaNaNaNaNasS'opt_to_sym_index'
p1734
(lp1735
(I1
I1
tp1736
a(I1
I2
tp1737
a(I1
I3
tp1738
a(I1
I4
tp1739
a(I1
I5
tp1740
a(I1
I6
tp1741
a(I2
I1
tp1742
a(I2
I2
tp1743
a(I2
I3
tp1744
a(I2
I4
tp1745
a(I2
I5
tp1746
a(I2
I6
tp1747
a(I2
I7
tp1748
a(I2
I8
tp1749
a(I2
I9
tp1750
a(I3
I0
tp1751
a(I3
I1
tp1752
a(I3
I2
tp1753
a(I3
I3
tp1754
a(I3
I4
tp1755
a(I3
I5
tp1756
a(I3
I6
tp1757
a(I3
I7
tp1758
a(I3
I8
tp1759
a(I3
I9
tp1760
a(I3
I10
tp1761
a(I3
I11
tp1762
asS'trace_graph'
p1763
g186
(cnetworkx.classes.graph
Graph
p1764
g188
Ntp1765
Rp1766
(dp1767
S'node'
p1768
(dp1769
g447
(dp1770
sg443
(dp1771
sg422
(dp1772
sg418
(dp1773
sg517
(dp1774
sg1299
(dp1775
sg1340
(dp1776
sg1258
(dp1777
sg358
(dp1778
sg414
(dp1779
sg309
(dp1780
sg303
(dp1781
sg451
(dp1782
ssS'graph'
p1783
(dp1784
sS'edge'
p1785
(dp1786
g447
(dp1787
g443
(dp1788
sg451
(dp1789
ssg443
(dp1790
g447
g1788
ssg422
(dp1791
g418
(dp1792
ssg418
(dp1793
g414
(dp1794
sg422
g1792
ssg517
(dp1795
sg1299
(dp1796
sg1340
(dp1797
sg1258
(dp1798
sg358
(dp1799
sg414
(dp1800
g418
g1794
ssg309
(dp1801
g303
(dp1802
ssg303
(dp1803
g309
g1802
sg451
(dp1804
ssg451
(dp1805
g447
g1789
sg303
g1804
sssS'adj'
p1806
g1786
sbsS'trace_layout'
p1807
(lp1808
g1280
ag1038
ag994
ag1083
ag1106
ag495
ag775
ag856
ag891
ag928
ag740
ag1321
ag1362
asS'layout_ready'
p1809
I01
sS'removed_vert_dv_index'
p1810
I0
sS'boundary_connections'
p1811
(dp1812
sS'ylen'
p1813
I11
sS'trace_graph_components'
p1814
(lp1815
(lp1816
(lp1817
g447
ag309
ag443
ag303
ag451
aa(lp1818
g508
ag533
ag576
ag633
ag662
ag691
aaa(lp1819
(lp1820
g414
ag422
ag418
aa(lp1821
g347
ag374
ag941
ag434
ag792
ag821
aaa(lp1822
(lp1823
g517
aa(lp1824
aa(lp1825
(lp1826
g1299
aa(lp1827
aa(lp1828
(lp1829
g1340
aa(lp1830
aa(lp1831
(lp1832
g1258
aa(lp1833
aa(lp1834
(lp1835
g358
aa(lp1836
aasS'bondwire_design_values'
p1837
(lp1838
sS'h_rowcol_list'
p1839
(lp1840
g1649
ag1654
ag1659
ag1664
ag1669
ag1674
ag1679
asS'h_design_var_dict'
p1841
NsS'trace_info'
p1842
(lp1843
sS'algorithm'
p1844
S'NSGAII'
p1845
sS'symbol_graph'
p1846
g186
(g1764
g188
Ntp1847
Rp1848
(dp1849
g1768
(dp1850
g330
(dp1851
sg792
(dp1852
sg816
(dp1853
sg353
(dp1854
sg358
(dp1855
sg1444
(dp1856
sg1412
(dp1857
sg1404
(dp1858
sg945
(dp1859
sg1380
(dp1860
sg1436
(dp1861
sg1372
(dp1862
sg1420
(dp1863
sg571
(dp1864
sg1452
(dp1865
sg309
(dp1866
sg438
(dp1867
sg1388
(dp1868
sg1476
(dp1869
sg1492
(dp1870
sg1484
(dp1871
sg1014
(dp1872
sg904
(dp1873
sg378
(dp1874
sg463
(dp1875
sg1290
(dp1876
sg1331
(dp1877
sg1468
(dp1878
sg347
(dp1879
sg374
(dp1880
sg941
(dp1881
sg508
(dp1882
sg716
(dp1883
sg533
(dp1884
sg1460
(dp1885
sg576
(dp1886
sg434
(dp1887
sg614
(dp1888
sg821
(dp1889
sg580
(dp1890
sg662
(dp1891
sg691
(dp1892
sg1258
(dp1893
sg369
(dp1894
sg414
(dp1895
sg528
(dp1896
sg633
(dp1897
sg303
(dp1898
sg451
(dp1899
sg447
(dp1900
sg443
(dp1901
sg422
(dp1902
sg418
(dp1903
sg517
(dp1904
sg1396
(dp1905
sg1299
(dp1906
sg1340
(dp1907
sg787
(dp1908
sg1249
(dp1909
sg628
(dp1910
sg1428
(dp1911
sg960
(dp1912
sg686
(dp1913
sN(dp1914
sg657
(dp1915
sg537
(dp1916
sg512
(dp1917
ssg1783
(dp1918
sg1785
(dp1919
g330
(dp1920
g309
(dp1921
sg347
(dp1922
ssg792
(dp1923
g422
(dp1924
sg787
(dp1925
ssg816
(dp1926
g443
(dp1927
sg821
(dp1928
ssg353
(dp1929
g347
(dp1930
sg358
(dp1931
ssg358
(dp1932
g1014
(dp1933
sg960
(dp1934
sg353
g1931
sg369
(dp1935
ssg1444
(dp1936
N(dp1937
ssg1412
(dp1938
N(dp1939
ssg1404
(dp1940
N(dp1941
ssg945
(dp1942
g941
(dp1943
sg309
(dp1944
ssg1380
(dp1945
N(dp1946
ssg1436
(dp1947
N(dp1948
ssg1372
(dp1949
N(dp1950
ssg1420
(dp1951
N(dp1952
ssg571
(dp1953
g517
(dp1954
sg576
(dp1955
ssg1452
(dp1956
N(dp1957
ssg309
(dp1958
g330
g1921
sg945
g1944
sg303
(dp1959
sg378
(dp1960
ssg438
(dp1961
g434
(dp1962
sg443
(dp1963
ssg1388
(dp1964
N(dp1965
ssg1476
(dp1966
N(dp1967
ssg1492
(dp1968
N(dp1969
ssg1484
(dp1970
N(dp1971
ssg1014
(dp1972
g358
g1933
ssg904
(dp1973
g418
(dp1974
ssg378
(dp1975
g309
g1960
sg374
(dp1976
ssg463
(dp1977
g451
(dp1978
ssg1290
(dp1979
g1299
(dp1980
ssg1331
(dp1981
g1340
(dp1982
ssg1468
(dp1983
N(dp1984
ssg347
(dp1985
g414
(dp1986
sg353
g1930
sg330
g1922
ssg374
(dp1987
g414
(dp1988
sg378
g1976
sg369
(dp1989
ssg941
(dp1990
g414
(dp1991
sg945
g1943
sg960
(dp1992
ssg508
(dp1993
g447
(dp1994
sg512
(dp1995
sg614
(dp1996
ssg716
(dp1997
g517
(dp1998
ssg533
(dp1999
g447
(dp2000
sg537
(dp2001
sg528
(dp2002
ssg1460
(dp2003
N(dp2004
ssg576
(dp2005
g447
(dp2006
sg571
g1955
sg580
(dp2007
ssg434
(dp2008
g438
g1962
sg422
(dp2009
ssg614
(dp2010
g517
(dp2011
sg508
g1996
ssg821
(dp2012
g422
(dp2013
sg816
g1928
ssg580
(dp2014
g517
(dp2015
sg576
g2007
ssg662
(dp2016
g657
(dp2017
sg303
(dp2018
ssg691
(dp2019
g303
(dp2020
sg686
(dp2021
ssg1258
(dp2022
g1249
(dp2023
ssg369
(dp2024
g358
g1935
sg374
g1989
ssg414
(dp2025
g941
g1991
sg418
(dp2026
sg347
g1986
sg374
g1988
ssg528
(dp2027
g517
(dp2028
sg533
g2002
ssg633
(dp2029
g628
(dp2030
sg303
(dp2031
ssg303
(dp2032
g662
g2018
sg309
g1959
sg691
g2020
sg451
(dp2033
sg633
g2031
ssg451
(dp2034
g447
(dp2035
sg303
g2033
sg463
g1978
ssg447
(dp2036
g443
(dp2037
sg451
g2035
sg508
g1994
sg533
g2000
sg576
g2006
ssg443
(dp2038
g447
g2037
sg787
(dp2039
sg816
g1927
sg438
g1963
ssg422
(dp2040
g434
g2009
sg792
g1924
sg821
g2013
sg418
(dp2041
ssg418
(dp2042
g414
g2026
sg904
g1974
sg422
g2041
ssg517
(dp2043
g580
g2015
sg686
(dp2044
sg571
g1954
sg528
g2028
sg628
(dp2045
sg716
g1998
sg614
g2011
sg657
(dp2046
sg512
(dp2047
sg537
(dp2048
ssg1396
(dp2049
N(dp2050
ssg1299
(dp2051
g1290
g1980
ssg1340
(dp2052
g1331
g1982
ssg787
(dp2053
g443
g2039
sg792
g1925
ssg1249
(dp2054
g1258
g2023
ssg628
(dp2055
g517
g2045
sg633
g2030
ssg1428
(dp2056
N(dp2057
ssg960
(dp2058
g941
g1992
sg358
g1934
ssg686
(dp2059
g517
g2044
sg691
g2021
ssN(dp2060
g1460
g2004
sg1412
g1939
sg1404
g1941
sg1492
g1969
sg1388
g1965
sg1476
g1967
sg1428
g2057
sg1444
g1937
sg1380
g1946
sg1396
g2050
sg1452
g1957
sg1436
g1948
sg1372
g1950
sg1484
g1971
sg1420
g1952
sg1468
g1984
ssg657
(dp2061
g662
g2017
sg517
g2046
ssg537
(dp2062
g517
g2048
sg533
g2001
ssg512
(dp2063
g517
g2047
sg508
g1995
sssg1806
g1919
sbsS'corner_nodes'
p2064
(lp2065
sS'devices'
p2066
(lp2067
g347
ag374
ag941
ag633
ag662
ag691
ag508
ag533
ag576
ag434
ag792
ag821
asS'SymPoint'
p2068
g345
sS'trial'
p2069
I2738
sS'trace_ylen'
p2070
I7
sS'points'
p2071
(lp2072
g1249
ag1014
ag904
ag716
ag463
ag1290
ag1331
ag347
ag374
ag941
ag508
ag533
ag576
ag434
ag792
ag821
ag633
ag662
ag691
asS'mode'
p2073
I7
sS'all_points'
p2074
(lp2075
g1285
ag1023
ag913
ag725
ag472
ag1326
ag1367
ag1057
ag999
ag979
ag760
ag556
ag599
ag876
ag801
ag830
ag642
ag671
ag700
asS'solution_lib'
p2076
(ipowercad.sol_browser.solution_lib
SolutionLibrary
p2077
(dp2078
S'measure_data'
p2079
(lp2080
(lp2081
F10002.313460760806
aF10002.313460760806
aF10002.313460760806
aF10002.313460760806
aF10002.313460760806
aF10002.313460760806
aF10002.313460760806
aF10002.313460760806
aF10002.313460760806
aF10002.313460760806
aF10002.313460760806
aF10002.313460760806
aF10002.313460760806
aF10002.313460760806
aF10002.313460760806
aF10002.313460760806
aF10002.313460760806
aF10002.313460760806
aF10002.313460760806
aF10002.313460760806
aF10002.313460760806
aF10002.313460760806
aF10002.313460760806
aF10002.313460760806
aF10002.313460760806
aF10002.313460760806
aF10002.313460760806
aF10002.313460760806
aF10002.313460760806
aF10002.313460760806
aa(lp2082
F10002.313460760806
aF10002.313460760806
aF10002.313460760806
aF10002.313460760806
aF10002.313460760806
aF10002.313460760806
aF10002.313460760806
aF10002.313460760806
aF10002.313460760806
aF10002.313460760806
aF10002.313460760806
aF10002.313460760806
aF10002.313460760806
aF10002.313460760806
aF10002.313460760806
aF10002.313460760806
aF10002.313460760806
aF10002.313460760806
aF10002.313460760806
aF10002.313460760806
aF10002.313460760806
aF10002.313460760806
aF10002.313460760806
aF10002.313460760806
aF10002.313460760806
aF10002.313460760806
aF10002.313460760806
aF10002.313460760806
aF10002.313460760806
aF10002.313460760806
aasS'individuals'
p2083
(lp2084
(lp2085
F4.3897910482283145
aF2.2847668433989687
aF6.244521614641137
aF2.804808356760846
aF1.20000000000001
aF0.0
aF5.123785105942383
aF11.85895601182534
aF3.42676265632826
aF4.080706331167152
aF13.14677422608644
aF9.317215427285953
aF1.3472422127451993
aF1.2179059203466214
aF1.9032688739956418
aF1.0
aF0.4254459516303237
aF0.0
aF1.0
aF0.4021828851289784
aF0.6450903800025904
aF0.6564534457070859
aF0.3879307169862457
aF1.0
aF0.0
aF0.6412604355785017
aF1.0
aa(lp2086
F4.000692176442834
aF2.244813164149045
aF5.811728762960704
aF2.8048083567603292
aF1.2000000000000033
aF0.0
aF5.072549711236825
aF12.008562289605115
aF4.645725906865866
aF3.872757566417821
aF13.146774226086372
aF9.317215427285353
aF1.3258884931394574
aF1.2179059203466238
aF2.9167985273039996
aF1.0
aF0.4254459516303218
aF0.0
aF1.0
aF0.4021828851289702
aF0.6450903800025831
aF0.6564534457060255
aF0.3879307169862287
aF1.0
aF0.0
aF0.6564192826807344
aF1.0
aa(lp2087
F3.779518814079254
aF2.2523995322067183
aF5.5666040079544254
aF2.8048083567606437
aF1.2000000000000013
aF0.0
aF5.187386979561346
aF13.653900963679815
aF2.583088131069209
aF4.20341404136549
aF13.14677422608638
aF9.317215427286218
aF1.4390093190919782
aF1.217905920346623
aF2.1000058484480215
aF1.0
aF0.42544595163032584
aF0.0
aF1.0
aF0.40218288512896494
aF0.6450903800026038
aF0.6564534457063254
aF0.38793071698621795
aF1.0
aF0.0
aF0.6193704559476945
aF1.0
aa(lp2088
F3.7134985178689606
aF2.3409177054317505
aF6.334168233305339
aF2.804808356760803
aF1.200000000000002
aF0.0
aF4.41059854987943
aF11.57559530547048
aF2.4801618801644705
aF3.858094629014611
aF13.146774226086379
aF9.317215427286909
aF1.2
aF1.217905920346622
aF1.2
aF1.0
aF0.42544595163032234
aF0.0
aF1.0
aF0.4021828851289859
aF0.6450903800025966
aF0.6564534457044914
aF0.38793071698620635
aF1.0
aF0.0
aF0.6640400136685556
aF1.0
aa(lp2089
F4.707598393709059
aF2.24222451097534
aF5.810414866331737
aF2.804808356760228
aF1.200000000000002
aF0.0
aF3.5312705866911642
aF13.995591838864602
aF4.05111400470539
aF2.282970518086175
aF13.146774226086395
aF9.31721542728381
aF1.2109367633966885
aF1.2179059203466176
aF2.1380995350834797
aF1.0
aF0.4254459516303233
aF0.0
aF1.0
aF0.40218288512894096
aF0.6450903800025778
aF0.6564534457054695
aF0.3879307169860477
aF1.0
aF0.0
aF0.641705245730084
aF1.0
aa(lp2090
F3.845953292643187
aF2.339313167590482
aF5.716278428330477
aF2.8048083567612325
aF1.2000000000000004
aF0.0
aF3.5837718057983956
aF12.079315686215693
aF6.214703193400595
aF2.8087497413405935
aF13.146774226086377
aF9.317215427283019
aF1.2
aF1.217905920346622
aF1.2
aF1.0
aF0.4254459516303236
aF0.0
aF1.0
aF0.4021828851289809
aF0.6450903800025944
aF0.656453445704564
aF0.38793071698610204
aF1.0
aF0.0
aF0.6150445958066652
aF1.0
aa(lp2091
F3.545779979236343
aF2.027957754942206
aF6.497811818223953
aF2.804808356760944
aF1.2
aF0.0
aF5.106136432179971
aF14.420342515558483
aF2.6909510575124855
aF3.4698772638907736
aF13.146774226086409
aF9.317215427286033
aF1.32271722771661
aF1.217905920346619
aF1.8828935588794693
aF1.0
aF0.4254459516303243
aF0.0
aF1.0
aF0.40218288512898615
aF0.645090380002576
aF0.6564534457043496
aF0.38793071698599413
aF1.0
aF0.0
aF0.6755349973014839
aF1.0
aa(lp2092
F4.366084477427112
aF2.176440598278731
aF6.961584436909248
aF2.804808356761094
aF1.2
aF0.0
aF2.3403103212387357
aF13.533066250282001
aF6.228540858379303
aF3.141211171484383
aF13.146774226086436
aF9.31721542728458
aF1.2
aF1.217905920346621
aF2.7683888933953007
aF1.0
aF0.42544595163032206
aF0.0
aF1.0
aF0.40218288512898337
aF0.6450903800025888
aF0.6564534457052977
aF0.387930716986029
aF1.0
aF0.0
aF0.6031923115249003
aF1.0
aa(lp2093
F3.8887624222412898
aF2.2440195453324208
aF6.2089290333261316
aF2.8048083567611033
aF1.2
aF0.0
aF4.64802293736162
aF14.334642514104136
aF3.10849831179558
aF3.2774155797536992
aF13.146774226086409
aF9.31721542728522
aF1.2
aF1.2179059203466236
aF2.1830085451889
aF1.0
aF0.4254459516303259
aF0.0
aF1.0
aF0.4021828851289838
aF0.6450903800025829
aF0.6564534457057177
aF0.3879307169862197
aF1.0
aF0.0
aF0.6355958439521854
aF1.0
aa(lp2094
F3.993406616487847
aF2.2179323446937516
aF6.270509044610502
aF2.804808356760191
aF1.2
aF0.0
aF3.1816470728668786
aF14.099116967270103
aF2.9559995638427337
aF3.0047829407693953
aF13.1467742260864
aF9.31721542728738
aF1.2
aF1.2179059203466203
aF2.3735500476479894
aF1.0
aF0.4254459516303233
aF0.0
aF1.0
aF0.4021828851289636
aF0.6450903800025791
aF0.6564534457080597
aF0.387930716986187
aF1.0
aF0.0
aF0.6532020546021523
aF1.0
aa(lp2095
F4.023065094794605
aF2.3345621406675874
aF6.471341755036899
aF2.804808356761301
aF1.2
aF0.0
aF4.4340051404035625
aF11.49886486493336
aF5.77636615647364
aF3.791074117747142
aF13.146774226086409
aF9.317215427287774
aF1.2
aF1.217905920346623
aF1.7725599501173257
aF1.0
aF0.4254459516303244
aF0.0
aF1.0
aF0.4021828851289852
aF0.6450903800025907
aF0.6564534457076887
aF0.3879307169860784
aF1.0
aF0.0
aF0.6294153815595369
aF1.0
aa(lp2096
F3.6862599004737957
aF2.5204867974493728
aF5.346528854773849
aF2.804808356760766
aF1.2000000000000042
aF0.0
aF4.746907499491652
aF13.673910953744896
aF3.614466058132606
aF2.083209387186078
aF13.146774226086427
aF9.317215427286033
aF1.2
aF1.2179059203466234
aF3.085971901140701
aF1.0
aF0.4254459516303227
aF0.0
aF1.0
aF0.4021828851289815
aF0.6450903800025936
aF0.6564534457049127
aF0.38793071698622117
aF1.0
aF0.0
aF0.6328879830593892
aF1.0
aa(lp2097
F4.171000718998276
aF2.2477644525296845
aF6.286065600753765
aF2.8048083567606947
aF1.200000000000006
aF0.0
aF3.5366816836809623
aF13.68161785654171
aF4.8244513480798465
aF4.292099549070434
aF13.146774226086354
aF9.317215427284307
aF1.2
aF1.2179059203466214
aF2.479298974907018
aF1.0
aF0.4254459516303235
aF0.0
aF1.0
aF0.4021828851289898
aF0.6450903800025971
aF0.6564534457042515
aF0.3879307169862059
aF1.0
aF0.0
aF0.6454710690440801
aF1.0
aa(lp2098
F4.086667713428953
aF2.3960310403133276
aF6.114410143484958
aF2.8048083567604674
aF1.2
aF0.0
aF3.980050787930937
aF13.591397086901818
aF2.805948816473153
aF2.981682139699854
aF13.146774226086373
aF9.317215427286037
aF1.2
aF1.2179059203466207
aF1.8506658120739095
aF1.0
aF0.42544595163032306
aF0.0
aF1.0
aF0.4021828851289815
aF0.6450903800025971
aF0.6564534457052917
aF0.38793071698627263
aF1.0
aF0.0
aF0.6762707985121656
aF1.0
aa(lp2099
F4.051488952246488
aF2.237982861550546
aF6.2876531610312965
aF2.804808356761763
aF1.200000000000003
aF0.0
aF4.831477358568861
aF13.04647166449339
aF2.8337860584716306
aF3.1360062261872477
aF13.146774226086372
aF9.31721542728597
aF1.2
aF1.2179059203466227
aF2.1790267446093528
aF1.0
aF0.42544595163032406
aF0.0
aF1.0
aF0.40218288512898576
aF0.6450903800025889
aF0.6564534457072266
aF0.3879307169862126
aF1.0
aF0.0
aF0.6243967141546599
aF1.0
aa(lp2100
F4.315628448704662
aF2.2400088532919185
aF5.599463558501801
aF2.8048083567608466
aF1.2
aF0.0
aF3.422189367775088
aF12.91510817989556
aF3.549396253727195
aF3.2605219282969866
aF13.146774226086311
aF9.31721542728489
aF1.2
aF1.217905920346624
aF2.715185401356509
aF1.0
aF0.4254459516303234
aF0.0
aF1.0
aF0.40218288512893996
aF0.6450903800025765
aF0.6564534457080954
aF0.3879307169861127
aF1.0
aF0.0
aF0.6231748383257056
aF1.0
aa(lp2101
F3.9994107302697484
aF2.1315784332329994
aF6.259243252128056
aF2.8048083567603492
aF1.2000000000000017
aF0.0
aF4.024261481414787
aF11.696654931088613
aF4.995516156372079
aF3.946844286131892
aF13.146774226086393
aF9.317215427286598
aF1.2830432970189085
aF1.2179059203466207
aF2.0237550572920977
aF1.0
aF0.42544595163032495
aF0.0
aF1.0
aF0.4021828851289633
aF0.645090380002597
aF0.6564534457075878
aF0.38793071698616455
aF1.0
aF0.0
aF0.6648386386926667
aF1.0
aa(lp2102
F4.3561782294887355
aF2.285334057647338
aF6.454204185685944
aF2.80480835676033
aF1.2000000000000022
aF0.0
aF4.400695789085944
aF14.212947668585954
aF4.535248778426745
aF3.0244128472195224
aF13.146774226086402
aF9.31721542728599
aF1.4323314121722779
aF1.2179059203466291
aF1.2
aF1.0
aF0.4254459516303265
aF0.0
aF1.0
aF0.4021828851289986
aF0.6450903800025822
aF0.656453445704682
aF0.38793071698608833
aF1.0
aF0.0
aF0.6515849929164138
aF1.0
aa(lp2103
F4.491561906405166
aF2.2633710564470366
aF5.881406766337997
aF2.8048083567610633
aF1.2000000000000017
aF0.0
aF5.195749662963697
aF13.524568854489695
aF3.7220454532223717
aF4.580394863726951
aF13.146774226086293
aF9.317215427286483
aF1.2
aF1.2179059203466274
aF2.0873141268825166
aF1.0
aF0.42544595163032484
aF0.0
aF1.0
aF0.40218288512899475
aF0.6450903800025981
aF0.6564534457044917
aF0.3879307169863199
aF1.0
aF0.0
aF0.6068083930399654
aF1.0
aa(lp2104
F4.56790333464502
aF2.2648001654394756
aF6.25392801510594
aF2.8048083567599096
aF1.2
aF0.0
aF3.8893380937058053
aF12.262990584437562
aF3.043403823539142
aF3.0424855214529614
aF13.146774226086361
aF9.317215427285982
aF2.0904034522171124
aF1.2179059203466212
aF1.9235102459447662
aF1.0
aF0.4254459516303245
aF0.0
aF1.0
aF0.402182885128976
aF0.6450903800025998
aF0.6564534457051794
aF0.38793071698628256
aF1.0
aF0.0
aF0.6827210050933336
aF1.0
aa(lp2105
F3.5680013356952642
aF2.2432028521809033
aF5.985433662709704
aF2.804808356760492
aF1.2
aF0.0
aF4.001536604231411
aF14.1990904260971
aF3.9790479086526105
aF2.872254633831815
aF13.146774226086352
aF9.317215427284484
aF1.2371489011429515
aF1.2179059203466205
aF2.5678703702070687
aF1.0
aF0.42544595163032356
aF0.0
aF1.0
aF0.4021828851289661
aF0.6450903800025878
aF0.6564534457081062
aF0.3879307169861442
aF1.0
aF0.0
aF0.6320336056825502
aF1.0
aa(lp2106
F4.436629980804121
aF2.1847407438483812
aF6.419360205304715
aF2.8048083567609177
aF1.2000000000000064
aF0.0
aF2.9729016497234904
aF13.472839630036145
aF6.529837352845562
aF2.6878843260538443
aF13.146774226086348
aF9.317215427286026
aF1.2
aF1.2179059203466207
aF1.9057106271154873
aF1.0
aF0.4254459516303239
aF0.0
aF1.0
aF0.4021828851289723
aF0.6450903800025882
aF0.6564534457048035
aF0.38793071698607806
aF1.0
aF0.0
aF0.673259606406815
aF1.0
aa(lp2107
F3.837810026987938
aF2.2908086968449974
aF5.203200743907429
aF2.8048083567613067
aF1.2000000000000008
aF0.0
aF4.344807320298074
aF11.901067332051596
aF6.048151020112311
aF2.7642139994114516
aF13.146774226086377
aF9.317215427284019
aF1.2
aF1.217905920346622
aF1.3412878562364297
aF1.0
aF0.42544595163032367
aF0.0
aF1.0
aF0.4021828851289809
aF0.6450903800025931
aF0.656453445704541
aF0.3879307169861581
aF1.0
aF0.0
aF0.618946955805442
aF1.0
aa(lp2108
F4.030364730838691
aF2.271322353328223
aF6.277039421451286
aF2.8048083567611712
aF1.2
aF0.0
aF3.8042677861874123
aF11.999720446998518
aF4.46524970524815
aF2.013406819969715
aF13.146774226086375
aF9.317215427286435
aF1.2
aF1.2179059203466227
aF2.203519615470195
aF1.0
aF0.42544595163032584
aF0.0
aF1.0
aF0.40218288512897626
aF0.6450903800025851
aF0.6564534457085683
aF0.3879307169862292
aF1.0
aF0.0
aF0.6441717048891453
aF1.0
aa(lp2109
F3.295454300944619
aF2.0840824768991406
aF6.516733485164962
aF2.8048083567600566
aF1.2000000000000024
aF0.0
aF3.9173075419519954
aF12.266365102932784
aF6.044019803858076
aF3.1340366634308596
aF13.146774226086345
aF9.317215427285717
aF1.7792235166505554
aF1.217905920346626
aF2.72772795406646
aF1.0
aF0.4254459516303256
aF0.0
aF1.0
aF0.40218288512897277
aF0.6450903800025848
aF0.6564534457033655
aF0.3879307169861404
aF1.0
aF0.0
aF0.6767637233259797
aF1.0
aa(lp2110
F4.102790841217786
aF2.24862073702977
aF5.7810775048141245
aF2.8048083567606685
aF1.2000000000000024
aF0.0
aF4.443806753497956
aF13.502881504042765
aF3.762312990700374
aF3.757288030423822
aF13.146774226086386
aF9.317215427285301
aF1.2
aF1.2179059203466234
aF2.362680939996276
aF1.0
aF0.425445951630323
aF0.0
aF1.0
aF0.4021828851289838
aF0.645090380002597
aF0.656453445706624
aF0.3879307169862227
aF1.0
aF0.0
aF0.6432895874927325
aF1.0
aa(lp2111
F4.060186886942433
aF2.239523482901308
aF5.791757398924392
aF2.8048083567611757
aF1.2000000000000017
aF0.0
aF3.481451047026349
aF12.41692013411428
aF6.277113830896048
aF2.7918245246748676
aF13.146774226086377
aF9.317215427284692
aF1.2
aF1.217905920346622
aF1.2
aF1.0
aF0.42544595163032367
aF0.0
aF1.0
aF0.4021828851289807
aF0.6450903800025903
aF0.6564534457044614
aF0.38793071698609566
aF1.0
aF0.0
aF0.6217759480309167
aF1.0
aa(lp2112
F3.944561190721052
aF2.2426603486835703
aF6.0779768017502525
aF2.8048083567611335
aF1.2
aF0.0
aF3.8992731674027366
aF12.24405193458607
aF2.9034761559616324
aF3.3837068175487484
aF13.146774226086396
aF9.317215427286133
aF1.3105670013104715
aF1.2179059203466227
aF1.9870298426882516
aF1.0
aF0.4254459516303247
aF0.0
aF1.0
aF0.40218288512897493
aF0.6450903800025913
aF0.6564534457062011
aF0.38793071698621834
aF1.0
aF0.0
aF0.6594441424682232
aF1.0
aa(lp2113
F3.8843398435251717
aF2.380362255601288
aF6.782012856241656
aF2.804808356760722
aF1.2000000000000008
aF0.0
aF4.78227565720189
aF13.90970523459581
aF4.921199381899903
aF3.0875299581826035
aF13.146774226086407
aF9.317215427286017
aF1.4483052665787297
aF1.217905920346623
aF1.830243325510997
aF1.0
aF0.42544595163032517
aF0.0
aF1.0
aF0.40218288512898603
aF0.6450903800025822
aF0.6564534457051454
aF0.3879307169862139
aF1.0
aF0.0
aF0.6761087092517941
aF1.0
aa(lp2114
F3.85719631190179
aF2.3517563941321473
aF6.309586113660451
aF2.8048083567608013
aF1.2000000000000017
aF0.0
aF4.514384426461053
aF12.863529669788914
aF5.323896749923808
aF2.788321866025199
aF13.14677422608639
aF9.31721542728516
aF1.4305960040779486
aF1.2179059203466243
aF2.692026910410932
aF1.0
aF0.42544595163032495
aF0.0
aF1.0
aF0.40218288512896955
aF0.6450903800025863
aF0.6564534457048072
aF0.3879307169861373
aF1.0
aF0.0
aF0.6845887176273467
aF1.0
aasS'measure_names_units'
p2115
(lp2116
(V1
p2117
S'nH'
p2118
tp2119
a(V2
p2120
S'K'
p2121
tp2122
asbsS'dev_dv_list'
p2123
(lp2124
(lp2125
g347
aa(lp2126
g374
aa(lp2127
g941
aa(lp2128
g633
aa(lp2129
g662
aa(lp2130
g691
aa(lp2131
g508
aa(lp2132
g533
aa(lp2133
g576
aa(lp2134
g434
aa(lp2135
g792
aa(lp2136
g821
aasS'tol_constraints'
p2137
(lp2138
sS'bondwires'
p2139
(lp2140
g330
ag378
ag945
ag512
ag528
ag571
ag353
ag369
ag960
ag614
ag537
ag580
ag438
ag787
ag816
ag628
ag657
ag686
asS'v_design_var_dict'
p2141
NsbsS'tbl_bondwire_connect'
p2142
g186
(cpandas.core.frame
DataFrame
p2143
g188
Ntp2144
Rp2145
(dp2146
S'_metadata'
p2147
(lp2148
sS'_typ'
p2149
S'dataframe'
p2150
sS'_data'
p2151
g186
(cpandas.core.internals
BlockManager
p2152
g188
Ntp2153
Rp2154
((lp2155
cpandas.core.indexes.base
_new_Index
p2156
(cpandas.core.indexes.base
Index
p2157
(dp2158
S'data'
p2159
cnumpy.core.multiarray
_reconstruct
p2160
(cnumpy
ndarray
p2161
(I0
tp2162
g397
tp2163
Rp2164
(I1
(I9
tp2165
g219
(S'O4'
p2166
I0
I1
tp2167
Rp2168
(I3
S'|'
p2169
NNNI-1
I-1
I63
tp2170
bI00
(lp2171
S'bw_type'
p2172
aS'start'
p2173
aS'stop'
p2174
aS'obj'
p2175
aI0
aI1
aI2
aI3
aI4
atp2176
bsg16
Nstp2177
Rp2178
ag2156
(cpandas.core.indexes.numeric
Int64Index
p2179
(dp2180
g2159
g2160
(g2161
(I0
tp2181
g397
tp2182
Rp2183
(I1
(I18
tp2184
g219
(S'i8'
p2185
I0
I1
tp2186
Rp2187
(I3
S'<'
p2188
NNNI-1
I-1
I0
tp2189
bI00
S'\x00\x00\x00\x00\x00\x00\x00\x00\x01\x00\x00\x00\x00\x00\x00\x00\x02\x00\x00\x00\x00\x00\x00\x00\x03\x00\x00\x00\x00\x00\x00\x00\x04\x00\x00\x00\x00\x00\x00\x00\x05\x00\x00\x00\x00\x00\x00\x00\x06\x00\x00\x00\x00\x00\x00\x00\x07\x00\x00\x00\x00\x00\x00\x00\x08\x00\x00\x00\x00\x00\x00\x00\t\x00\x00\x00\x00\x00\x00\x00\n\x00\x00\x00\x00\x00\x00\x00\x0b\x00\x00\x00\x00\x00\x00\x00\x0c\x00\x00\x00\x00\x00\x00\x00\r\x00\x00\x00\x00\x00\x00\x00\x0e\x00\x00\x00\x00\x00\x00\x00\x0f\x00\x00\x00\x00\x00\x00\x00\x10\x00\x00\x00\x00\x00\x00\x00\x11\x00\x00\x00\x00\x00\x00\x00'
p2190
tp2191
bsg16
Nstp2192
Rp2193
a(lp2194
g2160
(g2161
(I0
tp2195
g397
tp2196
Rp2197
(I1
(I9
I18
tp2198
g2168
I01
(lp2199
Fnan
aFnan
aFnan
aFnan
aFnan
aFnan
aFnan
aFnan
aFnan
aFnan
aFnan
aFnan
aFnan
aFnan
aFnan
aFnan
aFnan
aFnan
aFnan
aFnan
aFnan
aFnan
aFnan
aFnan
aFnan
aFnan
aFnan
aFnan
aFnan
aFnan
aFnan
aFnan
aFnan
aFnan
aFnan
aFnan
aFnan
aFnan
aFnan
aFnan
aFnan
aFnan
aFnan
aFnan
aFnan
aFnan
aFnan
aFnan
aFnan
aFnan
aFnan
aFnan
aFnan
aFnan
aFnan
aFnan
aFnan
aFnan
aFnan
aFnan
aFnan
aFnan
aFnan
aFnan
aFnan
aFnan
aFnan
aFnan
aFnan
aFnan
aFnan
aFnan
aVPOWER
p2200
aVPOWER
p2201
aVPOWER
p2202
aVPOWER
p2203
aVPOWER
p2204
aVPOWER
p2205
aVSIGNAL
p2206
aVSIGNAL
p2207
aVSIGNAL
p2208
aVSIGNAL
p2209
aVSIGNAL
p2210
aVSIGNAL
p2211
aVPOWER
p2212
aVPOWER
p2213
aVPOWER
p2214
aVPOWER
p2215
aVPOWER
p2216
aVPOWER
p2217
aVM1
p2218
aVM2
p2219
aVM3
p2220
aVM4
p2221
aVM5
p2222
aVM6
p2223
aVM1
p2224
aVM2
p2225
aVM3
p2226
aVM4
p2227
aVM5
p2228
aVM6
p2229
aVD1
p2230
aVD2
p2231
aVD3
p2232
aVD4
p2233
aVD5
p2234
aVD6
p2235
aVT4
p2236
aVT4
p2237
aVT4
p2238
aVT11
p2239
aVT11
p2240
aVT11
p2241
aVT2
p2242
aVT2
p2243
aVT2
p2244
aVT11
p2245
aVT11
p2246
aVT11
p2247
aVT8
p2248
aVT8
p2249
aVT8
p2250
aVT11
p2251
aVT11
p2252
aVT11
p2253
aV Aluminium Power Bondwire 0.3x0.2mm.p
p2254
aV Aluminium Power Bondwire 0.3x0.2mm.p
p2255
aV Aluminium Power Bondwire 0.3x0.2mm.p
p2256
aV Aluminium Power Bondwire 0.3x0.2mm.p
p2257
aV Aluminium Power Bondwire 0.3x0.2mm.p
p2258
aV Aluminium Power Bondwire 0.3x0.2mm.p
p2259
aV Aluminium Signal Bondwire 0.1mm.p
p2260
aV Aluminium Signal Bondwire 0.1mm.p
p2261
aV Aluminium Signal Bondwire 0.1mm.p
p2262
aV Aluminium Signal Bondwire 0.1mm.p
p2263
aV Aluminium Signal Bondwire 0.1mm.p
p2264
aV Aluminium Signal Bondwire 0.1mm.p
p2265
aV Aluminium Power Bondwire 0.3x0.2mm.p
p2266
aV Aluminium Power Bondwire 0.3x0.2mm.p
p2267
aV Aluminium Power Bondwire 0.3x0.2mm.p
p2268
aV Aluminium Power Bondwire 0.3x0.2mm.p
p2269
aV Aluminium Power Bondwire 0.3x0.2mm.p
p2270
aV Aluminium Power Bondwire 0.3x0.2mm.p
p2271
ag1063
ag392
ag951
ag746
ag562
ag605
ag1044
ag1005
ag966
ag620
ag543
ag586
ag862
ag807
ag836
ag648
ag677
ag706
atp2272
ba(lp2273
g2156
(g2157
(dp2274
g2159
g2160
(g2161
(I0
tp2275
g397
tp2276
Rp2277
(I1
(I9
tp2278
g2168
I00
(lp2279
g2172
ag2173
ag2174
ag2175
aI0
aI1
aI2
aI3
aI4
atp2280
bsg16
Nstp2281
Rp2282
a(dp2283
S'0.14.1'
p2284
(dp2285
S'axes'
p2286
g2155
sS'blocks'
p2287
(lp2288
(dp2289
S'mgr_locs'
p2290
c__builtin__
slice
p2291
(I0
I9
L1L
tp2292
Rp2293
sS'values'
p2294
g2197
sasstp2295
bsbsb.