(ipowercad.design.library_structures
Device
p0
(dp1
S'name'
p2
S'CPM2-1200-0080Be'
p3
sS'wire_landings'
p4
(lp5
(ipowercad.design.library_structures
BondwireLanding
p6
(dp7
S'position'
p8
(F2.0
F1.0
tp9
sS'bond_type'
p10
I1
sba(ipowercad.design.library_structures
BondwireLanding
p11
(dp12
g8
(F2.0
F2.0
tp13
sg10
I1
sba(ipowercad.design.library_structures
BondwireLanding
p14
(dp15
g8
(F2.0
F4.0
tp16
sg10
I1
sba(ipowercad.design.library_structures
BondwireLanding
p17
(dp18
g8
(F2.0
F5.0
tp19
sg10
I1
sba(ipowercad.design.library_structures
BondwireLanding
p20
(dp21
g8
(F1.0
F3.0
tp22
sg10
I2
sba(ipowercad.design.library_structures
BondwireLanding
p23
(dp24
g8
(F1.0
F3.0
tp25
sg10
I2
sba(ipowercad.design.library_structures
BondwireLanding
p26
(dp27
g8
(F1.0
F3.0
tp28
sg10
I2
sba(ipowercad.design.library_structures
BondwireLanding
p29
(dp30
g8
(F2.0
F1.0
tp31
sg10
I1
sba(ipowercad.design.library_structures
BondwireLanding
p32
(dp33
g8
(F2.0
F1.0
tp34
sg10
I1
sbasS'device_model'
p35
NsS'power_side'
p36
I1
sS'device_type'
p37
I1
sS'properties'
p38
(ipowercad.design.library_structures
MaterialProperties
p39
(dp40
g2
NsS'density'
p41
F3100.0
sS'electrical_res'
p42
NsS'rel_permeab'
p43
NsS'rel_permit'
p44
NsS'thermal_cond'
p45
F370.0
sS'spec_heat_cap'
p46
F750.0
sbsS'dimensions'
p47
(F3.1
F3.36
F0.22
tp48
sb.