(ipowercad.design.library_structures
Device
p0
(dp1
S'name'
p2
S'CPM2-1200-0080B'
p3
sS'wire_landings'
p4
(lp5
(ipowercad.design.library_structures
BondwireLanding
p6
(dp7
S'position'
p8
(F2.0
F1.0
tp9
sS'bond_type'
p10
I1
sba(ipowercad.design.library_structures
BondwireLanding
p11
(dp12
g8
(F1.0
F3.0
tp13
sg10
I2
sbasS'device_model'
p14
NsS'power_side'
p15
I1
sS'device_type'
p16
I1
sS'properties'
p17
(ipowercad.design.library_structures
MaterialProperties
p18
(dp19
S'young_mdl'
p20
NsS'poi_rat'
p21
Nsg2
NsS'density'
p22
F3100.0
sS'expansion_coeff'
p23
NsS'electrical_res'
p24
NsS'rel_permeab'
p25
NsS'rel_permit'
p26
NsS'thermal_cond'
p27
F370.0
sS'id'
p28
NsS'spec_heat_cap'
p29
F750.0
sbsS'dimensions'
p30
(F3.1
F3.36
F0.22
tp31
sb.