(ipowercad.design.library_structures
Device
p0
(dp1
S'name'
p2
S'CPM2-1200-0080B'
p3
sS'wire_landings'
p4
(lp5
(ipowercad.design.library_structures
BondwireLanding
p6
(dp7
S'position'
p8
(F2.0
F1.0
tp9
sS'bond_type'
p10
I1
sba(ipowercad.design.library_structures
BondwireLanding
p11
(dp12
g8
(F2.0
F2.0
tp13
sg10
I1
sba(ipowercad.design.library_structures
BondwireLanding
p14
(dp15
g8
(F2.0
F4.0
tp16
sg10
I1
sba(ipowercad.design.library_structures
BondwireLanding
p17
(dp18
g8
(F2.0
F5.0
tp19
sg10
I1
sba(ipowercad.design.library_structures
BondwireLanding
p20
(dp21
g8
(F1.0
F3.0
tp22
sg10
I2
sba(ipowercad.design.library_structures
BondwireLanding
p23
(dp24
g8
(F1.0
F3.0
tp25
sg10
I2
sba(ipowercad.design.library_structures
BondwireLanding
p26
(dp27
g8
(F1.0
F3.0
tp28
sg10
I2
sbasS'device_model'
p29
NsS'power_side'
p30
I1
sS'device_type'
p31
I1
sS'properties'
p32
(ipowercad.design.library_structures
MaterialProperties
p33
(dp34
g2
NsS'density'
p35
F3100.0
sS'electrical_res'
p36
NsS'rel_permeab'
p37
NsS'rel_permit'
p38
NsS'thermal_cond'
p39
F370.0
sS'spec_heat_cap'
p40
F750.0
sbsS'dimensions'
p41
(F3.1
F3.36
F0.22
tp42
sb.