(ipowercad.design.library_structures
Device
p0
(dp1
S'name'
p2
S'CPM2-1200-0080B-MOS'
p3
sS'wire_landings'
p4
(lp5
(ipowercad.design.library_structures
BondwireLanding
p6
(dp7
S'position'
p8
(F1.0
F3.0
tp9
sS'bond_type'
p10
I2
sba(ipowercad.design.library_structures
BondwireLanding
p11
(dp12
g8
(F2.0
F1.5
tp13
sg10
I1
sba(ipowercad.design.library_structures
BondwireLanding
p14
(dp15
g8
(F2.0
F0.5
tp16
sg10
I1
sbasS'device_model'
p17
NsS'power_side'
p18
I1
sS'device_type'
p19
I1
sS'properties'
p20
(ipowercad.design.library_structures
MaterialProperties
p21
(dp22
S'young_mdl'
p23
NsS'poi_rat'
p24
Nsg2
NsS'density'
p25
F3100.0
sS'expansion_coeff'
p26
NsS'electrical_res'
p27
NsS'rel_permeab'
p28
NsS'rel_permit'
p29
NsS'thermal_cond'
p30
F370.0
sS'id'
p31
NsS'spec_heat_cap'
p32
F750.0
sbsS'dimensions'
p33
(F3.1
F3.36
F0.22
tp34
sb.