(ipowercad.design.library_structures
Device
p0
(dp1
S'name'
p2
S'CPMF-1200-S160B SiC-MOS'
p3
sS'wire_landings'
p4
(lp5
(ipowercad.design.library_structures
BondwireLanding
p6
(dp7
S'position'
p8
(F2.1
F1.55
tp9
sS'bond_type'
p10
I2
sba(ipowercad.design.library_structures
BondwireLanding
p11
(dp12
g8
(F0.77
F2.66
tp13
sg10
I1
sba(ipowercad.design.library_structures
BondwireLanding
p14
(dp15
g8
(F0.77
F1.92
tp16
sg10
I1
sba(ipowercad.design.library_structures
BondwireLanding
p17
(dp18
g8
(F0.77
F1.18
tp19
sg10
I1
sba(ipowercad.design.library_structures
BondwireLanding
p20
(dp21
g8
(F0.77
F0.44
tp22
sg10
I1
sbasS'device_model'
p23
NsS'power_side'
p24
I1
sS'device_type'
p25
I1
sS'properties'
p26
(ipowercad.design.library_structures
MaterialProperties
p27
(dp28
g2
S'SiC'
p29
sS'density'
p30
F3200.0
sS'electrical_res'
p31
NsS'rel_permeab'
p32
NsS'rel_permit'
p33
NsS'thermal_cond'
p34
F120.0
sS'spec_heat_cap'
p35
F750.0
sbsS'dimensions'
p36
(F3.1
F3.1
F0.365
tp37
sb.