(ipowercad.design.library_structures
Device
p0
(dp1
S'name'
p2
S'CPW4-1200S020B SiC-Diode'
p3
sS'wire_landings'
p4
(lp5
(ipowercad.design.library_structures
BondwireLanding
p6
(dp7
S'position'
p8
(F0.84
F2.14
tp9
sS'bond_type'
p10
I1
sba(ipowercad.design.library_structures
BondwireLanding
p11
(dp12
g8
(F0.84
F1.74
tp13
sg10
I1
sba(ipowercad.design.library_structures
BondwireLanding
p14
(dp15
g8
(F0.84
F1.34
tp16
sg10
I1
sba(ipowercad.design.library_structures
BondwireLanding
p17
(dp18
g8
(F0.84
F0.94
tp19
sg10
I1
sbasS'device_model'
p20
NsS'power_side'
p21
I1
sS'device_type'
p22
I2
sS'properties'
p23
(ipowercad.design.library_structures
MaterialProperties
p24
(dp25
g2
S'SiC'
p26
sS'density'
p27
F3200.0
sS'electrical_res'
p28
NsS'rel_permeab'
p29
NsS'rel_permit'
p30
NsS'thermal_cond'
p31
F120.0
sS'spec_heat_cap'
p32
F750.0
sbsS'dimensions'
p33
(F3.08
F3.08
F0.377
tp34
sb.