(ipowercad.design.library_structures
Device
p0
(dp1
S'name'
p2
S'CPW4-1200S020B SiC-Diode'
p3
sS'wire_landings'
p4
(lp5
(ipowercad.design.library_structures
BondwireLanding
p6
(dp7
S'position'
p8
(F0.84
F0.94
tp9
sS'bond_type'
p10
I1
sbasS'device_model'
p11
NsS'power_side'
p12
I1
sS'device_type'
p13
I2
sS'properties'
p14
(ipowercad.design.library_structures
MaterialProperties
p15
(dp16
g2
NsS'density'
p17
F3200.0
sS'electrical_res'
p18
NsS'rel_permeab'
p19
NsS'rel_permit'
p20
NsS'thermal_cond'
p21
F120.0
sS'spec_heat_cap'
p22
F750.0
sbsS'dimensions'
p23
(F3.08
F3.08
F0.377
tp24
sb.