(ipowercad.design.library_structures
Device
p0
(dp1
S'name'
p2
S'testHeater'
p3
sS'wire_landings'
p4
(lp5
(ipowercad.design.library_structures
BondwireLanding
p6
(dp7
S'position'
p8
(F1.0
F3.41
tp9
sS'bond_type'
p10
I1
sba(ipowercad.design.library_structures
BondwireLanding
p11
(dp12
g8
(F5.0
F3.41
tp13
sg10
I2
sba(ipowercad.design.library_structures
BondwireLanding
p14
(dp15
g8
(F5.0
F3.41
tp16
sg10
I2
sba(ipowercad.design.library_structures
BondwireLanding
p17
(dp18
g8
(F5.0
F3.41
tp19
sg10
I2
sba(ipowercad.design.library_structures
BondwireLanding
p20
(dp21
g8
(F1.0
F3.41
tp22
sg10
I1
sba(ipowercad.design.library_structures
BondwireLanding
p23
(dp24
g8
(F1.0
F3.41
tp25
sg10
I1
sba(ipowercad.design.library_structures
BondwireLanding
p26
(dp27
g8
(F1.0
F3.41
tp28
sg10
I1
sba(ipowercad.design.library_structures
BondwireLanding
p29
(dp30
g8
(F1.0
F3.41
tp31
sg10
I1
sba(ipowercad.design.library_structures
BondwireLanding
p32
(dp33
g8
(F1.0
F4.41
tp34
sg10
I1
sba(ipowercad.design.library_structures
BondwireLanding
p35
(dp36
g8
(F1.0
F3.41
tp37
sg10
I1
sba(ipowercad.design.library_structures
BondwireLanding
p38
(dp39
g8
(F1.0
F3.41
tp40
sg10
I1
sbasS'device_model'
p41
NsS'power_side'
p42
I1
sS'device_type'
p43
I1
sS'properties'
p44
(ipowercad.design.library_structures
MaterialProperties
p45
(dp46
g2
NsS'density'
p47
F8940.0
sS'electrical_res'
p48
NsS'rel_permeab'
p49
NsS'rel_permit'
p50
NsS'thermal_cond'
p51
F3.69
sS'spec_heat_cap'
p52
F390.0
sbsS'dimensions'
p53
(F6.82
F6.35
F0.8
tp54
sb.