(ipowercad.design.library_structures
Device
p0
(dp1
S'name'
p2
S'testHeater'
p3
sS'wire_landings'
p4
(lp5
(ipowercad.design.library_structures
BondwireLanding
p6
(dp7
S'position'
p8
(F1.0
F2.41
tp9
sS'bond_type'
p10
I1
sba(ipowercad.design.library_structures
BondwireLanding
p11
(dp12
g8
(F5.0
F3.41
tp13
sg10
I2
sba(ipowercad.design.library_structures
BondwireLanding
p14
(dp15
g8
(F1.0
F4.41
tp16
sg10
I1
sbasS'device_model'
p17
NsS'power_side'
p18
I1
sS'device_type'
p19
I1
sS'properties'
p20
(ipowercad.design.library_structures
MaterialProperties
p21
(dp22
g2
NsS'density'
p23
F8940.0
sS'electrical_res'
p24
NsS'rel_permeab'
p25
NsS'rel_permit'
p26
NsS'thermal_cond'
p27
F4.62
sS'spec_heat_cap'
p28
F390.0
sbsS'dimensions'
p29
(F6.82
F6.35
F0.8
tp30
sb.