(ipowercad.corner_stitch.optimization_setup
OptSetup
p0
(dp1
S'electrical_func'
p2
I0
sS'thermal_dev_tbl'
p3
(lp4
ccopy_reg
_reconstructor
p5
(cpowercad.sym_layout.symbolic_layout
SymPoint
p6
c__builtin__
object
p7
Ntp8
Rp9
(dp10
S'center_position'
p11
NsS'sym_bondwires'
p12
(lp13
g5
(cpowercad.sym_layout.symbolic_layout
SymLine
p14
g7
Ntp15
Rp16
(dp17
S'num_wires'
p18
I2
sS'trace_connections'
p19
(lp20
sS'dev_pt'
p21
I1
sS'land_pt2'
p22
NsS'wire'
p23
I01
sS'raw_element'
p24
NsS'conn_bonds'
p25
(lp26
sS'start_pt_conn'
p27
NsS'end_pts'
p28
NsS'has_rect'
p29
I01
sS'trace2'
p30
NsS'wire_sep'
p31
F0.1
sS'child_pts'
p32
NsS'trace'
p33
g5
(g14
g7
Ntp34
Rp35
(dp36
g32
(lp37
sg33
Nsg18
NsS'dv_index'
p38
I0
sg19
(lp39
g5
(g14
g7
Ntp40
Rp41
(dp42
g32
(lp43
sg33
Nsg18
Nsg38
I4
sg19
(lp44
g35
ag5
(g14
g7
Ntp45
Rp46
(dp47
g32
(lp48
sg33
Nsg18
Nsg38
I3
sg19
(lp49
g41
ag5
(g14
g7
Ntp50
Rp51
(dp52
g32
(lp53
sg33
Nsg18
Nsg38
I1
sg19
(lp54
g46
asS'intersecting_trace'
p55
g46
sS'device'
p56
NsS'land_pt'
p57
Nsg21
NsS'long_contacts'
p58
(dp59
sS'super_connections'
p60
(lp61
sg22
Nsg23
I00
sg24
g5
(cpowercad.sym_layout.svg
LayoutLine
p62
g7
Ntp63
Rp64
(dp65
S'path_id'
p66
S'To'
p67
sS'vertical'
p68
I00
sS'pt2'
p69
(F3.0
F1.0
tp70
sS'pt1'
p71
(F1.0
F1.0
tp72
sbsS'name'
p73
g67
sg25
(lp74
sS'end_pt_conn'
p75
Nsg27
NsS'constraint'
p76
Nsg28
NsS'element'
p77
g5
(g62
g7
Ntp78
Rp79
(dp80
g66
g67
sg68
I00
sg69
(I3
I1
tp81
sg71
(I1
I1
tp82
sbsS'tech'
p83
Nsg29
I01
sS'start_pts'
p84
NsS'trace_rect'
p85
(ipowercad.general.data_struct.util
Rect
p86
(dp87
S'right'
p88
F0.0
sS'bottom'
p89
F0.0
sS'top'
p90
F0.0
sS'height'
p91
F0.0
sS'width'
p92
F0.0
sS'left'
p93
F0.0
sbsS'trace_line'
p94
g5
(g62
g7
Ntp95
Rp96
(dp97
g66
g67
sg71
(I1
I1
tp98
sg69
(I3
I1
tp99
sg68
I00
sbsg30
Nsg31
NsS'normal_connections'
p100
(lp101
sbag5
(g14
g7
Ntp102
Rp103
(dp104
g32
(lp105
g5
(g6
g7
Ntp106
Rp107
(dp108
g11
Nsg12
(lp109
sg24
g5
(cpowercad.sym_layout.svg
LayoutPoint
p110
g7
Ntp111
Rp112
(dp113
g66
S'L3'
p114
sg73
NsS'pt'
p115
(F5.0
F0.0
tp116
sbsg73
g114
sg76
Nsg38
NsS'parent_line'
p117
g103
sg77
g5
(g110
g7
Ntp118
Rp119
(dp120
g66
g114
sg73
Nsg115
(I5
I0
tp121
sbsS'states'
p122
(lp123
sg83
(ipowercad.design.library_structures
Lead
p124
(dp125
S'lead_type'
p126
I2
sS'shape'
p127
I2
sS'properties'
p128
(ipowercad.design.library_structures
MaterialProperties
p129
(dp130
S'rel_permit'
p131
Nsg73
S'Aluminium'
p132
sS'density'
p133
NsS'rel_permeab'
p134
NsS'electrical_res'
p135
F3e-08
sS'thermal_cond'
p136
NsS'spec_heat_cap'
p137
Nsbsg73
S'Cylindrical Aluminium Lead 1.2mm Diam.'
p138
sS'dimensions'
p139
(F1.2
I10
tp140
sbsS'footprint_rect'
p141
NsS'lumped_node'
p142
NsS'orientation'
p143
Nsbasg33
Nsg18
Nsg38
I0
sg19
(lp144
g46
ag5
(g14
g7
Ntp145
Rp146
(dp147
g32
(lp148
sg33
Nsg18
Nsg38
I9
sg19
(lp149
g5
(g14
g7
Ntp150
Rp151
(dp152
g32
(lp153
sg33
Nsg18
Nsg38
I2
sg19
(lp154
g146
asg55
g146
sg56
Nsg57
Nsg21
Nsg58
(dp155
sg60
(lp156
sg22
Nsg23
I00
sg24
g5
(g62
g7
Ntp157
Rp158
(dp159
g66
S'Ta'
p160
sg68
I00
sg69
(F9.0
F1.0
tp161
sg71
(F7.0
F1.0
tp162
sbsg73
g160
sg25
(lp163
sg75
Nsg27
Nsg76
Nsg28
Nsg77
g5
(g62
g7
Ntp164
Rp165
(dp166
g66
g160
sg68
I00
sg69
(I9
I1
tp167
sg71
(I7
I1
tp168
sbsg83
Nsg29
I01
sg84
Nsg85
(ipowercad.general.data_struct.util
Rect
p169
(dp170
g88
F0.0
sg89
F0.0
sg90
F0.0
sg91
F0.0
sg92
F0.0
sg93
F0.0
sbsg94
g5
(g62
g7
Ntp171
Rp172
(dp173
g66
g160
sg71
(I6
I1
tp174
sg69
(I8
I1
tp175
sg68
I00
sbsg30
Nsg31
Nsg100
(lp176
sbag103
asg55
g151
sg56
Nsg57
Nsg21
Nsg58
(dp177
sg60
(lp178
sg22
Nsg23
I00
sg24
g5
(g62
g7
Ntp179
Rp180
(dp181
g66
S'Tm'
p182
sg68
I01
sg69
(F8.0
F3.0
tp183
sg71
(F8.0
F0.0
tp184
sbsg73
g182
sg25
(lp185
sg75
Nsg27
Nsg76
Nsg28
Nsg77
g5
(g62
g7
Ntp186
Rp187
(dp188
g66
g182
sg68
I01
sg69
(I8
I3
tp189
sg71
(I8
I0
tp190
sbsg83
Nsg29
I01
sg84
Nsg85
(ipowercad.general.data_struct.util
Rect
p191
(dp192
g88
F0.0
sg89
F0.0
sg90
F0.0
sg91
F0.0
sg92
F0.0
sg93
F0.0
sbsg94
g5
(g62
g7
Ntp193
Rp194
(dp195
g66
g182
sg71
(I7
I0
tp196
sg69
(I7
I3
tp197
sg68
I01
sbsg30
Nsg31
Nsg100
(lp198
(g5
(g14
g7
Ntp199
Rp200
(dp201
g32
(lp202
g5
(g6
g7
Ntp203
Rp204
(dp205
g11
Nsg12
(lp206
g5
(g14
g7
Ntp207
Rp208
(dp209
g18
I2
sg19
(lp210
sg21
I1
sg22
Nsg23
I01
sg24
Nsg25
(lp211
sg27
Nsg28
Nsg29
I01
sg30
Nsg31
F0.1
sg32
Nsg33
g5
(g14
g7
Ntp212
Rp213
(dp214
g32
(lp215
sg33
Nsg18
Nsg38
I12
sg19
(lp216
g5
(g14
g7
Ntp217
Rp218
(dp219
g32
(lp220
g5
(g6
g7
Ntp221
Rp222
(dp223
g11
Nsg12
(lp224
sg24
g5
(g110
g7
Ntp225
Rp226
(dp227
g66
S'L2'
p228
sg73
Nsg115
(F8.0
F9.0
tp229
sbsg73
g228
sg76
Nsg38
Nsg117
g218
sg77
g5
(g110
g7
Ntp230
Rp231
(dp232
g66
g228
sg73
Nsg115
(I8
I9
tp233
sbsg122
(lp234
sg83
g124
sg141
Nsg142
Nsg143
Nsbasg33
Nsg18
Nsg38
I7
sg19
(lp235
g213
ag5
(g14
g7
Ntp236
Rp237
(dp238
g32
(lp239
sg33
Nsg18
Nsg38
I7
sg19
(lp240
g218
asg55
Nsg56
Nsg57
Nsg21
Nsg58
(dp241
sg60
(lp242
sg22
Nsg23
I00
sg24
g5
(g62
g7
Ntp243
Rp244
(dp245
g66
S'Tk'
p246
sg68
I01
sg69
(F6.0
F9.0
tp247
sg71
(F6.0
F3.0
tp248
sbsg73
g246
sg25
(lp249
g5
(g14
g7
Ntp250
Rp251
(dp252
g18
I2
sg19
(lp253
sg21
I1
sg22
Nsg23
I01
sg24
Nsg25
(lp254
sg27
Nsg28
Nsg29
I01
sg30
Nsg31
F0.1
sg32
Nsg33
g237
sg85
Nsg38
Nsg55
Nsg56
g5
(g6
g7
Ntp255
Rp256
(dp257
g11
Nsg12
(lp258
g251
ag5
(g14
g7
Ntp259
Rp260
(dp261
g18
I2
sg19
(lp262
sg21
I2
sg22
Nsg23
I01
sg24
Nsg25
(lp263
sg27
Nsg28
Nsg29
I01
sg30
Nsg31
F0.1
sg32
Nsg33
g5
(g14
g7
Ntp264
Rp265
(dp266
g32
(lp267
g5
(g6
g7
Ntp268
Rp269
(dp270
g11
Nsg12
(lp271
sg24
g5
(g110
g7
Ntp272
Rp273
(dp274
g66
S'L5'
p275
sg73
Nsg115
(F8.0
F6.0
tp276
sbsg73
g275
sg76
Nsg38
Nsg117
g265
sg77
g5
(g110
g7
Ntp277
Rp278
(dp279
g66
g275
sg73
Nsg115
(I8
I6
tp280
sbsg122
(lp281
sg83
g124
sg141
Nsg142
Nsg143
Nsbasg33
Nsg18
Nsg38
I10
sg19
(lp282
sg55
Nsg56
Nsg57
Nsg21
Nsg58
(dp283
sg60
(lp284
sg22
Nsg23
I00
sg24
g5
(g62
g7
Ntp285
Rp286
(dp287
g66
S'Tf'
p288
sg68
I01
sg69
(F8.0
F8.0
tp289
sg71
(F8.0
F4.0
tp290
sbsg73
g288
sg25
(lp291
g260
ag5
(g14
g7
Ntp292
Rp293
(dp294
g18
I2
sg19
(lp295
sg21
I2
sg22
Nsg23
I01
sg24
Nsg25
(lp296
sg27
Nsg28
Nsg29
I01
sg30
Nsg31
F0.1
sg32
Nsg33
g265
sg85
Nsg38
Nsg55
Nsg56
g5
(g6
g7
Ntp297
Rp298
(dp299
g11
Nsg12
(lp300
g5
(g14
g7
Ntp301
Rp302
(dp303
g18
I2
sg19
(lp304
sg21
I1
sg22
Nsg23
I01
sg24
Nsg25
(lp305
sg27
Nsg28
Nsg29
I01
sg30
Nsg31
F0.1
sg32
Nsg33
g237
sg85
Nsg38
Nsg55
Nsg56
g298
sg57
Nsg58
(dp306
sg60
(lp307
sg76
Nsg75
Nsg84
Nsg77
Nsg83
(ipowercad.design.library_structures
BondWire
p308
(dp309
S'a'
p310
F0.4
sS'wire_type'
p311
I1
sg73
S'Aluminium Power Bondwire 0.3x0.2mm'
p312
sg127
I2
sS'b'
p313
F0.25
sg128
(ipowercad.design.library_structures
MaterialProperties
p314
(dp315
g73
S'Aluminium'
p316
sg133
Nsg135
F3e-08
sg134
Nsg131
Nsg136
Nsg137
Nsbsg139
(F0.3
F0.2
tp317
sbsg100
(lp318
sg94
Nsbag293
asg24
g5
(g110
g7
Ntp319
Rp320
(dp321
g66
S'M8'
p322
sg73
Nsg115
(F7.0
F6.0
tp323
sbsg73
g322
sg76
Nsg38
I10
sg117
g5
(g14
g7
Ntp324
Rp325
(dp326
g32
(lp327
g256
ag298
ag5
(g6
g7
Ntp328
Rp329
(dp330
g11
Nsg12
(lp331
g5
(g14
g7
Ntp332
Rp333
(dp334
g18
I2
sg19
(lp335
sg21
I1
sg22
Nsg23
I01
sg24
Nsg25
(lp336
sg27
Nsg28
Nsg29
I01
sg30
Nsg31
F0.1
sg32
Nsg33
g237
sg85
Nsg38
Nsg55
Nsg56
g329
sg57
Nsg58
(dp337
sg60
(lp338
sg76
Nsg75
Nsg84
Nsg77
Nsg83
(ipowercad.design.library_structures
BondWire
p339
(dp340
g310
F0.4
sg311
I1
sg73
S'Aluminium Power Bondwire 0.3x0.2mm'
p341
sg127
I2
sg313
F0.25
sg128
(ipowercad.design.library_structures
MaterialProperties
p342
(dp343
g73
S'Aluminium'
p344
sg133
Nsg135
F3e-08
sg134
Nsg131
Nsg136
Nsg137
Nsbsg139
(F0.3
F0.2
tp345
sbsg100
(lp346
sg94
Nsbag5
(g14
g7
Ntp347
Rp348
(dp349
g18
I2
sg19
(lp350
sg21
I2
sg22
Nsg23
I01
sg24
Nsg25
(lp351
sg27
Nsg28
Nsg29
I01
sg30
Nsg31
F0.1
sg32
Nsg33
g265
sg85
Nsg38
Nsg55
Nsg56
g329
sg57
Nsg58
(dp352
sg60
(lp353
sg76
Nsg75
Nsg84
Nsg77
Nsg83
(ipowercad.design.library_structures
BondWire
p354
(dp355
g310
F0.2
sg311
I2
sg73
S'Aluminium Signal Bondwire 0.1mm'
p356
sg127
I1
sg313
F0.125
sg128
(ipowercad.design.library_structures
MaterialProperties
p357
(dp358
g73
S'Aluminium'
p359
sg133
Nsg135
F3e-08
sg134
Nsg131
Nsg136
Nsg137
Nsbsg139
F0.1
sbsg100
(lp360
sg94
Nsbasg24
g5
(g110
g7
Ntp361
Rp362
(dp363
g66
S'M9'
p364
sg73
Nsg115
(F7.0
F7.0
tp365
sbsg73
g364
sg76
Nsg38
I11
sg117
g325
sg77
g5
(g110
g7
Ntp366
Rp367
(dp368
g66
g364
sg73
Nsg115
(I7
I7
tp369
sbsg122
(lp370
sg83
(ipowercad.design.project_structures
DeviceInstance
p371
(dp372
S'attach_thickness'
p373
F0.01
sS'heat_flow'
p374
F3.0
sS'attach_tech'
p375
(ipowercad.design.library_structures
DieAttach
p376
(dp377
g128
(ipowercad.design.library_structures
MaterialProperties
p378
(dp379
g131
Nsg73
S'Pb-Sn Solder Alloy'
p380
sg133
F11020.0
sg134
Nsg135
Nsg136
F35.8
sg137
F130.0
sbsbsS'device_tech'
p381
(ipowercad.design.library_structures
Device
p382
(dp383
S'power_side'
p384
I1
sg73
S'CPM2-1200-0080B-MOS'
p385
sS'device_type'
p386
I1
sS'wire_landings'
p387
(lp388
(ipowercad.design.library_structures
BondwireLanding
p389
(dp390
S'position'
p391
(F1.0
F3.0
tp392
sS'bond_type'
p393
I2
sba(ipowercad.design.library_structures
BondwireLanding
p394
(dp395
g391
(F2.0
F1.5
tp396
sg393
I1
sba(ipowercad.design.library_structures
BondwireLanding
p397
(dp398
g391
(F2.0
F0.5
tp399
sg393
I1
sbasS'device_model'
p400
Nsg128
(ipowercad.design.library_structures
MaterialProperties
p401
(dp402
S'young_mdl'
p403
NsS'poi_rat'
p404
Nsg73
Nsg133
F3100.0
sS'expansion_coeff'
p405
Nsg135
Nsg134
Nsg131
Nsg136
F370.0
sS'id'
p406
Nsg137
F750.0
sbsg139
(F3.1
F3.36
F0.22
tp407
sbsbsg141
Nsg142
Nsg143
Nsbasg33
Nsg18
Nsg38
I8
sg19
(lp408
sg55
Nsg56
Nsg57
Nsg21
Nsg58
(dp409
sg60
(lp410
((g146
g151
(I6
I8
tp411
(I0
I3
tp412
tp413
I1
tp414
asg22
Nsg23
I00
sg24
g5
(g62
g7
Ntp415
Rp416
(dp417
g66
S'Tt'
p418
sg68
I01
sg69
(F7.0
F8.0
tp419
sg71
(F7.0
F3.0
tp420
sbsg73
g418
sg25
(lp421
sg75
Nsg27
Nsg76
Nsg28
Nsg77
g5
(g62
g7
Ntp422
Rp423
(dp424
g66
g418
sg68
I01
sg69
(I7
I8
tp425
sg71
(I7
I3
tp426
sbsg83
Nsg29
I01
sg84
Nsg85
(ipowercad.general.data_struct.util
Rect
p427
(dp428
g88
F0.0
sg89
F0.0
sg90
F0.0
sg91
F0.0
sg92
F0.0
sg93
F0.0
sbsg94
g5
(g62
g7
Ntp429
Rp430
(dp431
g66
g418
sg71
(I6
I3
tp432
sg69
(I6
I5
tp433
sg68
I01
sbsg30
Nsg31
Nsg100
(lp434
sbsg77
g5
(g110
g7
Ntp435
Rp436
(dp437
g66
g322
sg73
Nsg115
(I7
I6
tp438
sbsg122
(lp439
sg83
g371
sg141
Nsg142
Nsg143
Nsbsg57
Nsg58
(dp440
sg60
(lp441
sg76
Nsg75
Nsg84
Nsg77
Nsg83
(ipowercad.design.library_structures
BondWire
p442
(dp443
g310
F0.2
sg311
I2
sg73
S'Aluminium Signal Bondwire 0.1mm'
p444
sg127
I1
sg313
F0.125
sg128
(ipowercad.design.library_structures
MaterialProperties
p445
(dp446
g73
S'Aluminium'
p447
sg133
Nsg135
F3e-08
sg134
Nsg131
Nsg136
Nsg137
Nsbsg139
F0.1
sbsg100
(lp448
sg94
Nsbag348
ag5
(g14
g7
Ntp449
Rp450
(dp451
g18
I2
sg19
(lp452
sg21
I2
sg22
Nsg23
I01
sg24
Nsg25
(lp453
sg27
Nsg28
Nsg29
I01
sg30
Nsg31
F0.1
sg32
Nsg33
g265
sg85
Nsg38
Nsg55
Nsg56
g204
sg57
Nsg58
(dp454
sg60
(lp455
sg76
Nsg75
Nsg84
Nsg77
Nsg83
(ipowercad.design.library_structures
BondWire
p456
(dp457
g310
F0.2
sg311
I2
sg73
S'Aluminium Signal Bondwire 0.1mm'
p458
sg127
I1
sg313
F0.125
sg128
(ipowercad.design.library_structures
MaterialProperties
p459
(dp460
g73
S'Aluminium'
p461
sg133
Nsg135
F3e-08
sg134
Nsg131
Nsg136
Nsg137
Nsbsg139
F0.1
sbsg100
(lp462
sg94
Nsbag5
(g14
g7
Ntp463
Rp464
(dp465
g18
I2
sg19
(lp466
sg21
I2
sg22
Nsg23
I01
sg24
Nsg25
(lp467
sg27
Nsg28
Nsg29
I01
sg30
Nsg31
F0.1
sg32
Nsg33
g265
sg85
Nsg38
Nsg55
Nsg56
g5
(g6
g7
Ntp468
Rp469
(dp470
g11
Nsg12
(lp471
g5
(g14
g7
Ntp472
Rp473
(dp474
g18
I2
sg19
(lp475
sg21
I1
sg22
Nsg23
I01
sg24
Nsg25
(lp476
sg27
Nsg28
Nsg29
I01
sg30
Nsg31
F0.1
sg32
Nsg33
g213
sg85
Nsg38
Nsg55
Nsg56
g469
sg57
Nsg58
(dp477
sg60
(lp478
sg76
Nsg75
Nsg84
Nsg77
Nsg83
(ipowercad.design.library_structures
BondWire
p479
(dp480
g310
F0.4
sg311
I1
sg73
S'Aluminium Power Bondwire 0.3x0.2mm'
p481
sg127
I2
sg313
F0.25
sg128
(ipowercad.design.library_structures
MaterialProperties
p482
(dp483
g73
S'Aluminium'
p484
sg133
Nsg135
F3e-08
sg134
Nsg131
Nsg136
Nsg137
Nsbsg139
(F0.3
F0.2
tp485
sbsg100
(lp486
sg94
Nsbag464
asg24
g5
(g110
g7
Ntp487
Rp488
(dp489
g66
S'M11'
p490
sg73
Nsg115
(F9.0
F6.0
tp491
sbsg73
g490
sg76
Nsg38
I4
sg117
g200
sg77
g5
(g110
g7
Ntp492
Rp493
(dp494
g66
g490
sg73
Nsg115
(I9
I6
tp495
sbsg122
(lp496
sg83
g371
sg141
Nsg142
Nsg143
Nsbsg57
Nsg58
(dp497
sg60
(lp498
sg76
Nsg75
Nsg84
Nsg77
Nsg83
(ipowercad.design.library_structures
BondWire
p499
(dp500
g310
F0.2
sg311
I2
sg73
S'Aluminium Signal Bondwire 0.1mm'
p501
sg127
I1
sg313
F0.125
sg128
(ipowercad.design.library_structures
MaterialProperties
p502
(dp503
g73
S'Aluminium'
p504
sg133
Nsg135
F3e-08
sg134
Nsg131
Nsg136
Nsg137
Nsbsg139
F0.1
sbsg100
(lp505
sg94
Nsbag5
(g14
g7
Ntp506
Rp507
(dp508
g18
I2
sg19
(lp509
sg21
I2
sg22
Nsg23
I01
sg24
Nsg25
(lp510
sg27
Nsg28
Nsg29
I01
sg30
Nsg31
F0.1
sg32
Nsg33
g265
sg85
Nsg38
Nsg55
Nsg56
g5
(g6
g7
Ntp511
Rp512
(dp513
g11
Nsg12
(lp514
g5
(g14
g7
Ntp515
Rp516
(dp517
g18
I2
sg19
(lp518
sg21
I1
sg22
Nsg23
I01
sg24
Nsg25
(lp519
sg27
Nsg28
Nsg29
I01
sg30
Nsg31
F0.1
sg32
Nsg33
g213
sg85
Nsg38
Nsg55
Nsg56
g512
sg57
Nsg58
(dp520
sg60
(lp521
sg76
Nsg75
Nsg84
Nsg77
Nsg83
(ipowercad.design.library_structures
BondWire
p522
(dp523
g310
F0.4
sg311
I1
sg73
S'Aluminium Power Bondwire 0.3x0.2mm'
p524
sg127
I2
sg313
F0.25
sg128
(ipowercad.design.library_structures
MaterialProperties
p525
(dp526
g73
S'Aluminium'
p527
sg133
Nsg135
F3e-08
sg134
Nsg131
Nsg136
Nsg137
Nsbsg139
(F0.3
F0.2
tp528
sbsg100
(lp529
sg94
Nsbag507
asg24
g5
(g110
g7
Ntp530
Rp531
(dp532
g66
S'M12'
p533
sg73
Nsg115
(F9.0
F7.0
tp534
sbsg73
g533
sg76
Nsg38
I5
sg117
g200
sg77
g5
(g110
g7
Ntp535
Rp536
(dp537
g66
g533
sg73
Nsg115
(I9
I7
tp538
sbsg122
(lp539
sg83
g371
sg141
Nsg142
Nsg143
Nsbsg57
Nsg58
(dp540
sg60
(lp541
sg76
Nsg75
Nsg84
Nsg77
Nsg83
(ipowercad.design.library_structures
BondWire
p542
(dp543
g310
F0.2
sg311
I2
sg73
S'Aluminium Signal Bondwire 0.1mm'
p544
sg127
I1
sg313
F0.125
sg128
(ipowercad.design.library_structures
MaterialProperties
p545
(dp546
g73
S'Aluminium'
p547
sg133
Nsg135
F3e-08
sg134
Nsg131
Nsg136
Nsg137
Nsbsg139
F0.1
sbsg100
(lp548
sg94
Nsbasg75
Nsg27
Nsg76
Nsg28
Nsg77
g5
(g62
g7
Ntp549
Rp550
(dp551
g66
g288
sg68
I01
sg69
(I8
I8
tp552
sg71
(I8
I4
tp553
sbsg83
Nsg29
I01
sg84
Nsg85
(ipowercad.general.data_struct.util
Rect
p554
(dp555
g88
F0.0
sg89
F0.0
sg90
F0.0
sg91
F0.0
sg92
F0.0
sg93
F0.0
sbsg94
g5
(g62
g7
Ntp556
Rp557
(dp558
g66
g288
sg71
(I7
I4
tp559
sg69
(I7
I5
tp560
sg68
I01
sbsg30
Nsg31
Nsg100
(lp561
sbsg85
Nsg38
Nsg55
Nsg56
g256
sg57
Nsg58
(dp562
sg60
(lp563
sg76
Nsg75
Nsg84
Nsg77
Nsg83
(ipowercad.design.library_structures
BondWire
p564
(dp565
g310
F0.2
sg311
I2
sg73
S'Aluminium Signal Bondwire 0.1mm'
p566
sg127
I1
sg313
F0.125
sg128
(ipowercad.design.library_structures
MaterialProperties
p567
(dp568
g73
S'Aluminium'
p569
sg133
Nsg135
F3e-08
sg134
Nsg131
Nsg136
Nsg137
Nsbsg139
F0.1
sbsg100
(lp570
sg94
Nsbasg24
g5
(g110
g7
Ntp571
Rp572
(dp573
g66
S'M7'
p574
sg73
Nsg115
(F7.0
F5.0
tp575
sbsg73
g574
sg76
Nsg38
I9
sg117
g325
sg77
g5
(g110
g7
Ntp576
Rp577
(dp578
g66
g574
sg73
Nsg115
(I7
I5
tp579
sbsg122
(lp580
sg83
g371
sg141
Nsg142
Nsg143
Nsbsg57
Nsg58
(dp581
sg60
(lp582
sg76
Nsg75
Nsg84
Nsg77
Nsg83
(ipowercad.design.library_structures
BondWire
p583
(dp584
g310
F0.4
sg311
I1
sg73
S'Aluminium Power Bondwire 0.3x0.2mm'
p585
sg127
I2
sg313
F0.25
sg128
(ipowercad.design.library_structures
MaterialProperties
p586
(dp587
g73
S'Aluminium'
p588
sg133
Nsg135
F3e-08
sg134
Nsg131
Nsg136
Nsg137
Nsbsg139
(F0.3
F0.2
tp589
sbsg100
(lp590
sg94
Nsbag302
ag333
asg75
Nsg27
Nsg76
Nsg28
Nsg77
g5
(g62
g7
Ntp591
Rp592
(dp593
g66
g246
sg68
I01
sg69
(I6
I9
tp594
sg71
(I6
I3
tp595
sbsg83
Nsg29
I01
sg84
Nsg85
(ipowercad.general.data_struct.util
Rect
p596
(dp597
g88
F0.0
sg89
F0.0
sg90
F0.0
sg91
F0.0
sg92
F0.0
sg93
F0.0
sbsg94
g5
(g62
g7
Ntp598
Rp599
(dp600
g66
g246
sg71
(I5
I3
tp601
sg69
(I5
I6
tp602
sg68
I01
sbsg30
Nsg31
Nsg100
(lp603
sbasg55
Nsg56
Nsg57
Nsg21
Nsg58
(dp604
sg60
(lp605
sg22
Nsg23
I00
sg24
g5
(g62
g7
Ntp606
Rp607
(dp608
g66
S'Tb'
p609
sg68
I00
sg69
(F10.0
F9.0
tp610
sg71
(F6.0
F9.0
tp611
sbsg73
g609
sg25
(lp612
sg75
Nsg27
Nsg76
Nsg28
Nsg77
g5
(g62
g7
Ntp613
Rp614
(dp615
g66
g609
sg68
I00
sg69
(I10
I9
tp616
sg71
(I6
I9
tp617
sbsg83
Nsg29
I01
sg84
Nsg85
(ipowercad.general.data_struct.util
Rect
p618
(dp619
g88
F0.0
sg89
F0.0
sg90
F0.0
sg91
F0.0
sg92
F0.0
sg93
F0.0
sbsg94
g5
(g62
g7
Ntp620
Rp621
(dp622
g66
g609
sg71
(I5
I6
tp623
sg69
(I9
I6
tp624
sg68
I00
sbsg30
Nsg31
Nsg100
(lp625
sbasg55
Nsg56
Nsg57
Nsg21
Nsg58
(dp626
sg60
(lp627
sg22
Nsg23
I00
sg24
g5
(g62
g7
Ntp628
Rp629
(dp630
g66
S'Ti'
p631
sg68
I01
sg69
(F10.0
F9.0
tp632
sg71
(F10.0
F3.0
tp633
sbsg73
g631
sg25
(lp634
g208
ag473
ag516
asg75
Nsg27
Nsg76
Nsg28
Nsg77
g5
(g62
g7
Ntp635
Rp636
(dp637
g66
g631
sg68
I01
sg69
(I10
I9
tp638
sg71
(I10
I3
tp639
sbsg83
Nsg29
I01
sg84
Nsg85
(ipowercad.general.data_struct.util
Rect
p640
(dp641
g88
F0.0
sg89
F0.0
sg90
F0.0
sg91
F0.0
sg92
F0.0
sg93
F0.0
sbsg94
g5
(g62
g7
Ntp642
Rp643
(dp644
g66
g631
sg71
(I9
I3
tp645
sg69
(I9
I6
tp646
sg68
I01
sbsg30
Nsg31
Nsg100
(lp647
sbsg85
Nsg38
Nsg55
Nsg56
g204
sg57
Nsg58
(dp648
sg60
(lp649
sg76
Nsg75
Nsg84
Nsg77
Nsg83
(ipowercad.design.library_structures
BondWire
p650
(dp651
g310
F0.4
sg311
I1
sg73
S'Aluminium Power Bondwire 0.3x0.2mm'
p652
sg127
I2
sg313
F0.25
sg128
(ipowercad.design.library_structures
MaterialProperties
p653
(dp654
g73
S'Aluminium'
p655
sg133
Nsg135
F3e-08
sg134
Nsg131
Nsg136
Nsg137
Nsbsg139
(F0.3
F0.2
tp656
sbsg100
(lp657
sg94
Nsbag450
asg24
g5
(g110
g7
Ntp658
Rp659
(dp660
g66
S'M10'
p661
sg73
Nsg115
(F9.0
F5.0
tp662
sbsg73
g661
sg76
Nsg38
I3
sg117
g200
sg77
g5
(g110
g7
Ntp663
Rp664
(dp665
g66
g661
sg73
Nsg115
(I9
I5
tp666
sbsg122
(lp667
sg83
g371
sg141
Nsg142
Nsg143
Nsbag469
ag512
asg33
Nsg18
Nsg38
I11
sg19
(lp668
sg55
Nsg56
Nsg57
Nsg21
Nsg58
(dp669
sg60
(lp670
(g413
I1
tp671
asg22
Nsg23
I00
sg24
g5
(g62
g7
Ntp672
Rp673
(dp674
g66
S'Tj'
p675
sg68
I01
sg69
(F9.0
F8.0
tp676
sg71
(F9.0
F3.0
tp677
sbsg73
g675
sg25
(lp678
sg75
Nsg27
Nsg76
Nsg28
Nsg77
g5
(g62
g7
Ntp679
Rp680
(dp681
g66
g675
sg68
I01
sg69
(I9
I8
tp682
sg71
(I9
I3
tp683
sbsg83
Nsg29
I01
sg84
Nsg85
(ipowercad.general.data_struct.util
Rect
p684
(dp685
g88
F0.0
sg89
F0.0
sg90
F0.0
sg91
F0.0
sg92
F0.0
sg93
F0.0
sbsg94
g5
(g62
g7
Ntp686
Rp687
(dp688
g66
g675
sg71
(I8
I3
tp689
sg69
(I8
I5
tp690
sg68
I01
sbsg30
Nsg31
Nsg100
(lp691
sbI1
tp692
a(g103
I2
tp693
a(g325
I1
tp694
asbasg55
Nsg56
Nsg57
Nsg21
Nsg58
(dp695
sg60
(lp696
((g46
g51
(I1
I3
tp697
(I0
I3
tp698
tp699
I1
tp700
a(g413
I2
tp701
asg22
Nsg23
I00
sg24
g5
(g62
g7
Ntp702
Rp703
(dp704
g66
S'Tq'
p705
sg68
I00
sg69
(F9.0
F0.0
tp706
sg71
(F1.0
F0.0
tp707
sbsg73
g705
sg25
(lp708
sg75
Nsg27
Nsg76
Nsg28
Nsg77
g5
(g62
g7
Ntp709
Rp710
(dp711
g66
g705
sg68
I00
sg69
(I9
I0
tp712
sg71
(I1
I0
tp713
sbsg83
Nsg29
I01
sg84
Nsg85
(ipowercad.general.data_struct.util
Rect
p714
(dp715
g88
F0.0
sg89
F0.0
sg90
F0.0
sg91
F0.0
sg92
F0.0
sg93
F0.0
sbsg94
g5
(g62
g7
Ntp716
Rp717
(dp718
g66
g705
sg71
(I1
I0
tp719
sg69
(I8
I0
tp720
sg68
I00
sbsg30
Nsg31
Nsg100
(lp721
sbasg55
g51
sg56
Nsg57
Nsg21
Nsg58
(dp722
g41
I1
ssg60
(lp723
sg22
Nsg23
I00
sg24
g5
(g62
g7
Ntp724
Rp725
(dp726
g66
S'Td'
p727
sg68
I01
sg69
(F2.0
F3.0
tp728
sg71
(F2.0
F0.0
tp729
sbsg73
g727
sg25
(lp730
sg75
Nsg27
Nsg76
Nsg28
Nsg77
g5
(g62
g7
Ntp731
Rp732
(dp733
g66
g727
sg68
I01
sg69
(I2
I3
tp734
sg71
(I2
I0
tp735
sbsg83
Nsg29
I01
sg84
Nsg85
(ipowercad.general.data_struct.util
Rect
p736
(dp737
g88
F0.0
sg89
F0.0
sg90
F0.0
sg91
F0.0
sg92
F0.0
sg93
F0.0
sbsg94
g5
(g62
g7
Ntp738
Rp739
(dp740
g66
g727
sg71
(I2
I0
tp741
sg69
(I2
I3
tp742
sg68
I01
sbsg30
Nsg31
Nsg100
(lp743
(g41
I4
tp744
a(g103
I1
tp745
asbag5
(g14
g7
Ntp746
Rp747
(dp748
g32
(lp749
sg33
Nsg18
Nsg38
I6
sg19
(lp750
g41
asg55
Nsg56
Nsg57
Nsg21
Nsg58
(dp751
sg60
(lp752
sg22
Nsg23
I00
sg24
g5
(g62
g7
Ntp753
Rp754
(dp755
g66
S'Tp'
p756
sg68
I01
sg69
(F4.0
F8.0
tp757
sg71
(F4.0
F3.0
tp758
sbsg73
g756
sg25
(lp759
g5
(g14
g7
Ntp760
Rp761
(dp762
g18
I2
sg19
(lp763
sg21
I1
sg22
Nsg23
I01
sg24
Nsg25
(lp764
sg27
Nsg28
Nsg29
I01
sg30
Nsg31
F0.1
sg32
Nsg33
g747
sg85
Nsg38
Nsg55
Nsg56
g5
(g6
g7
Ntp765
Rp766
(dp767
g11
Nsg12
(lp768
g761
ag5
(g14
g7
Ntp769
Rp770
(dp771
g18
I2
sg19
(lp772
sg21
I2
sg22
Nsg23
I01
sg24
Nsg25
(lp773
sg27
Nsg28
Nsg29
I01
sg30
Nsg31
F0.1
sg32
Nsg33
g5
(g14
g7
Ntp774
Rp775
(dp776
g32
(lp777
g5
(g6
g7
Ntp778
Rp779
(dp780
g11
Nsg12
(lp781
sg24
g5
(g110
g7
Ntp782
Rp783
(dp784
g66
S'L4'
p785
sg73
Nsg115
(F2.0
F6.0
tp786
sbsg73
g785
sg76
Nsg38
Nsg117
g775
sg77
g5
(g110
g7
Ntp787
Rp788
(dp789
g66
g785
sg73
Nsg115
(I2
I6
tp790
sbsg122
(lp791
sg83
g124
sg141
Nsg142
Nsg143
Nsbasg33
Nsg18
Nsg38
I4
sg19
(lp792
sg55
Nsg56
Nsg57
Nsg21
Nsg58
(dp793
sg60
(lp794
sg22
Nsg23
I00
sg24
g5
(g62
g7
Ntp795
Rp796
(dp797
g66
S'Tr'
p798
sg68
I01
sg69
(F2.0
F8.0
tp799
sg71
(F2.0
F4.0
tp800
sbsg73
g798
sg25
(lp801
g5
(g14
g7
Ntp802
Rp803
(dp804
g18
I2
sg19
(lp805
sg21
I2
sg22
Nsg23
I01
sg24
Nsg25
(lp806
sg27
Nsg28
Nsg29
I01
sg30
Nsg31
F0.1
sg32
Nsg33
g775
sg85
Nsg38
Nsg55
Nsg56
g9
sg57
Nsg58
(dp807
sg60
(lp808
sg76
Nsg75
Nsg84
Nsg77
Nsg83
(ipowercad.design.library_structures
BondWire
p809
(dp810
g310
F0.2
sg311
I2
sg73
S'Aluminium Signal Bondwire 0.1mm'
p811
sg127
I1
sg313
F0.125
sg128
(ipowercad.design.library_structures
MaterialProperties
p812
(dp813
g73
S'Aluminium'
p814
sg133
Nsg135
F3e-08
sg134
Nsg131
Nsg136
Nsg137
Nsbsg139
F0.1
sbsg100
(lp815
sg94
Nsbag5
(g14
g7
Ntp816
Rp817
(dp818
g18
I2
sg19
(lp819
sg21
I2
sg22
Nsg23
I01
sg24
Nsg25
(lp820
sg27
Nsg28
Nsg29
I01
sg30
Nsg31
F0.1
sg32
Nsg33
g775
sg85
Nsg38
Nsg55
Nsg56
g5
(g6
g7
Ntp821
Rp822
(dp823
g11
Nsg12
(lp824
g5
(g14
g7
Ntp825
Rp826
(dp827
g18
I2
sg19
(lp828
sg21
I1
sg22
Nsg23
I01
sg24
Nsg25
(lp829
sg27
Nsg28
Nsg29
I01
sg30
Nsg31
F0.1
sg32
Nsg33
g35
sg85
Nsg38
Nsg55
Nsg56
g822
sg57
Nsg58
(dp830
sg60
(lp831
sg76
Nsg75
Nsg84
Nsg77
Nsg83
(ipowercad.design.library_structures
BondWire
p832
(dp833
g310
F0.4
sg311
I1
sg73
S'Aluminium Power Bondwire 0.3x0.2mm'
p834
sg127
I2
sg313
F0.25
sg128
(ipowercad.design.library_structures
MaterialProperties
p835
(dp836
g73
S'Aluminium'
p837
sg133
Nsg135
F3e-08
sg134
Nsg131
Nsg136
Nsg137
Nsbsg139
(F0.3
F0.2
tp838
sbsg100
(lp839
sg94
Nsbag817
asg24
g5
(g110
g7
Ntp840
Rp841
(dp842
g66
S'M2'
p843
sg73
Nsg115
(F1.0
F6.0
tp844
sbsg73
g843
sg76
Nsg38
I1
sg117
g5
(g14
g7
Ntp845
Rp846
(dp847
g32
(lp848
g9
ag822
ag5
(g6
g7
Ntp849
Rp850
(dp851
g11
Nsg12
(lp852
g5
(g14
g7
Ntp853
Rp854
(dp855
g18
I2
sg19
(lp856
sg21
I1
sg22
Nsg23
I01
sg24
Nsg25
(lp857
sg27
Nsg28
Nsg29
I01
sg30
Nsg31
F0.1
sg32
Nsg33
g35
sg85
Nsg38
Nsg55
Nsg56
g850
sg57
Nsg58
(dp858
sg60
(lp859
sg76
Nsg75
Nsg84
Nsg77
Nsg83
(ipowercad.design.library_structures
BondWire
p860
(dp861
g310
F0.4
sg311
I1
sg73
S'Aluminium Power Bondwire 0.3x0.2mm'
p862
sg127
I2
sg313
F0.25
sg128
(ipowercad.design.library_structures
MaterialProperties
p863
(dp864
g73
S'Aluminium'
p865
sg133
Nsg135
F3e-08
sg134
Nsg131
Nsg136
Nsg137
Nsbsg139
(F0.3
F0.2
tp866
sbsg100
(lp867
sg94
Nsbag5
(g14
g7
Ntp868
Rp869
(dp870
g18
I2
sg19
(lp871
sg21
I2
sg22
Nsg23
I01
sg24
Nsg25
(lp872
sg27
Nsg28
Nsg29
I01
sg30
Nsg31
F0.1
sg32
Nsg33
g775
sg85
Nsg38
Nsg55
Nsg56
g850
sg57
Nsg58
(dp873
sg60
(lp874
sg76
Nsg75
Nsg84
Nsg77
Nsg83
(ipowercad.design.library_structures
BondWire
p875
(dp876
g310
F0.2
sg311
I2
sg73
S'Aluminium Signal Bondwire 0.1mm'
p877
sg127
I1
sg313
F0.125
sg128
(ipowercad.design.library_structures
MaterialProperties
p878
(dp879
g73
S'Aluminium'
p880
sg133
Nsg135
F3e-08
sg134
Nsg131
Nsg136
Nsg137
Nsbsg139
F0.1
sbsg100
(lp881
sg94
Nsbasg24
g5
(g110
g7
Ntp882
Rp883
(dp884
g66
S'M3'
p885
sg73
Nsg115
(F1.0
F7.0
tp886
sbsg73
g885
sg76
Nsg38
I2
sg117
g846
sg77
g5
(g110
g7
Ntp887
Rp888
(dp889
g66
g885
sg73
Nsg115
(I1
I7
tp890
sbsg122
(lp891
sg83
g371
sg141
Nsg142
Nsg143
Nsbasg33
Nsg18
Nsg38
I2
sg19
(lp892
g5
(g14
g7
Ntp893
Rp894
(dp895
g32
(lp896
g5
(g6
g7
Ntp897
Rp898
(dp899
g11
Nsg12
(lp900
sg24
g5
(g110
g7
Ntp901
Rp902
(dp903
g66
S'L1'
p904
sg73
Nsg115
(F2.0
F9.0
tp905
sbsg73
g904
sg76
Nsg38
Nsg117
g894
sg77
g5
(g110
g7
Ntp906
Rp907
(dp908
g66
g904
sg73
Nsg115
(I2
I9
tp909
sbsg122
(lp910
sg83
g124
sg141
Nsg142
Nsg143
Nsbasg33
Nsg18
Nsg38
I8
sg19
(lp911
g846
ag5
(g14
g7
Ntp912
Rp913
(dp914
g32
(lp915
g766
ag5
(g6
g7
Ntp916
Rp917
(dp918
g11
Nsg12
(lp919
g5
(g14
g7
Ntp920
Rp921
(dp922
g18
I2
sg19
(lp923
sg21
I1
sg22
Nsg23
I01
sg24
Nsg25
(lp924
sg27
Nsg28
Nsg29
I01
sg30
Nsg31
F0.1
sg32
Nsg33
g747
sg85
Nsg38
Nsg55
Nsg56
g917
sg57
Nsg58
(dp925
sg60
(lp926
sg76
Nsg75
Nsg84
Nsg77
Nsg83
(ipowercad.design.library_structures
BondWire
p927
(dp928
g310
F0.4
sg311
I1
sg73
S'Aluminium Power Bondwire 0.3x0.2mm'
p929
sg127
I2
sg313
F0.25
sg128
(ipowercad.design.library_structures
MaterialProperties
p930
(dp931
g73
S'Aluminium'
p932
sg133
Nsg135
F3e-08
sg134
Nsg131
Nsg136
Nsg137
Nsbsg139
(F0.3
F0.2
tp933
sbsg100
(lp934
sg94
Nsbag5
(g14
g7
Ntp935
Rp936
(dp937
g18
I2
sg19
(lp938
sg21
I2
sg22
Nsg23
I01
sg24
Nsg25
(lp939
sg27
Nsg28
Nsg29
I01
sg30
Nsg31
F0.1
sg32
Nsg33
g775
sg85
Nsg38
Nsg55
Nsg56
g917
sg57
Nsg58
(dp940
sg60
(lp941
sg76
Nsg75
Nsg84
Nsg77
Nsg83
(ipowercad.design.library_structures
BondWire
p942
(dp943
g310
F0.2
sg311
I2
sg73
S'Aluminium Signal Bondwire 0.1mm'
p944
sg127
I1
sg313
F0.125
sg128
(ipowercad.design.library_structures
MaterialProperties
p945
(dp946
g73
S'Aluminium'
p947
sg133
Nsg135
F3e-08
sg134
Nsg131
Nsg136
Nsg137
Nsbsg139
F0.1
sbsg100
(lp948
sg94
Nsbasg24
g5
(g110
g7
Ntp949
Rp950
(dp951
g66
S'M5'
p952
sg73
Nsg115
(F3.0
F6.0
tp953
sbsg73
g952
sg76
Nsg38
I7
sg117
g913
sg77
g5
(g110
g7
Ntp954
Rp955
(dp956
g66
g952
sg73
Nsg115
(I3
I6
tp957
sbsg122
(lp958
sg83
g371
sg141
Nsg142
Nsg143
Nsbag5
(g6
g7
Ntp959
Rp960
(dp961
g11
Nsg12
(lp962
g5
(g14
g7
Ntp963
Rp964
(dp965
g18
I2
sg19
(lp966
sg21
I1
sg22
Nsg23
I01
sg24
Nsg25
(lp967
sg27
Nsg28
Nsg29
I01
sg30
Nsg31
F0.1
sg32
Nsg33
g747
sg85
Nsg38
Nsg55
Nsg56
g960
sg57
Nsg58
(dp968
sg60
(lp969
sg76
Nsg75
Nsg84
Nsg77
Nsg83
(ipowercad.design.library_structures
BondWire
p970
(dp971
g310
F0.4
sg311
I1
sg73
S'Aluminium Power Bondwire 0.3x0.2mm'
p972
sg127
I2
sg313
F0.25
sg128
(ipowercad.design.library_structures
MaterialProperties
p973
(dp974
g73
S'Aluminium'
p975
sg133
Nsg135
F3e-08
sg134
Nsg131
Nsg136
Nsg137
Nsbsg139
(F0.3
F0.2
tp976
sbsg100
(lp977
sg94
Nsbag5
(g14
g7
Ntp978
Rp979
(dp980
g18
I2
sg19
(lp981
sg21
I2
sg22
Nsg23
I01
sg24
Nsg25
(lp982
sg27
Nsg28
Nsg29
I01
sg30
Nsg31
F0.1
sg32
Nsg33
g775
sg85
Nsg38
Nsg55
Nsg56
g960
sg57
Nsg58
(dp983
sg60
(lp984
sg76
Nsg75
Nsg84
Nsg77
Nsg83
(ipowercad.design.library_structures
BondWire
p985
(dp986
g310
F0.2
sg311
I2
sg73
S'Aluminium Signal Bondwire 0.1mm'
p987
sg127
I1
sg313
F0.125
sg128
(ipowercad.design.library_structures
MaterialProperties
p988
(dp989
g73
S'Aluminium'
p990
sg133
Nsg135
F3e-08
sg134
Nsg131
Nsg136
Nsg137
Nsbsg139
F0.1
sbsg100
(lp991
sg94
Nsbasg24
g5
(g110
g7
Ntp992
Rp993
(dp994
g66
S'M6'
p995
sg73
Nsg115
(F3.0
F7.0
tp996
sbsg73
g995
sg76
Nsg38
I8
sg117
g913
sg77
g5
(g110
g7
Ntp997
Rp998
(dp999
g66
g995
sg73
Nsg115
(I3
I7
tp1000
sbsg122
(lp1001
sg83
g371
sg141
Nsg142
Nsg143
Nsbasg33
Nsg18
Nsg38
I5
sg19
(lp1002
g894
asg55
Nsg56
Nsg57
Nsg21
Nsg58
(dp1003
sg60
(lp1004
sg22
Nsg23
I00
sg24
g5
(g62
g7
Ntp1005
Rp1006
(dp1007
g66
S'Tn'
p1008
sg68
I01
sg69
(F3.0
F9.0
tp1009
sg71
(F3.0
F4.0
tp1010
sbsg73
g1008
sg25
(lp1011
sg75
Nsg27
Nsg76
Nsg28
Nsg77
g5
(g62
g7
Ntp1012
Rp1013
(dp1014
g66
g1008
sg68
I01
sg69
(I3
I9
tp1015
sg71
(I3
I4
tp1016
sbsg83
Nsg29
I01
sg84
Nsg85
(ipowercad.general.data_struct.util
Rect
p1017
(dp1018
g88
F0.0
sg89
F0.0
sg90
F0.0
sg91
F0.0
sg92
F0.0
sg93
F0.0
sbsg94
g5
(g62
g7
Ntp1019
Rp1020
(dp1021
g66
g1008
sg71
(I3
I4
tp1022
sg69
(I3
I6
tp1023
sg68
I01
sbsg30
Nsg31
Nsg100
(lp1024
sbasg55
Nsg56
Nsg57
Nsg21
Nsg58
(dp1025
sg60
(lp1026
sg22
Nsg23
I00
sg24
g5
(g62
g7
Ntp1027
Rp1028
(dp1029
g66
S'Tl'
p1030
sg68
I00
sg69
(F4.0
F9.0
tp1031
sg71
(F0.0
F9.0
tp1032
sbsg73
g1030
sg25
(lp1033
sg75
Nsg27
Nsg76
Nsg28
Nsg77
g5
(g62
g7
Ntp1034
Rp1035
(dp1036
g66
g1030
sg68
I00
sg69
(I4
I9
tp1037
sg71
(I0
I9
tp1038
sbsg83
Nsg29
I01
sg84
Nsg85
(ipowercad.general.data_struct.util
Rect
p1039
(dp1040
g88
F0.0
sg89
F0.0
sg90
F0.0
sg91
F0.0
sg92
F0.0
sg93
F0.0
sbsg94
g5
(g62
g7
Ntp1041
Rp1042
(dp1043
g66
g1030
sg71
(I0
I6
tp1044
sg69
(I4
I6
tp1045
sg68
I00
sbsg30
Nsg31
Nsg100
(lp1046
sbasg55
Nsg56
Nsg57
Nsg21
Nsg58
(dp1047
sg60
(lp1048
sg22
Nsg23
I00
sg24
g5
(g62
g7
Ntp1049
Rp1050
(dp1051
g66
S'Te'
p1052
sg68
I01
sg69
(F1.0
F9.0
tp1053
sg71
(F1.0
F4.0
tp1054
sbsg73
g1052
sg25
(lp1055
sg75
Nsg27
Nsg76
Nsg28
Nsg77
g5
(g62
g7
Ntp1056
Rp1057
(dp1058
g66
g1052
sg68
I01
sg69
(I1
I9
tp1059
sg71
(I1
I4
tp1060
sbsg83
Nsg29
I01
sg84
Nsg85
(ipowercad.general.data_struct.util
Rect
p1061
(dp1062
g88
F0.0
sg89
F0.0
sg90
F0.0
sg91
F0.0
sg92
F0.0
sg93
F0.0
sbsg94
g5
(g62
g7
Ntp1063
Rp1064
(dp1065
g66
g1052
sg71
(I1
I4
tp1066
sg69
(I1
I6
tp1067
sg68
I01
sbsg30
Nsg31
Nsg100
(lp1068
sbsg77
g5
(g110
g7
Ntp1069
Rp1070
(dp1071
g66
g843
sg73
Nsg115
(I1
I6
tp1072
sbsg122
(lp1073
sg83
g371
sg141
Nsg142
Nsg143
Nsbsg57
Nsg58
(dp1074
sg60
(lp1075
sg76
Nsg75
Nsg84
Nsg77
Nsg83
(ipowercad.design.library_structures
BondWire
p1076
(dp1077
g310
F0.2
sg311
I2
sg73
S'Aluminium Signal Bondwire 0.1mm'
p1078
sg127
I1
sg313
F0.125
sg128
(ipowercad.design.library_structures
MaterialProperties
p1079
(dp1080
g73
S'Aluminium'
p1081
sg133
Nsg135
F3e-08
sg134
Nsg131
Nsg136
Nsg137
Nsbsg139
F0.1
sbsg100
(lp1082
sg94
Nsbag869
ag770
ag936
ag979
asg75
Nsg27
Nsg76
Nsg28
Nsg77
g5
(g62
g7
Ntp1083
Rp1084
(dp1085
g66
g798
sg68
I01
sg69
(I2
I8
tp1086
sg71
(I2
I4
tp1087
sbsg83
Nsg29
I01
sg84
Nsg85
(ipowercad.general.data_struct.util
Rect
p1088
(dp1089
g88
F0.0
sg89
F0.0
sg90
F0.0
sg91
F0.0
sg92
F0.0
sg93
F0.0
sbsg94
g5
(g62
g7
Ntp1090
Rp1091
(dp1092
g66
g798
sg71
(I2
I4
tp1093
sg69
(I2
I5
tp1094
sg68
I01
sbsg30
Nsg31
Nsg100
(lp1095
sbsg85
Nsg38
Nsg55
Nsg56
g766
sg57
Nsg58
(dp1096
sg60
(lp1097
sg76
Nsg75
Nsg84
Nsg77
Nsg83
(ipowercad.design.library_structures
BondWire
p1098
(dp1099
g310
F0.2
sg311
I2
sg73
S'Aluminium Signal Bondwire 0.1mm'
p1100
sg127
I1
sg313
F0.125
sg128
(ipowercad.design.library_structures
MaterialProperties
p1101
(dp1102
g73
S'Aluminium'
p1103
sg133
Nsg135
F3e-08
sg134
Nsg131
Nsg136
Nsg137
Nsbsg139
F0.1
sbsg100
(lp1104
sg94
Nsbasg24
g5
(g110
g7
Ntp1105
Rp1106
(dp1107
g66
S'M4'
p1108
sg73
Nsg115
(F3.0
F5.0
tp1109
sbsg73
g1108
sg76
Nsg38
I6
sg117
g913
sg77
g5
(g110
g7
Ntp1110
Rp1111
(dp1112
g66
g1108
sg73
Nsg115
(I3
I5
tp1113
sbsg122
(lp1114
sg83
g371
sg141
Nsg142
Nsg143
Nsbsg57
Nsg58
(dp1115
sg60
(lp1116
sg76
Nsg75
Nsg84
Nsg77
Nsg83
(ipowercad.design.library_structures
BondWire
p1117
(dp1118
g310
F0.4
sg311
I1
sg73
S'Aluminium Power Bondwire 0.3x0.2mm'
p1119
sg127
I2
sg313
F0.25
sg128
(ipowercad.design.library_structures
MaterialProperties
p1120
(dp1121
g73
S'Aluminium'
p1122
sg133
Nsg135
F3e-08
sg134
Nsg131
Nsg136
Nsg137
Nsbsg139
(F0.3
F0.2
tp1123
sbsg100
(lp1124
sg94
Nsbag921
ag964
asg75
Nsg27
Nsg76
Nsg28
Nsg77
g5
(g62
g7
Ntp1125
Rp1126
(dp1127
g66
g756
sg68
I01
sg69
(I4
I8
tp1128
sg71
(I4
I3
tp1129
sbsg83
Nsg29
I01
sg84
Nsg85
(ipowercad.general.data_struct.util
Rect
p1130
(dp1131
g88
F0.0
sg89
F0.0
sg90
F0.0
sg91
F0.0
sg92
F0.0
sg93
F0.0
sbsg94
g5
(g62
g7
Ntp1132
Rp1133
(dp1134
g66
g756
sg71
(I4
I3
tp1135
sg69
(I4
I5
tp1136
sg68
I01
sbsg30
Nsg31
Nsg100
(lp1137
sbasg55
Nsg56
Nsg57
Nsg21
Nsg58
(dp1138
sg60
(lp1139
(g699
I4
tp1140
asg22
Nsg23
I00
sg24
g5
(g62
g7
Ntp1141
Rp1142
(dp1143
g66
S'Th'
p1144
sg68
I00
sg69
(F4.0
F3.0
tp1145
sg71
(F0.0
F3.0
tp1146
sbsg73
g1144
sg25
(lp1147
sg75
Nsg27
Nsg76
Nsg28
Nsg77
g5
(g62
g7
Ntp1148
Rp1149
(dp1150
g66
g1144
sg68
I00
sg69
(I4
I3
tp1151
sg71
(I0
I3
tp1152
sbsg83
Nsg29
I01
sg84
Nsg85
(ipowercad.general.data_struct.util
Rect
p1153
(dp1154
g88
F0.0
sg89
F0.0
sg90
F0.0
sg91
F0.0
sg92
F0.0
sg93
F0.0
sbsg94
g5
(g62
g7
Ntp1155
Rp1156
(dp1157
g66
g1144
sg71
(I0
I3
tp1158
sg69
(I4
I3
tp1159
sg68
I00
sbsg30
Nsg31
Nsg100
(lp1160
sbasg55
Nsg56
Nsg57
Nsg21
Nsg58
(dp1161
sg60
(lp1162
sg22
Nsg23
I00
sg24
g5
(g62
g7
Ntp1163
Rp1164
(dp1165
g66
S'Tc'
p1166
sg68
I01
sg69
(F0.0
F8.0
tp1167
sg71
(F0.0
F3.0
tp1168
sbsg73
g1166
sg25
(lp1169
g854
ag826
ag16
asg75
Nsg27
Nsg76
Nsg28
Nsg77
g5
(g62
g7
Ntp1170
Rp1171
(dp1172
g66
g1166
sg68
I01
sg69
(I0
I8
tp1173
sg71
(I0
I3
tp1174
sbsg83
Nsg29
I01
sg84
Nsg85
(ipowercad.general.data_struct.util
Rect
p1175
(dp1176
g88
F0.0
sg89
F0.0
sg90
F0.0
sg91
F0.0
sg92
F0.0
sg93
F0.0
sbsg94
g5
(g62
g7
Ntp1177
Rp1178
(dp1179
g66
g1166
sg71
(I0
I3
tp1180
sg69
(I0
I5
tp1181
sg68
I01
sbsg30
Nsg31
Nsg100
(lp1182
sbsg85
Nsg38
Nsg55
Nsg56
g9
sg57
Nsg58
(dp1183
sg60
(lp1184
sg76
Nsg75
Nsg84
Nsg77
Nsg83
(ipowercad.design.library_structures
BondWire
p1185
(dp1186
g310
F0.4
sg311
I1
sg73
S'Aluminium Power Bondwire 0.3x0.2mm'
p1187
sg127
I2
sg313
F0.25
sg128
(ipowercad.design.library_structures
MaterialProperties
p1188
(dp1189
g73
S'Aluminium'
p1190
sg133
Nsg135
F3e-08
sg134
Nsg131
Nsg136
Nsg137
Nsbsg139
(F0.3
F0.2
tp1191
sbsg100
(lp1192
sg94
Nsbag803
asg24
g5
(g110
g7
Ntp1193
Rp1194
(dp1195
g66
S'M1'
p1196
sg73
Nsg115
(F1.0
F5.0
tp1197
sbsg73
g1196
sg76
Nsg38
I0
sg117
g846
sg77
g5
(g110
g7
Ntp1198
Rp1199
(dp1200
g66
g1196
sg73
Nsg115
(I1
I5
tp1201
sbsg122
(lp1202
sg83
g371
sg141
Nsg142
Nsg143
Nsbag822
ag850
ag766
ag917
ag960
asS'perf_table'
p1203
(dp1204
S'1'
p1205
(dp1206
S'type'
p1207
S'Electrical'
p1208
sS'Eval'
p1209
S'Inductance'
p1210
sS'measure'
p1211
g5
(cpowercad.sym_layout.symbolic_layout
ElectricalMeasure
p1212
g7
Ntp1213
Rp1214
(dp1215
S'sink_term'
p1216
Nsg73
g1205
sS'mdl'
p1217
S'MS'
p1218
sS'src_term'
p1219
NsS'lines'
p1220
NsS'dev_state'
p1221
g5
(cpandas.core.frame
DataFrame
p1222
g7
Ntp1223
Rp1224
(dp1225
S'_metadata'
p1226
(lp1227
sS'_typ'
p1228
S'dataframe'
p1229
sS'_data'
p1230
g5
(cpandas.core.internals
BlockManager
p1231
g7
Ntp1232
Rp1233
((lp1234
cpandas.core.indexes.base
_new_Index
p1235
(cpandas.core.indexes.numeric
Int64Index
p1236
(dp1237
S'data'
p1238
cnumpy.core.multiarray
_reconstruct
p1239
(cnumpy
ndarray
p1240
(I0
tp1241
g313
tp1242
Rp1243
(I1
(I4
tp1244
cnumpy
dtype
p1245
(S'i8'
p1246
I0
I1
tp1247
Rp1248
(I3
S'<'
p1249
NNNI-1
I-1
I0
tp1250
bI00
S'\x00\x00\x00\x00\x00\x00\x00\x00\x01\x00\x00\x00\x00\x00\x00\x00\x02\x00\x00\x00\x00\x00\x00\x00\x03\x00\x00\x00\x00\x00\x00\x00'
p1251
tp1252
bsg73
Nstp1253
Rp1254
ag1235
(g1236
(dp1255
g1238
g1239
(g1240
(I0
tp1256
g313
tp1257
Rp1258
(I1
(I12
tp1259
g1248
I00
S'\x00\x00\x00\x00\x00\x00\x00\x00\x01\x00\x00\x00\x00\x00\x00\x00\x02\x00\x00\x00\x00\x00\x00\x00\x03\x00\x00\x00\x00\x00\x00\x00\x04\x00\x00\x00\x00\x00\x00\x00\x05\x00\x00\x00\x00\x00\x00\x00\x06\x00\x00\x00\x00\x00\x00\x00\x07\x00\x00\x00\x00\x00\x00\x00\x08\x00\x00\x00\x00\x00\x00\x00\t\x00\x00\x00\x00\x00\x00\x00\n\x00\x00\x00\x00\x00\x00\x00\x0b\x00\x00\x00\x00\x00\x00\x00'
p1260
tp1261
bsg73
Nstp1262
Rp1263
a(lp1264
g1239
(g1240
(I0
tp1265
g313
tp1266
Rp1267
(I1
(I3
I12
tp1268
g1245
(S'f8'
p1269
I0
I1
tp1270
Rp1271
(I3
S'<'
p1272
NNNI-1
I-1
I0
tp1273
bI01
S'\x00\x00\x00\x00\x00\x00\xf0?\x00\x00\x00\x00\x00\x00\x00\x00\x00\x00\x00\x00\x00\x00\xf0?\x00\x00\x00\x00\x00\x00\xf0?\x00\x00\x00\x00\x00\x00\x00\x00\x00\x00\x00\x00\x00\x00\xf0?\x00\x00\x00\x00\x00\x00\xf0?\x00\x00\x00\x00\x00\x00\x00\x00\x00\x00\x00\x00\x00\x00\xf0?\x00\x00\x00\x00\x00\x00\xf0?\x00\x00\x00\x00\x00\x00\x00\x00\x00\x00\x00\x00\x00\x00\xf0?\x00\x00\x00\x00\x00\x00\xf0?\x00\x00\x00\x00\x00\x00\x00\x00\x00\x00\x00\x00\x00\x00\xf0?\x00\x00\x00\x00\x00\x00\xf0?\x00\x00\x00\x00\x00\x00\x00\x00\x00\x00\x00\x00\x00\x00\xf0?\x00\x00\x00\x00\x00\x00\x00\x00\x00\x00\x00\x00\x00\x00\x00\x00\x00\x00\x00\x00\x00\x00\x00\x00\x00\x00\x00\x00\x00\x00\x00\x00\x00\x00\x00\x00\x00\x00\x00\x00\x00\x00\x00\x00\x00\x00\x00\x00\x00\x00\x00\x00\x00\x00\x00\x00\x00\x00\x00\x00\x00\x00\x00\x00\x00\x00\x00\x00\x00\x00\x00\x00\x00\x00\x00\x00\x00\x00\x00\x00\x00\x00\x00\x00\x00\x00\x00\x00\x00\x00\x00\x00\x00\x00\x00\x00\x00\x00\x00\x00\x00\x00\x00\x00\x00\x00\x00\x00\x00\x00\x00\x00\x00\x00\x00\x00\x00\x00\x00\x00\x00\x00\x00\x00\x00\x00\x00\x00\x00\x00\x00\x00\x00\x00\x00\x00\x00\x00\x00\x00\x00\x00\x00\x00'
p1274
tp1275
bag1239
(g1240
(I0
tp1276
g313
tp1277
Rp1278
(I1
(I1
I12
tp1279
g1245
(S'O4'
p1280
I0
I1
tp1281
Rp1282
(I3
S'|'
p1283
NNNI-1
I-1
I63
tp1284
bI00
(lp1285
VM1
p1286
aVM2
p1287
aVM3
p1288
aVM4
p1289
aVM5
p1290
aVM6
p1291
aVM7
p1292
aVM8
p1293
aVM9
p1294
aVM10
p1295
aVM11
p1296
aVM12
p1297
atp1298
ba(lp1299
g1235
(g1236
(dp1300
g1238
g1239
(g1240
(I0
tp1301
g313
tp1302
Rp1303
(I1
(I3
tp1304
g1248
I00
S'\x01\x00\x00\x00\x00\x00\x00\x00\x02\x00\x00\x00\x00\x00\x00\x00\x03\x00\x00\x00\x00\x00\x00\x00'
p1305
tp1306
bsg73
Nstp1307
Rp1308
ag1235
(g1236
(dp1309
g1238
g1239
(g1240
(I0
tp1310
g313
tp1311
Rp1312
(I1
(I1
tp1313
g1248
I00
S'\x00\x00\x00\x00\x00\x00\x00\x00'
p1314
tp1315
bsg73
Nstp1316
Rp1317
a(dp1318
S'0.14.1'
p1319
(dp1320
S'axes'
p1321
g1234
sS'blocks'
p1322
(lp1323
(dp1324
S'mgr_locs'
p1325
c__builtin__
slice
p1326
(I1
I4
L1L
tp1327
Rp1328
sS'values'
p1329
g1267
sa(dp1330
g1325
g1326
(L0L
L1L
I1
tp1331
Rp1332
sg1329
g1278
sasstp1333
bsbsg1211
I2
sS'units'
p1334
S'nH'
p1335
sg69
g107
sg71
g898
sbssS' 2'
p1336
(dp1337
g1207
S'Thermal'
p1338
sg1209
S'Maximum'
p1339
sg1211
g5
(cpowercad.sym_layout.symbolic_layout
ThermalMeasure
p1340
g7
Ntp1341
Rp1342
(dp1343
g1334
S'K'
p1344
sS'stat_fn'
p1345
I1
sg73
g1336
sS'devices'
p1346
g4
sg1217
I2
sbsssS'algorithm'
p1347
I0
sS'plot_pareto'
p1348
I00
sS'e_sink'
p1349
NsS'e_src'
p1350
NsS'rs_mdl'
p1351
NsS'electrical_mode'
p1352
I1
sS'electrical_dev_state'
p1353
g1224
sS'thermal_mode'
p1354
I1
sS'thermal_func'
p1355
I0
sb.