(ipowercad.project_builder.project
Project
p0
(dp1
S'deviceTable'
p2
(lp3
(lp4
V  CPM2-1200-0080B-MOS.p
p5
a(ipowercad.design.project_structures
DeviceInstance
p6
(dp7
S'attach_thickness'
p8
F0.01
sS'heat_flow'
p9
F3.0
sS'attach_tech'
p10
(ipowercad.design.library_structures
DieAttach
p11
(dp12
S'properties'
p13
(ipowercad.design.library_structures
MaterialProperties
p14
(dp15
S'name'
p16
S'Pb-Sn Solder Alloy'
p17
sS'density'
p18
F11020.0
sS'electrical_res'
p19
NsS'rel_permeab'
p20
NsS'rel_permit'
p21
NsS'thermal_cond'
p22
F35.8
sS'spec_heat_cap'
p23
F130.0
sbsbsS'device_tech'
p24
(ipowercad.design.library_structures
Device
p25
(dp26
g16
S'CPM2-1200-0080B-MOS'
p27
sS'wire_landings'
p28
(lp29
(ipowercad.design.library_structures
BondwireLanding
p30
(dp31
S'position'
p32
(F1.0
F3.0
tp33
sS'bond_type'
p34
I2
sba(ipowercad.design.library_structures
BondwireLanding
p35
(dp36
g32
(F2.0
F1.5
tp37
sg34
I1
sba(ipowercad.design.library_structures
BondwireLanding
p38
(dp39
g32
(F2.0
F0.5
tp40
sg34
I1
sbasS'device_model'
p41
NsS'power_side'
p42
I1
sS'device_type'
p43
I1
sg13
(ipowercad.design.library_structures
MaterialProperties
p44
(dp45
S'young_mdl'
p46
NsS'poi_rat'
p47
Nsg16
Nsg18
F3100.0
sS'expansion_coeff'
p48
Nsg19
Nsg20
Nsg21
Nsg22
F370.0
sS'id'
p49
Nsg23
F750.0
sbsS'dimensions'
p50
(F3.1
F3.36
F0.22
tp51
sbsbaa(lp52
V  Cylindrical Aluminium Lead 1.2mm Diam..p
p53
a(ipowercad.design.library_structures
Lead
p54
(dp55
S'lead_type'
p56
I2
sS'shape'
p57
I2
sg50
(F1.2
I10
tp58
sg16
S'Cylindrical Aluminium Lead 1.2mm Diam.'
p59
sg13
(ipowercad.design.library_structures
MaterialProperties
p60
(dp61
g16
S'Aluminium'
p62
sg18
Nsg19
F3e-08
sg20
Nsg21
Nsg22
Nsg23
NsbsbaasS'sym_info'
p63
(dp64
sg16
VRD_100
p65
sS'netlist'
p66
NsS'module_data'
p67
ccopy_reg
_reconstructor
p68
(cpowercad.design.module_data
ModuleData
p69
c__builtin__
object
p70
Ntp71
Rp72
(dp73
S'substrate'
p74
(ipowercad.design.project_structures
SubstrateInstance
p75
(dp76
S'ledge_width'
p77
F2.0
sg50
(F90.0
F100.0
tp78
sS'substrate_tech'
p79
(ipowercad.design.library_structures
Substrate
p80
(dp81
S'isolation_properties'
p82
(ipowercad.design.library_structures
MaterialProperties
p83
(dp84
g46
F305000000000.0
sg47
Nsg16
S'Al_N'
p85
sg18
F3250.0
sg48
F5.2e-06
sg19
Nsg20
Nsg21
F8.8
sg22
F120.0
sg49
S'Al_N'
p86
sg23
F734.3
sbsS'metal_properties'
p87
(ipowercad.design.library_structures
MaterialProperties
p88
(dp89
g46
F120000000000.0
sg47
F0.38
sg16
S'copper'
p90
sg18
F8933.0
sg48
F1.77e-05
sg19
F1.72e-08
sg20
F0.999991
sg21
Nsg22
F400.0
sg49
S'copper'
p91
sg23
F385.0
sbsS'isolation_thickness'
p92
F0.64
sg16
NsS'metal_thickness'
p93
F0.2
sbsbsS'ambient_temp'
p94
F300.0
sS'sublayers_thermal'
p95
NsS'substrate_attach'
p96
(ipowercad.design.project_structures
SubstrateAttachInstance
p97
(dp98
g10
(ipowercad.design.library_structures
SubstrateAttach
p99
(dp100
g13
(ipowercad.design.library_structures
MaterialProperties
p101
(dp102
g46
F69000000000.0
sg47
F0.4
sg16
S'solder'
p103
sg18
F8000.0
sg48
F1.59e-06
sg19
F1.43e-07
sg20
Nsg21
Nsg22
F48.0
sg49
S'solder'
p104
sg23
F167.0
sbsbsS'thickness'
p105
F0.08
sbsS'frequency'
p106
F50.0
sS'baseplate'
p107
(ipowercad.design.project_structures
BaseplateInstance
p108
(dp109
S'baseplate_tech'
p110
(ipowercad.design.library_structures
Baseplate
p111
(dp112
g13
g88
sbsS'eff_conv_coeff'
p113
F150.0
sg50
(F94.0
F104.0
F6.0
tp114
sbsS'design_rules'
p115
(ipowercad.design.project_structures
ProcessDesignRules
p116
(dp117
S'min_trace_trace_width'
p118
F1.2
sS'signal_wire_component_dist'
p119
F0.2
sS'min_die_trace_dist'
p120
F0.1
sS'power_wire_trace_dist'
p121
F1.0
sS'power_wire_component_dist'
p122
F0.2
sS'min_die_die_dist'
p123
F0.2
sS'min_trace_width'
p124
F1.2
sS'signal_wire_trace_dist'
p125
F0.2
sbsbsS'layout_engine'
p126
S'CS'
p127
sS'tech_lib_dir'
p128
S'C:\\Users\\ialrazi\\PowerSynth\\CornerStitch_Dev\\PowerCAD-full\\tech_lib'
p129
sS'module_stack_edit'
p130
(lp131
Vcopper-Al_N-copper
p132
aV80.0
p133
aV50.0
p134
aV2.0
p135
aVsolder
p136
aV0.08
p137
aVcopper
p138
aV90.0
p139
aV60.0
p140
aV6.0
p141
aV150
p142
aV50
p143
aV300
p144
asS'layer_stack_file'
p145
VD:\u005cUI_UPDATE\u005cSample_Projects\u005cRD_100\u005clayer_stack.csv
p146
sS'num_gen'
p147
I100
sS'solutions'
p148
(lp149
sS'directory'
p150
VD:\u005cUI_UPDATE\u005cSample_Projects\u005cRD_100
p151
sS'symb_layout'
p152
g68
(cpowercad.sym_layout.symbolic_layout
SymbolicLayout
p153
g70
Ntp154
Rp155
(dp156
S'SymLine'
p157
cpowercad.sym_layout.symbolic_layout
SymLine
p158
sS'all_super_traces'
p159
NsS'symmetries'
p160
(lp161
sS'v_overflow'
p162
NsS'opt_dv_list'
p163
NsS'trace_xlen'
p164
NsS'all_sym'
p165
(lp166
g68
(cpowercad.sym_layout.symbolic_layout
SymPoint
p167
g70
Ntp168
Rp169
(dp170
S'center_position'
p171
NsS'sym_bondwires'
p172
(lp173
sS'raw_element'
p174
g68
(cpowercad.sym_layout.svg
LayoutPoint
p175
g70
Ntp176
Rp177
(dp178
S'path_id'
p179
S'M1'
p180
sg16
NsS'pt'
p181
(F1.0
F5.0
tp182
sbsg16
g180
sS'constraint'
p183
NsS'dv_index'
p184
NsS'parent_line'
p185
NsS'element'
p186
g68
(g175
g70
Ntp187
Rp188
(dp189
g179
g180
sg16
Nsg181
(I1
I5
tp190
sbsS'states'
p191
(lp192
sS'tech'
p193
g6
sS'footprint_rect'
p194
NsS'lumped_node'
p195
NsS'orientation'
p196
Nsbag68
(g167
g70
Ntp197
Rp198
(dp199
g171
Nsg172
(lp200
sg174
g68
(g175
g70
Ntp201
Rp202
(dp203
g179
S'M2'
p204
sg16
Nsg181
(F1.0
F6.0
tp205
sbsg16
g204
sg183
Nsg184
Nsg185
Nsg186
g68
(g175
g70
Ntp206
Rp207
(dp208
g179
g204
sg16
Nsg181
(I1
I6
tp209
sbsg191
(lp210
sg193
g6
sg194
Nsg195
Nsg196
Nsbag68
(g167
g70
Ntp211
Rp212
(dp213
g171
Nsg172
(lp214
sg174
g68
(g175
g70
Ntp215
Rp216
(dp217
g179
S'M3'
p218
sg16
Nsg181
(F1.0
F7.0
tp219
sbsg16
g218
sg183
Nsg184
Nsg185
Nsg186
g68
(g175
g70
Ntp220
Rp221
(dp222
g179
g218
sg16
Nsg181
(I1
I7
tp223
sbsg191
(lp224
sg193
g6
sg194
Nsg195
Nsg196
Nsbag68
(g167
g70
Ntp225
Rp226
(dp227
g171
Nsg172
(lp228
sg174
g68
(g175
g70
Ntp229
Rp230
(dp231
g179
S'M4'
p232
sg16
Nsg181
(F3.0
F5.0
tp233
sbsg16
g232
sg183
Nsg184
Nsg185
Nsg186
g68
(g175
g70
Ntp234
Rp235
(dp236
g179
g232
sg16
Nsg181
(I3
I5
tp237
sbsg191
(lp238
sg193
g6
sg194
Nsg195
Nsg196
Nsbag68
(g167
g70
Ntp239
Rp240
(dp241
g171
Nsg172
(lp242
sg174
g68
(g175
g70
Ntp243
Rp244
(dp245
g179
S'M5'
p246
sg16
Nsg181
(F3.0
F6.0
tp247
sbsg16
g246
sg183
Nsg184
Nsg185
Nsg186
g68
(g175
g70
Ntp248
Rp249
(dp250
g179
g246
sg16
Nsg181
(I3
I6
tp251
sbsg191
(lp252
sg193
g6
sg194
Nsg195
Nsg196
Nsbag68
(g167
g70
Ntp253
Rp254
(dp255
g171
Nsg172
(lp256
sg174
g68
(g175
g70
Ntp257
Rp258
(dp259
g179
S'M6'
p260
sg16
Nsg181
(F3.0
F7.0
tp261
sbsg16
g260
sg183
Nsg184
Nsg185
Nsg186
g68
(g175
g70
Ntp262
Rp263
(dp264
g179
g260
sg16
Nsg181
(I3
I7
tp265
sbsg191
(lp266
sg193
g6
sg194
Nsg195
Nsg196
Nsbag68
(g167
g70
Ntp267
Rp268
(dp269
g171
Nsg172
(lp270
sg174
g68
(g175
g70
Ntp271
Rp272
(dp273
g179
S'M7'
p274
sg16
Nsg181
(F7.0
F5.0
tp275
sbsg16
g274
sg183
Nsg184
Nsg185
Nsg186
g68
(g175
g70
Ntp276
Rp277
(dp278
g179
g274
sg16
Nsg181
(I7
I5
tp279
sbsg191
(lp280
sg193
g6
sg194
Nsg195
Nsg196
Nsbag68
(g167
g70
Ntp281
Rp282
(dp283
g171
Nsg172
(lp284
sg174
g68
(g175
g70
Ntp285
Rp286
(dp287
g179
S'M8'
p288
sg16
Nsg181
(F7.0
F6.0
tp289
sbsg16
g288
sg183
Nsg184
Nsg185
Nsg186
g68
(g175
g70
Ntp290
Rp291
(dp292
g179
g288
sg16
Nsg181
(I7
I6
tp293
sbsg191
(lp294
sg193
g6
sg194
Nsg195
Nsg196
Nsbag68
(g167
g70
Ntp295
Rp296
(dp297
g171
Nsg172
(lp298
sg174
g68
(g175
g70
Ntp299
Rp300
(dp301
g179
S'M9'
p302
sg16
Nsg181
(F7.0
F7.0
tp303
sbsg16
g302
sg183
Nsg184
Nsg185
Nsg186
g68
(g175
g70
Ntp304
Rp305
(dp306
g179
g302
sg16
Nsg181
(I7
I7
tp307
sbsg191
(lp308
sg193
g6
sg194
Nsg195
Nsg196
Nsbag68
(g167
g70
Ntp309
Rp310
(dp311
g171
Nsg172
(lp312
sg174
g68
(g175
g70
Ntp313
Rp314
(dp315
g179
S'M10'
p316
sg16
Nsg181
(F9.0
F5.0
tp317
sbsg16
g316
sg183
Nsg184
Nsg185
Nsg186
g68
(g175
g70
Ntp318
Rp319
(dp320
g179
g316
sg16
Nsg181
(I9
I5
tp321
sbsg191
(lp322
sg193
g6
sg194
Nsg195
Nsg196
Nsbag68
(g167
g70
Ntp323
Rp324
(dp325
g171
Nsg172
(lp326
sg174
g68
(g175
g70
Ntp327
Rp328
(dp329
g179
S'M11'
p330
sg16
Nsg181
(F9.0
F6.0
tp331
sbsg16
g330
sg183
Nsg184
Nsg185
Nsg186
g68
(g175
g70
Ntp332
Rp333
(dp334
g179
g330
sg16
Nsg181
(I9
I6
tp335
sbsg191
(lp336
sg193
g6
sg194
Nsg195
Nsg196
Nsbag68
(g167
g70
Ntp337
Rp338
(dp339
g171
Nsg172
(lp340
sg174
g68
(g175
g70
Ntp341
Rp342
(dp343
g179
S'M12'
p344
sg16
Nsg181
(F9.0
F7.0
tp345
sbsg16
g344
sg183
Nsg184
Nsg185
Nsg186
g68
(g175
g70
Ntp346
Rp347
(dp348
g179
g344
sg16
Nsg181
(I9
I7
tp349
sbsg191
(lp350
sg193
g6
sg194
Nsg195
Nsg196
Nsbag68
(g167
g70
Ntp351
Rp352
(dp353
g171
Nsg172
(lp354
sg174
g68
(g175
g70
Ntp355
Rp356
(dp357
g179
S'L1'
p358
sg16
Nsg181
(F2.0
F9.0
tp359
sbsg16
g358
sg183
Nsg184
Nsg185
Nsg186
g68
(g175
g70
Ntp360
Rp361
(dp362
g179
g358
sg16
Nsg181
(I2
I9
tp363
sbsg191
(lp364
sg193
g54
sg194
Nsg195
Nsg196
Nsbag68
(g167
g70
Ntp365
Rp366
(dp367
g171
Nsg172
(lp368
sg174
g68
(g175
g70
Ntp369
Rp370
(dp371
g179
S'L2'
p372
sg16
Nsg181
(F8.0
F9.0
tp373
sbsg16
g372
sg183
Nsg184
Nsg185
Nsg186
g68
(g175
g70
Ntp374
Rp375
(dp376
g179
g372
sg16
Nsg181
(I8
I9
tp377
sbsg191
(lp378
sg193
g54
sg194
Nsg195
Nsg196
Nsbag68
(g167
g70
Ntp379
Rp380
(dp381
g171
Nsg172
(lp382
sg174
g68
(g175
g70
Ntp383
Rp384
(dp385
g179
S'L3'
p386
sg16
Nsg181
(F5.0
F0.0
tp387
sbsg16
g386
sg183
Nsg184
Nsg185
Nsg186
g68
(g175
g70
Ntp388
Rp389
(dp390
g179
g386
sg16
Nsg181
(I5
I0
tp391
sbsg191
(lp392
sg193
g54
sg194
Nsg195
Nsg196
Nsbag68
(g167
g70
Ntp393
Rp394
(dp395
g171
Nsg172
(lp396
sg174
g68
(g175
g70
Ntp397
Rp398
(dp399
g179
S'L4'
p400
sg16
Nsg181
(F2.0
F6.0
tp401
sbsg16
g400
sg183
Nsg184
Nsg185
Nsg186
g68
(g175
g70
Ntp402
Rp403
(dp404
g179
g400
sg16
Nsg181
(I2
I6
tp405
sbsg191
(lp406
sg193
g54
sg194
Nsg195
Nsg196
Nsbag68
(g167
g70
Ntp407
Rp408
(dp409
g171
Nsg172
(lp410
sg174
g68
(g175
g70
Ntp411
Rp412
(dp413
g179
S'L5'
p414
sg16
Nsg181
(F8.0
F6.0
tp415
sbsg16
g414
sg183
Nsg184
Nsg185
Nsg186
g68
(g175
g70
Ntp416
Rp417
(dp418
g179
g414
sg16
Nsg181
(I8
I6
tp419
sbsg191
(lp420
sg193
g54
sg194
Nsg195
Nsg196
Nsbag68
(g158
g70
Ntp421
Rp422
(dp423
S'num_wires'
p424
NsS'trace_connections'
p425
(lp426
sS'dev_pt'
p427
NsS'land_pt2'
p428
NsS'wire'
p429
I00
sg174
g68
(cpowercad.sym_layout.svg
LayoutLine
p430
g70
Ntp431
Rp432
(dp433
g179
S'Ta'
p434
sS'vertical'
p435
I00
sS'pt2'
p436
(F9.0
F1.0
tp437
sS'pt1'
p438
(F7.0
F1.0
tp439
sbsS'conn_bonds'
p440
(lp441
sS'start_pt_conn'
p442
NsS'end_pts'
p443
NsS'has_rect'
p444
I01
sS'trace2'
p445
NsS'wire_sep'
p446
NsS'child_pts'
p447
NsS'trace'
p448
NsS'trace_rect'
p449
Nsg184
NsS'intersecting_trace'
p450
NsS'device'
p451
NsS'land_pt'
p452
NsS'long_contacts'
p453
(dp454
sS'super_connections'
p455
(lp456
sg16
g434
sg183
NsS'end_pt_conn'
p457
NsS'start_pts'
p458
Nsg186
g68
(g430
g70
Ntp459
Rp460
(dp461
g179
g434
sg435
I00
sg436
(I9
I1
tp462
sg438
(I7
I1
tp463
sbsg193
NsS'normal_connections'
p464
(lp465
sS'trace_line'
p466
Nsbag68
(g158
g70
Ntp467
Rp468
(dp469
g424
Nsg425
(lp470
sg427
Nsg428
Nsg429
I00
sg174
g68
(g430
g70
Ntp471
Rp472
(dp473
g179
S'Tb'
p474
sg435
I00
sg436
(F10.0
F9.0
tp475
sg438
(F6.0
F9.0
tp476
sbsg440
(lp477
sg442
Nsg443
Nsg444
I01
sg445
Nsg446
Nsg447
Nsg448
Nsg449
Nsg184
Nsg450
Nsg451
Nsg452
Nsg453
(dp478
sg455
(lp479
sg16
g474
sg183
Nsg457
Nsg458
Nsg186
g68
(g430
g70
Ntp480
Rp481
(dp482
g179
g474
sg435
I00
sg436
(I10
I9
tp483
sg438
(I6
I9
tp484
sbsg193
Nsg464
(lp485
sg466
Nsbag68
(g158
g70
Ntp486
Rp487
(dp488
g424
Nsg425
(lp489
sg427
Nsg428
Nsg429
I00
sg174
g68
(g430
g70
Ntp490
Rp491
(dp492
g179
S'Tc'
p493
sg435
I01
sg436
(F0.0
F8.0
tp494
sg438
(F0.0
F3.0
tp495
sbsg440
(lp496
sg442
Nsg443
Nsg444
I01
sg445
Nsg446
Nsg447
Nsg448
Nsg449
Nsg184
Nsg450
Nsg451
Nsg452
Nsg453
(dp497
sg455
(lp498
sg16
g493
sg183
Nsg457
Nsg458
Nsg186
g68
(g430
g70
Ntp499
Rp500
(dp501
g179
g493
sg435
I01
sg436
(I0
I8
tp502
sg438
(I0
I3
tp503
sbsg193
Nsg464
(lp504
sg466
Nsbag68
(g158
g70
Ntp505
Rp506
(dp507
g424
Nsg425
(lp508
sg427
Nsg428
Nsg429
I00
sg174
g68
(g430
g70
Ntp509
Rp510
(dp511
g179
S'Td'
p512
sg435
I01
sg436
(F2.0
F3.0
tp513
sg438
(F2.0
F0.0
tp514
sbsg440
(lp515
sg442
Nsg443
Nsg444
I01
sg445
Nsg446
Nsg447
Nsg448
Nsg449
Nsg184
Nsg450
Nsg451
Nsg452
Nsg453
(dp516
sg455
(lp517
sg16
g512
sg183
Nsg457
Nsg458
Nsg186
g68
(g430
g70
Ntp518
Rp519
(dp520
g179
g512
sg435
I01
sg436
(I2
I3
tp521
sg438
(I2
I0
tp522
sbsg193
Nsg464
(lp523
sg466
Nsbag68
(g158
g70
Ntp524
Rp525
(dp526
g424
Nsg425
(lp527
sg427
Nsg428
Nsg429
I00
sg174
g68
(g430
g70
Ntp528
Rp529
(dp530
g179
S'Te'
p531
sg435
I01
sg436
(F1.0
F9.0
tp532
sg438
(F1.0
F4.0
tp533
sbsg440
(lp534
sg442
Nsg443
Nsg444
I01
sg445
Nsg446
Nsg447
Nsg448
Nsg449
Nsg184
Nsg450
Nsg451
Nsg452
Nsg453
(dp535
sg455
(lp536
sg16
g531
sg183
Nsg457
Nsg458
Nsg186
g68
(g430
g70
Ntp537
Rp538
(dp539
g179
g531
sg435
I01
sg436
(I1
I9
tp540
sg438
(I1
I4
tp541
sbsg193
Nsg464
(lp542
sg466
Nsbag68
(g158
g70
Ntp543
Rp544
(dp545
g424
Nsg425
(lp546
sg427
Nsg428
Nsg429
I00
sg174
g68
(g430
g70
Ntp547
Rp548
(dp549
g179
S'Tf'
p550
sg435
I01
sg436
(F8.0
F8.0
tp551
sg438
(F8.0
F4.0
tp552
sbsg440
(lp553
sg442
Nsg443
Nsg444
I01
sg445
Nsg446
Nsg447
Nsg448
Nsg449
Nsg184
Nsg450
Nsg451
Nsg452
Nsg453
(dp554
sg455
(lp555
sg16
g550
sg183
Nsg457
Nsg458
Nsg186
g68
(g430
g70
Ntp556
Rp557
(dp558
g179
g550
sg435
I01
sg436
(I8
I8
tp559
sg438
(I8
I4
tp560
sbsg193
Nsg464
(lp561
sg466
Nsbag68
(g158
g70
Ntp562
Rp563
(dp564
g424
Nsg425
(lp565
sg427
Nsg428
Nsg429
I00
sg174
g68
(g430
g70
Ntp566
Rp567
(dp568
g179
S'Tg'
p569
sg435
I01
sg436
(F10.0
F2.0
tp570
sg438
(F10.0
F0.0
tp571
sbsg440
(lp572
sg442
Nsg443
Nsg444
I01
sg445
Nsg446
Nsg447
Nsg448
Nsg449
Nsg184
Nsg450
Nsg451
Nsg452
Nsg453
(dp573
sg455
(lp574
sg16
g569
sg183
Nsg457
Nsg458
Nsg186
g68
(g430
g70
Ntp575
Rp576
(dp577
g179
g569
sg435
I01
sg436
(I10
I2
tp578
sg438
(I10
I0
tp579
sbsg193
Nsg464
(lp580
sg466
Nsbag68
(g158
g70
Ntp581
Rp582
(dp583
g424
Nsg425
(lp584
sg427
Nsg428
Nsg429
I00
sg174
g68
(g430
g70
Ntp585
Rp586
(dp587
g179
S'Th'
p588
sg435
I00
sg436
(F4.0
F3.0
tp589
sg438
(F0.0
F3.0
tp590
sbsg440
(lp591
sg442
Nsg443
Nsg444
I01
sg445
Nsg446
Nsg447
Nsg448
Nsg449
Nsg184
Nsg450
Nsg451
Nsg452
Nsg453
(dp592
sg455
(lp593
sg16
g588
sg183
Nsg457
Nsg458
Nsg186
g68
(g430
g70
Ntp594
Rp595
(dp596
g179
g588
sg435
I00
sg436
(I4
I3
tp597
sg438
(I0
I3
tp598
sbsg193
Nsg464
(lp599
sg466
Nsbag68
(g158
g70
Ntp600
Rp601
(dp602
g424
Nsg425
(lp603
sg427
Nsg428
Nsg429
I00
sg174
g68
(g430
g70
Ntp604
Rp605
(dp606
g179
S'Ti'
p607
sg435
I01
sg436
(F10.0
F9.0
tp608
sg438
(F10.0
F3.0
tp609
sbsg440
(lp610
sg442
Nsg443
Nsg444
I01
sg445
Nsg446
Nsg447
Nsg448
Nsg449
Nsg184
Nsg450
Nsg451
Nsg452
Nsg453
(dp611
sg455
(lp612
sg16
g607
sg183
Nsg457
Nsg458
Nsg186
g68
(g430
g70
Ntp613
Rp614
(dp615
g179
g607
sg435
I01
sg436
(I10
I9
tp616
sg438
(I10
I3
tp617
sbsg193
Nsg464
(lp618
sg466
Nsbag68
(g158
g70
Ntp619
Rp620
(dp621
g424
Nsg425
(lp622
sg427
Nsg428
Nsg429
I00
sg174
g68
(g430
g70
Ntp623
Rp624
(dp625
g179
S'Tj'
p626
sg435
I01
sg436
(F9.0
F8.0
tp627
sg438
(F9.0
F3.0
tp628
sbsg440
(lp629
sg442
Nsg443
Nsg444
I01
sg445
Nsg446
Nsg447
Nsg448
Nsg449
Nsg184
Nsg450
Nsg451
Nsg452
Nsg453
(dp630
sg455
(lp631
sg16
g626
sg183
Nsg457
Nsg458
Nsg186
g68
(g430
g70
Ntp632
Rp633
(dp634
g179
g626
sg435
I01
sg436
(I9
I8
tp635
sg438
(I9
I3
tp636
sbsg193
Nsg464
(lp637
sg466
Nsbag68
(g158
g70
Ntp638
Rp639
(dp640
g424
Nsg425
(lp641
sg427
Nsg428
Nsg429
I00
sg174
g68
(g430
g70
Ntp642
Rp643
(dp644
g179
S'Tk'
p645
sg435
I01
sg436
(F6.0
F9.0
tp646
sg438
(F6.0
F3.0
tp647
sbsg440
(lp648
sg442
Nsg443
Nsg444
I01
sg445
Nsg446
Nsg447
Nsg448
Nsg449
Nsg184
Nsg450
Nsg451
Nsg452
Nsg453
(dp649
sg455
(lp650
sg16
g645
sg183
Nsg457
Nsg458
Nsg186
g68
(g430
g70
Ntp651
Rp652
(dp653
g179
g645
sg435
I01
sg436
(I6
I9
tp654
sg438
(I6
I3
tp655
sbsg193
Nsg464
(lp656
sg466
Nsbag68
(g158
g70
Ntp657
Rp658
(dp659
g424
Nsg425
(lp660
sg427
Nsg428
Nsg429
I00
sg174
g68
(g430
g70
Ntp661
Rp662
(dp663
g179
S'Tl'
p664
sg435
I00
sg436
(F4.0
F9.0
tp665
sg438
(F0.0
F9.0
tp666
sbsg440
(lp667
sg442
Nsg443
Nsg444
I01
sg445
Nsg446
Nsg447
Nsg448
Nsg449
Nsg184
Nsg450
Nsg451
Nsg452
Nsg453
(dp668
sg455
(lp669
sg16
g664
sg183
Nsg457
Nsg458
Nsg186
g68
(g430
g70
Ntp670
Rp671
(dp672
g179
g664
sg435
I00
sg436
(I4
I9
tp673
sg438
(I0
I9
tp674
sbsg193
Nsg464
(lp675
sg466
Nsbag68
(g158
g70
Ntp676
Rp677
(dp678
g424
Nsg425
(lp679
sg427
Nsg428
Nsg429
I00
sg174
g68
(g430
g70
Ntp680
Rp681
(dp682
g179
S'Tm'
p683
sg435
I01
sg436
(F8.0
F3.0
tp684
sg438
(F8.0
F0.0
tp685
sbsg440
(lp686
sg442
Nsg443
Nsg444
I01
sg445
Nsg446
Nsg447
Nsg448
Nsg449
Nsg184
Nsg450
Nsg451
Nsg452
Nsg453
(dp687
sg455
(lp688
sg16
g683
sg183
Nsg457
Nsg458
Nsg186
g68
(g430
g70
Ntp689
Rp690
(dp691
g179
g683
sg435
I01
sg436
(I8
I3
tp692
sg438
(I8
I0
tp693
sbsg193
Nsg464
(lp694
sg466
Nsbag68
(g158
g70
Ntp695
Rp696
(dp697
g424
Nsg425
(lp698
sg427
Nsg428
Nsg429
I00
sg174
g68
(g430
g70
Ntp699
Rp700
(dp701
g179
S'Tn'
p702
sg435
I01
sg436
(F3.0
F9.0
tp703
sg438
(F3.0
F4.0
tp704
sbsg440
(lp705
sg442
Nsg443
Nsg444
I01
sg445
Nsg446
Nsg447
Nsg448
Nsg449
Nsg184
Nsg450
Nsg451
Nsg452
Nsg453
(dp706
sg455
(lp707
sg16
g702
sg183
Nsg457
Nsg458
Nsg186
g68
(g430
g70
Ntp708
Rp709
(dp710
g179
g702
sg435
I01
sg436
(I3
I9
tp711
sg438
(I3
I4
tp712
sbsg193
Nsg464
(lp713
sg466
Nsbag68
(g158
g70
Ntp714
Rp715
(dp716
g424
Nsg425
(lp717
sg427
Nsg428
Nsg429
I00
sg174
g68
(g430
g70
Ntp718
Rp719
(dp720
g179
S'To'
p721
sg435
I00
sg436
(F3.0
F1.0
tp722
sg438
(F1.0
F1.0
tp723
sbsg440
(lp724
sg442
Nsg443
Nsg444
I01
sg445
Nsg446
Nsg447
Nsg448
Nsg449
Nsg184
Nsg450
Nsg451
Nsg452
Nsg453
(dp725
sg455
(lp726
sg16
g721
sg183
Nsg457
Nsg458
Nsg186
g68
(g430
g70
Ntp727
Rp728
(dp729
g179
g721
sg435
I00
sg436
(I3
I1
tp730
sg438
(I1
I1
tp731
sbsg193
Nsg464
(lp732
sg466
Nsbag68
(g158
g70
Ntp733
Rp734
(dp735
g424
Nsg425
(lp736
sg427
Nsg428
Nsg429
I00
sg174
g68
(g430
g70
Ntp737
Rp738
(dp739
g179
S'Tp'
p740
sg435
I01
sg436
(F4.0
F8.0
tp741
sg438
(F4.0
F3.0
tp742
sbsg440
(lp743
sg442
Nsg443
Nsg444
I01
sg445
Nsg446
Nsg447
Nsg448
Nsg449
Nsg184
Nsg450
Nsg451
Nsg452
Nsg453
(dp744
sg455
(lp745
sg16
g740
sg183
Nsg457
Nsg458
Nsg186
g68
(g430
g70
Ntp746
Rp747
(dp748
g179
g740
sg435
I01
sg436
(I4
I8
tp749
sg438
(I4
I3
tp750
sbsg193
Nsg464
(lp751
sg466
Nsbag68
(g158
g70
Ntp752
Rp753
(dp754
g424
Nsg425
(lp755
sg427
Nsg428
Nsg429
I00
sg174
g68
(g430
g70
Ntp756
Rp757
(dp758
g179
S'Tq'
p759
sg435
I00
sg436
(F9.0
F0.0
tp760
sg438
(F1.0
F0.0
tp761
sbsg440
(lp762
sg442
Nsg443
Nsg444
I01
sg445
Nsg446
Nsg447
Nsg448
Nsg449
Nsg184
Nsg450
Nsg451
Nsg452
Nsg453
(dp763
sg455
(lp764
sg16
g759
sg183
Nsg457
Nsg458
Nsg186
g68
(g430
g70
Ntp765
Rp766
(dp767
g179
g759
sg435
I00
sg436
(I9
I0
tp768
sg438
(I1
I0
tp769
sbsg193
Nsg464
(lp770
sg466
Nsbag68
(g158
g70
Ntp771
Rp772
(dp773
g424
Nsg425
(lp774
sg427
Nsg428
Nsg429
I00
sg174
g68
(g430
g70
Ntp775
Rp776
(dp777
g179
S'Tr'
p778
sg435
I01
sg436
(F2.0
F8.0
tp779
sg438
(F2.0
F4.0
tp780
sbsg440
(lp781
sg442
Nsg443
Nsg444
I01
sg445
Nsg446
Nsg447
Nsg448
Nsg449
Nsg184
Nsg450
Nsg451
Nsg452
Nsg453
(dp782
sg455
(lp783
sg16
g778
sg183
Nsg457
Nsg458
Nsg186
g68
(g430
g70
Ntp784
Rp785
(dp786
g179
g778
sg435
I01
sg436
(I2
I8
tp787
sg438
(I2
I4
tp788
sbsg193
Nsg464
(lp789
sg466
Nsbag68
(g158
g70
Ntp790
Rp791
(dp792
g424
Nsg425
(lp793
sg427
Nsg428
Nsg429
I00
sg174
g68
(g430
g70
Ntp794
Rp795
(dp796
g179
S'Ts'
p797
sg435
I01
sg436
(F0.0
F2.0
tp798
sg438
(F0.0
F0.0
tp799
sbsg440
(lp800
sg442
Nsg443
Nsg444
I01
sg445
Nsg446
Nsg447
Nsg448
Nsg449
Nsg184
Nsg450
Nsg451
Nsg452
Nsg453
(dp801
sg455
(lp802
sg16
g797
sg183
Nsg457
Nsg458
Nsg186
g68
(g430
g70
Ntp803
Rp804
(dp805
g179
g797
sg435
I01
sg436
(I0
I2
tp806
sg438
(I0
I0
tp807
sbsg193
Nsg464
(lp808
sg466
Nsbag68
(g158
g70
Ntp809
Rp810
(dp811
g424
Nsg425
(lp812
sg427
Nsg428
Nsg429
I00
sg174
g68
(g430
g70
Ntp813
Rp814
(dp815
g179
S'Tt'
p816
sg435
I01
sg436
(F7.0
F8.0
tp817
sg438
(F7.0
F3.0
tp818
sbsg440
(lp819
sg442
Nsg443
Nsg444
I01
sg445
Nsg446
Nsg447
Nsg448
Nsg449
Nsg184
Nsg450
Nsg451
Nsg452
Nsg453
(dp820
sg455
(lp821
sg16
g816
sg183
Nsg457
Nsg458
Nsg186
g68
(g430
g70
Ntp822
Rp823
(dp824
g179
g816
sg435
I01
sg436
(I7
I8
tp825
sg438
(I7
I3
tp826
sbsg193
Nsg464
(lp827
sg466
NsbasS'v_dv_list'
p828
NsS'leads'
p829
NsS'xlen'
p830
I11
sS'seed'
p831
NsS'vg_matrix'
p832
NsS'v_rowcol_list'
p833
NsS'mdl_type'
p834
(dp835
S'E'
p836
NsS'T'
p837
NssS'h_min_max_overflow'
p838
NsS'perf_measures'
p839
(lp840
sS'E_graph'
p841
NsS'layout'
p842
(lp843
g188
ag207
ag221
ag235
ag249
ag263
ag277
ag291
ag305
ag319
ag333
ag347
ag361
ag375
ag389
ag403
ag417
ag460
ag481
ag500
ag519
ag538
ag557
ag576
ag595
ag614
ag633
ag652
ag671
ag690
ag709
ag728
ag747
ag766
ag785
ag804
ag823
asS'trace_nodes'
p844
(lp845
sS'raw_layout'
p846
(lp847
g177
ag202
ag216
ag230
ag244
ag258
ag272
ag286
ag300
ag314
ag328
ag342
ag356
ag370
ag384
ag398
ag412
ag432
ag472
ag491
ag510
ag529
ag548
ag567
ag586
ag605
ag624
ag643
ag662
ag681
ag700
ag719
ag738
ag757
ag776
ag795
ag814
asS'all_lines'
p848
(lp849
g460
ag481
ag500
ag519
ag538
ag557
ag576
ag595
ag614
ag633
ag652
ag671
ag690
ag709
ag728
ag747
ag766
ag785
ag804
ag823
asS'sub_dim'
p850
NsS'trace_trace_connections'
p851
NsS'h_dv_list'
p852
NsS'h_overflow'
p853
NsS'fixed_constraints'
p854
NsS'trace_rects'
p855
Nsg115
NsS'bondwire_dv_list'
p856
NsS'h_design_values'
p857
NsS'lumped_graph'
p858
NsS'dev_design_values'
p859
NsS'removed_horiz_dv_index'
p860
NsS'v_min_max_overflow'
p861
NsS'corner_info'
p862
(lp863
sS'cost_funcs'
p864
(lp865
sS'gap'
p866
NsS'all_trace_lines'
p867
NsS'v_design_values'
p868
NsS'opt_to_sym_index'
p869
NsS'trace_graph'
p870
NsS'trace_layout'
p871
NsS'layout_ready'
p872
I00
sS'removed_vert_dv_index'
p873
NsS'boundary_connections'
p874
NsS'ylen'
p875
I10
sS'trace_graph_components'
p876
NsS'bondwire_design_values'
p877
NsS'h_rowcol_list'
p878
NsS'h_design_var_dict'
p879
NsS'trace_info'
p880
(lp881
sS'algorithm'
p882
NsS'symbol_graph'
p883
NsS'corner_nodes'
p884
(lp885
sS'devices'
p886
NsS'SymPoint'
p887
g167
sS'trace_ylen'
p888
NsS'points'
p889
(lp890
g169
ag198
ag212
ag226
ag240
ag254
ag268
ag282
ag296
ag310
ag324
ag338
ag352
ag366
ag380
ag394
ag408
asS'mode'
p891
I7
sS'all_points'
p892
(lp893
g188
ag207
ag221
ag235
ag249
ag263
ag277
ag291
ag305
ag319
ag333
ag347
ag361
ag375
ag389
ag403
ag417
asS'dev_dv_list'
p894
NsS'tol_constraints'
p895
NsS'bondwires'
p896
NsS'v_design_var_dict'
p897
NsbsS'tbl_bondwire_connect'
p898
g68
(cpandas.core.frame
DataFrame
p899
g70
Ntp900
Rp901
(dp902
S'_metadata'
p903
(lp904
sS'_typ'
p905
S'dataframe'
p906
sS'_data'
p907
g68
(cpandas.core.internals
BlockManager
p908
g70
Ntp909
Rp910
((lp911
cpandas.core.indexes.base
_new_Index
p912
(cpandas.core.indexes.base
Index
p913
(dp914
S'data'
p915
cnumpy.core.multiarray
_reconstruct
p916
(cnumpy
ndarray
p917
(I0
tp918
S'b'
p919
tp920
Rp921
(I1
(I9
tp922
cnumpy
dtype
p923
(S'O4'
p924
I0
I1
tp925
Rp926
(I3
S'|'
p927
NNNI-1
I-1
I63
tp928
bI00
(lp929
S'bw_type'
p930
aS'start'
p931
aS'stop'
p932
aS'obj'
p933
aI0
aI1
aI2
aI3
aI4
atp934
bsg16
Nstp935
Rp936
ag912
(cpandas.core.indexes.numeric
Int64Index
p937
(dp938
g915
g916
(g917
(I0
tp939
g919
tp940
Rp941
(I1
(I24
tp942
g923
(S'i8'
p943
I0
I1
tp944
Rp945
(I3
S'<'
p946
NNNI-1
I-1
I0
tp947
bI00
S'\x00\x00\x00\x00\x00\x00\x00\x00\x01\x00\x00\x00\x00\x00\x00\x00\x02\x00\x00\x00\x00\x00\x00\x00\x03\x00\x00\x00\x00\x00\x00\x00\x04\x00\x00\x00\x00\x00\x00\x00\x05\x00\x00\x00\x00\x00\x00\x00\x06\x00\x00\x00\x00\x00\x00\x00\x07\x00\x00\x00\x00\x00\x00\x00\x08\x00\x00\x00\x00\x00\x00\x00\t\x00\x00\x00\x00\x00\x00\x00\n\x00\x00\x00\x00\x00\x00\x00\x0b\x00\x00\x00\x00\x00\x00\x00\x0c\x00\x00\x00\x00\x00\x00\x00\r\x00\x00\x00\x00\x00\x00\x00\x0e\x00\x00\x00\x00\x00\x00\x00\x0f\x00\x00\x00\x00\x00\x00\x00\x10\x00\x00\x00\x00\x00\x00\x00\x11\x00\x00\x00\x00\x00\x00\x00\x12\x00\x00\x00\x00\x00\x00\x00\x13\x00\x00\x00\x00\x00\x00\x00\x14\x00\x00\x00\x00\x00\x00\x00\x15\x00\x00\x00\x00\x00\x00\x00\x16\x00\x00\x00\x00\x00\x00\x00\x17\x00\x00\x00\x00\x00\x00\x00'
p948
tp949
bsg16
Nstp950
Rp951
a(lp952
g916
(g917
(I0
tp953
g919
tp954
Rp955
(I1
(I9
I24
tp956
g926
I01
(lp957
Fnan
aFnan
aFnan
aFnan
aFnan
aFnan
aFnan
aFnan
aFnan
aFnan
aFnan
aFnan
aFnan
aFnan
aFnan
aFnan
aFnan
aFnan
aFnan
aFnan
aFnan
aFnan
aFnan
aFnan
aFnan
aFnan
aFnan
aFnan
aFnan
aFnan
aFnan
aFnan
aFnan
aFnan
aFnan
aFnan
aFnan
aFnan
aFnan
aFnan
aFnan
aFnan
aFnan
aFnan
aFnan
aFnan
aFnan
aFnan
aFnan
aFnan
aFnan
aFnan
aFnan
aFnan
aFnan
aFnan
aFnan
aFnan
aFnan
aFnan
aFnan
aFnan
aFnan
aFnan
aFnan
aFnan
aFnan
aFnan
aFnan
aFnan
aFnan
aFnan
aFnan
aFnan
aFnan
aFnan
aFnan
aFnan
aFnan
aFnan
aFnan
aFnan
aFnan
aFnan
aFnan
aFnan
aFnan
aFnan
aFnan
aFnan
aFnan
aFnan
aFnan
aFnan
aFnan
aFnan
aVPOWER
p958
aVPOWER
p959
aVPOWER
p960
aVPOWER
p961
aVPOWER
p962
aVPOWER
p963
aVPOWER
p964
aVPOWER
p965
aVPOWER
p966
aVPOWER
p967
aVPOWER
p968
aVPOWER
p969
aVSIGNAL
p970
aVSIGNAL
p971
aVSIGNAL
p972
aVSIGNAL
p973
aVSIGNAL
p974
aVSIGNAL
p975
aVSIGNAL
p976
aVSIGNAL
p977
aVSIGNAL
p978
aVSIGNAL
p979
aVSIGNAL
p980
aVSIGNAL
p981
aVM3
p982
aVM2
p983
aVM1
p984
aVM4
p985
aVM5
p986
aVM6
p987
aVM7
p988
aVM8
p989
aVM9
p990
aVM10
p991
aVM11
p992
aVM12
p993
aVM1
p994
aVM2
p995
aVM3
p996
aVM4
p997
aVM5
p998
aVM6
p999
aVM7
p1000
aVM8
p1001
aVM9
p1002
aVM10
p1003
aVM11
p1004
aVM12
p1005
aVTc
p1006
aVTc
p1007
aVTc
p1008
aVTp
p1009
aVTp
p1010
aVTp
p1011
aVTk
p1012
aVTk
p1013
aVTk
p1014
aVTi
p1015
aVTi
p1016
aVTi
p1017
aVTr
p1018
aVTr
p1019
aVTr
p1020
aVTr
p1021
aVTr
p1022
aVTr
p1023
aVTf
p1024
aVTf
p1025
aVTf
p1026
aVTf
p1027
aVTf
p1028
aVTf
p1029
aV Aluminium Power Bondwire 0.3x0.2mm.p
p1030
aV Aluminium Power Bondwire 0.3x0.2mm.p
p1031
aV Aluminium Power Bondwire 0.3x0.2mm.p
p1032
aV Aluminium Power Bondwire 0.3x0.2mm.p
p1033
aV Aluminium Power Bondwire 0.3x0.2mm.p
p1034
aV Aluminium Power Bondwire 0.3x0.2mm.p
p1035
aV Aluminium Power Bondwire 0.3x0.2mm.p
p1036
aV Aluminium Power Bondwire 0.3x0.2mm.p
p1037
aV Aluminium Power Bondwire 0.3x0.2mm.p
p1038
aV Aluminium Power Bondwire 0.3x0.2mm.p
p1039
aV Aluminium Power Bondwire 0.3x0.2mm.p
p1040
aV Aluminium Power Bondwire 0.3x0.2mm.p
p1041
aV Aluminium Signal Bondwire 0.1mm.p
p1042
aV Aluminium Signal Bondwire 0.1mm.p
p1043
aV Aluminium Signal Bondwire 0.1mm.p
p1044
aV Aluminium Signal Bondwire 0.1mm.p
p1045
aV Aluminium Signal Bondwire 0.1mm.p
p1046
aV Aluminium Signal Bondwire 0.1mm.p
p1047
aV Aluminium Signal Bondwire 0.1mm.p
p1048
aV Aluminium Signal Bondwire 0.1mm.p
p1049
aV Aluminium Signal Bondwire 0.1mm.p
p1050
aV Aluminium Signal Bondwire 0.1mm.p
p1051
aV Aluminium Signal Bondwire 0.1mm.p
p1052
aV Aluminium Signal Bondwire 0.1mm.p
p1053
a(ipowercad.design.library_structures
BondWire
p1054
(dp1055
S'a'
p1056
F0.4
sS'wire_type'
p1057
I1
sg16
S'Aluminium Power Bondwire 0.3x0.2mm'
p1058
sg57
I2
sg919
F0.25
sg13
(ipowercad.design.library_structures
MaterialProperties
p1059
(dp1060
g16
S'Aluminium'
p1061
sg18
Nsg19
F3e-08
sg20
Nsg21
Nsg22
Nsg23
Nsbsg50
(F0.3
F0.2
tp1062
sba(ipowercad.design.library_structures
BondWire
p1063
(dp1064
g1056
F0.4
sg1057
I1
sg16
S'Aluminium Power Bondwire 0.3x0.2mm'
p1065
sg57
I2
sg919
F0.25
sg13
(ipowercad.design.library_structures
MaterialProperties
p1066
(dp1067
g16
S'Aluminium'
p1068
sg18
Nsg19
F3e-08
sg20
Nsg21
Nsg22
Nsg23
Nsbsg50
(F0.3
F0.2
tp1069
sba(ipowercad.design.library_structures
BondWire
p1070
(dp1071
g1056
F0.4
sg1057
I1
sg16
S'Aluminium Power Bondwire 0.3x0.2mm'
p1072
sg57
I2
sg919
F0.25
sg13
(ipowercad.design.library_structures
MaterialProperties
p1073
(dp1074
g16
S'Aluminium'
p1075
sg18
Nsg19
F3e-08
sg20
Nsg21
Nsg22
Nsg23
Nsbsg50
(F0.3
F0.2
tp1076
sba(ipowercad.design.library_structures
BondWire
p1077
(dp1078
g1056
F0.4
sg1057
I1
sg16
S'Aluminium Power Bondwire 0.3x0.2mm'
p1079
sg57
I2
sg919
F0.25
sg13
(ipowercad.design.library_structures
MaterialProperties
p1080
(dp1081
g16
S'Aluminium'
p1082
sg18
Nsg19
F3e-08
sg20
Nsg21
Nsg22
Nsg23
Nsbsg50
(F0.3
F0.2
tp1083
sba(ipowercad.design.library_structures
BondWire
p1084
(dp1085
g1056
F0.4
sg1057
I1
sg16
S'Aluminium Power Bondwire 0.3x0.2mm'
p1086
sg57
I2
sg919
F0.25
sg13
(ipowercad.design.library_structures
MaterialProperties
p1087
(dp1088
g16
S'Aluminium'
p1089
sg18
Nsg19
F3e-08
sg20
Nsg21
Nsg22
Nsg23
Nsbsg50
(F0.3
F0.2
tp1090
sba(ipowercad.design.library_structures
BondWire
p1091
(dp1092
g1056
F0.4
sg1057
I1
sg16
S'Aluminium Power Bondwire 0.3x0.2mm'
p1093
sg57
I2
sg919
F0.25
sg13
(ipowercad.design.library_structures
MaterialProperties
p1094
(dp1095
g16
S'Aluminium'
p1096
sg18
Nsg19
F3e-08
sg20
Nsg21
Nsg22
Nsg23
Nsbsg50
(F0.3
F0.2
tp1097
sba(ipowercad.design.library_structures
BondWire
p1098
(dp1099
g1056
F0.4
sg1057
I1
sg16
S'Aluminium Power Bondwire 0.3x0.2mm'
p1100
sg57
I2
sg919
F0.25
sg13
(ipowercad.design.library_structures
MaterialProperties
p1101
(dp1102
g16
S'Aluminium'
p1103
sg18
Nsg19
F3e-08
sg20
Nsg21
Nsg22
Nsg23
Nsbsg50
(F0.3
F0.2
tp1104
sba(ipowercad.design.library_structures
BondWire
p1105
(dp1106
g1056
F0.4
sg1057
I1
sg16
S'Aluminium Power Bondwire 0.3x0.2mm'
p1107
sg57
I2
sg919
F0.25
sg13
(ipowercad.design.library_structures
MaterialProperties
p1108
(dp1109
g16
S'Aluminium'
p1110
sg18
Nsg19
F3e-08
sg20
Nsg21
Nsg22
Nsg23
Nsbsg50
(F0.3
F0.2
tp1111
sba(ipowercad.design.library_structures
BondWire
p1112
(dp1113
g1056
F0.4
sg1057
I1
sg16
S'Aluminium Power Bondwire 0.3x0.2mm'
p1114
sg57
I2
sg919
F0.25
sg13
(ipowercad.design.library_structures
MaterialProperties
p1115
(dp1116
g16
S'Aluminium'
p1117
sg18
Nsg19
F3e-08
sg20
Nsg21
Nsg22
Nsg23
Nsbsg50
(F0.3
F0.2
tp1118
sba(ipowercad.design.library_structures
BondWire
p1119
(dp1120
g1056
F0.4
sg1057
I1
sg16
S'Aluminium Power Bondwire 0.3x0.2mm'
p1121
sg57
I2
sg919
F0.25
sg13
(ipowercad.design.library_structures
MaterialProperties
p1122
(dp1123
g16
S'Aluminium'
p1124
sg18
Nsg19
F3e-08
sg20
Nsg21
Nsg22
Nsg23
Nsbsg50
(F0.3
F0.2
tp1125
sba(ipowercad.design.library_structures
BondWire
p1126
(dp1127
g1056
F0.4
sg1057
I1
sg16
S'Aluminium Power Bondwire 0.3x0.2mm'
p1128
sg57
I2
sg919
F0.25
sg13
(ipowercad.design.library_structures
MaterialProperties
p1129
(dp1130
g16
S'Aluminium'
p1131
sg18
Nsg19
F3e-08
sg20
Nsg21
Nsg22
Nsg23
Nsbsg50
(F0.3
F0.2
tp1132
sba(ipowercad.design.library_structures
BondWire
p1133
(dp1134
g1056
F0.4
sg1057
I1
sg16
S'Aluminium Power Bondwire 0.3x0.2mm'
p1135
sg57
I2
sg919
F0.25
sg13
(ipowercad.design.library_structures
MaterialProperties
p1136
(dp1137
g16
S'Aluminium'
p1138
sg18
Nsg19
F3e-08
sg20
Nsg21
Nsg22
Nsg23
Nsbsg50
(F0.3
F0.2
tp1139
sba(ipowercad.design.library_structures
BondWire
p1140
(dp1141
g1056
F0.2
sg1057
I2
sg16
S'Aluminium Signal Bondwire 0.1mm'
p1142
sg57
I1
sg919
F0.125
sg13
(ipowercad.design.library_structures
MaterialProperties
p1143
(dp1144
g16
S'Aluminium'
p1145
sg18
Nsg19
F3e-08
sg20
Nsg21
Nsg22
Nsg23
Nsbsg50
F0.1
sba(ipowercad.design.library_structures
BondWire
p1146
(dp1147
g1056
F0.2
sg1057
I2
sg16
S'Aluminium Signal Bondwire 0.1mm'
p1148
sg57
I1
sg919
F0.125
sg13
(ipowercad.design.library_structures
MaterialProperties
p1149
(dp1150
g16
S'Aluminium'
p1151
sg18
Nsg19
F3e-08
sg20
Nsg21
Nsg22
Nsg23
Nsbsg50
F0.1
sba(ipowercad.design.library_structures
BondWire
p1152
(dp1153
g1056
F0.2
sg1057
I2
sg16
S'Aluminium Signal Bondwire 0.1mm'
p1154
sg57
I1
sg919
F0.125
sg13
(ipowercad.design.library_structures
MaterialProperties
p1155
(dp1156
g16
S'Aluminium'
p1157
sg18
Nsg19
F3e-08
sg20
Nsg21
Nsg22
Nsg23
Nsbsg50
F0.1
sba(ipowercad.design.library_structures
BondWire
p1158
(dp1159
g1056
F0.2
sg1057
I2
sg16
S'Aluminium Signal Bondwire 0.1mm'
p1160
sg57
I1
sg919
F0.125
sg13
(ipowercad.design.library_structures
MaterialProperties
p1161
(dp1162
g16
S'Aluminium'
p1163
sg18
Nsg19
F3e-08
sg20
Nsg21
Nsg22
Nsg23
Nsbsg50
F0.1
sba(ipowercad.design.library_structures
BondWire
p1164
(dp1165
g1056
F0.2
sg1057
I2
sg16
S'Aluminium Signal Bondwire 0.1mm'
p1166
sg57
I1
sg919
F0.125
sg13
(ipowercad.design.library_structures
MaterialProperties
p1167
(dp1168
g16
S'Aluminium'
p1169
sg18
Nsg19
F3e-08
sg20
Nsg21
Nsg22
Nsg23
Nsbsg50
F0.1
sba(ipowercad.design.library_structures
BondWire
p1170
(dp1171
g1056
F0.2
sg1057
I2
sg16
S'Aluminium Signal Bondwire 0.1mm'
p1172
sg57
I1
sg919
F0.125
sg13
(ipowercad.design.library_structures
MaterialProperties
p1173
(dp1174
g16
S'Aluminium'
p1175
sg18
Nsg19
F3e-08
sg20
Nsg21
Nsg22
Nsg23
Nsbsg50
F0.1
sba(ipowercad.design.library_structures
BondWire
p1176
(dp1177
g1056
F0.2
sg1057
I2
sg16
S'Aluminium Signal Bondwire 0.1mm'
p1178
sg57
I1
sg919
F0.125
sg13
(ipowercad.design.library_structures
MaterialProperties
p1179
(dp1180
g16
S'Aluminium'
p1181
sg18
Nsg19
F3e-08
sg20
Nsg21
Nsg22
Nsg23
Nsbsg50
F0.1
sba(ipowercad.design.library_structures
BondWire
p1182
(dp1183
g1056
F0.2
sg1057
I2
sg16
S'Aluminium Signal Bondwire 0.1mm'
p1184
sg57
I1
sg919
F0.125
sg13
(ipowercad.design.library_structures
MaterialProperties
p1185
(dp1186
g16
S'Aluminium'
p1187
sg18
Nsg19
F3e-08
sg20
Nsg21
Nsg22
Nsg23
Nsbsg50
F0.1
sba(ipowercad.design.library_structures
BondWire
p1188
(dp1189
g1056
F0.2
sg1057
I2
sg16
S'Aluminium Signal Bondwire 0.1mm'
p1190
sg57
I1
sg919
F0.125
sg13
(ipowercad.design.library_structures
MaterialProperties
p1191
(dp1192
g16
S'Aluminium'
p1193
sg18
Nsg19
F3e-08
sg20
Nsg21
Nsg22
Nsg23
Nsbsg50
F0.1
sba(ipowercad.design.library_structures
BondWire
p1194
(dp1195
g1056
F0.2
sg1057
I2
sg16
S'Aluminium Signal Bondwire 0.1mm'
p1196
sg57
I1
sg919
F0.125
sg13
(ipowercad.design.library_structures
MaterialProperties
p1197
(dp1198
g16
S'Aluminium'
p1199
sg18
Nsg19
F3e-08
sg20
Nsg21
Nsg22
Nsg23
Nsbsg50
F0.1
sba(ipowercad.design.library_structures
BondWire
p1200
(dp1201
g1056
F0.2
sg1057
I2
sg16
S'Aluminium Signal Bondwire 0.1mm'
p1202
sg57
I1
sg919
F0.125
sg13
(ipowercad.design.library_structures
MaterialProperties
p1203
(dp1204
g16
S'Aluminium'
p1205
sg18
Nsg19
F3e-08
sg20
Nsg21
Nsg22
Nsg23
Nsbsg50
F0.1
sba(ipowercad.design.library_structures
BondWire
p1206
(dp1207
g1056
F0.2
sg1057
I2
sg16
S'Aluminium Signal Bondwire 0.1mm'
p1208
sg57
I1
sg919
F0.125
sg13
(ipowercad.design.library_structures
MaterialProperties
p1209
(dp1210
g16
S'Aluminium'
p1211
sg18
Nsg19
F3e-08
sg20
Nsg21
Nsg22
Nsg23
Nsbsg50
F0.1
sbatp1212
ba(lp1213
g912
(g913
(dp1214
g915
g916
(g917
(I0
tp1215
g919
tp1216
Rp1217
(I1
(I9
tp1218
g926
I00
(lp1219
g930
ag931
ag932
ag933
aI0
aI1
aI2
aI3
aI4
atp1220
bsg16
Nstp1221
Rp1222
a(dp1223
S'0.14.1'
p1224
(dp1225
S'axes'
p1226
g911
sS'blocks'
p1227
(lp1228
(dp1229
S'mgr_locs'
p1230
c__builtin__
slice
p1231
(I0
I9
L1L
tp1232
Rp1233
sS'values'
p1234
g955
sasstp1235
bsbsb.